; ModuleID = '/var/folders/jw/f07sz9zx0wqck930wjllkpyr0000gn/T/.tmpGtdrHI/palindrome-init.ll'
source_filename = "runtime.c754f3aa9d510c22-cgu.0"
target datalayout = "e-m:o-i64:64-i128:128-n32:64-S128"
target triple = "arm64-apple-macosx13.0.0"

%"core::fmt::Arguments<'_>" = type { { ptr, i64 }, { ptr, i64 }, { ptr, i64 } }
%"core::fmt::rt::Placeholder" = type { { i64, i64 }, { i64, i64 }, i64, i32, i32, i8, [7 x i8] }
%"core::result::Result<&str, core::str::error::Utf8Error>" = type { i64, [2 x i64] }
%"core::result::Result<&str, core::str::error::Utf8Error>::Ok" = type { [1 x i64], { ptr, i64 } }
%"core::result::Result<f64, core::num::dec2flt::ParseFloatError>" = type { i8, [15 x i8] }
%"core::result::Result<f64, core::num::dec2flt::ParseFloatError>::Ok" = type { [1 x i64], double }

@alloc_da967f6e9acf91e913e9d8172d81c5c3 = private unnamed_addr constant <{ [4 x i8] }> <{ [4 x i8] c"true" }>, align 1
@alloc_b81e52ca1a07489f49a3e5fe131c4b29 = private unnamed_addr constant <{ [5 x i8] }> <{ [5 x i8] c"false" }>, align 1
@vtable.4 = private unnamed_addr constant <{ ptr, [16 x i8], ptr, ptr, ptr }> <{ ptr @"_ZN4core3ptr45drop_in_place$LT$libc_print..__LibCWriter$GT$17hbd3669dafa013a2cE", [16 x i8] c"\04\00\00\00\00\00\00\00\04\00\00\00\00\00\00\00", ptr @"_ZN61_$LT$libc_print..__LibCWriter$u20$as$u20$core..fmt..Write$GT$9write_str17hfeba44cb5b2df8dfE", ptr @_ZN4core3fmt5Write10write_char17hc6f525993c85bce7E, ptr @_ZN4core3fmt5Write9write_fmt17he8e1fa4725eb32b7E }>, align 8
@alloc_ffa3cdb3ae88e54a1cc225f31dd07672 = private unnamed_addr constant <{ ptr, [8 x i8] }> <{ ptr @anon.81eb2ca617e7b492be846be889fa0cc1.2, [8 x i8] zeroinitializer }>, align 8
@alloc_9f540273f3b79d2c726146bbd3f5074c = private unnamed_addr constant <{ ptr, [8 x i8] }> <{ ptr @alloc_b81e52ca1a07489f49a3e5fe131c4b29, [8 x i8] c"\05\00\00\00\00\00\00\00" }>, align 8
@alloc_de4c6128c1b30660c61eab3610f3a239 = private unnamed_addr constant <{ ptr, [8 x i8] }> <{ ptr @alloc_da967f6e9acf91e913e9d8172d81c5c3, [8 x i8] c"\04\00\00\00\00\00\00\00" }>, align 8
@alloc_bc552b7721126a64210d35ff65b32ae7 = private unnamed_addr constant <{ ptr, [8 x i8] }> <{ ptr @anon.81eb2ca617e7b492be846be889fa0cc1.122, [8 x i8] c"\03\00\00\00\00\00\00\00" }>, align 8
@alloc_2e8dd8b1c43f209e533ad466e2f062cd = private unnamed_addr constant <{ [8 x i8] }> <{ [8 x i8] c"Infinity" }>, align 1
@alloc_2076b882c852b27af7ff3b97a9b401a1 = private unnamed_addr constant <{ ptr, [8 x i8] }> <{ ptr @alloc_2e8dd8b1c43f209e533ad466e2f062cd, [8 x i8] c"\08\00\00\00\00\00\00\00" }>, align 8
@alloc_995e8bff70460e2365f6e5a3a99546cc = private unnamed_addr constant <{ [9 x i8] }> <{ [9 x i8] c"-Infinity" }>, align 1
@alloc_aafdf1a4a27a106112db52cc3b95de65 = private unnamed_addr constant <{ ptr, [8 x i8] }> <{ ptr @alloc_995e8bff70460e2365f6e5a3a99546cc, [8 x i8] c"\09\00\00\00\00\00\00\00" }>, align 8
@alloc_0242e8ee118de705af76c627590b82cc = private unnamed_addr constant <{ [1 x i8] }> <{ [1 x i8] c" " }>, align 1
@alloc_75c62af2e3495065b198d9bcb040c803 = private unnamed_addr constant <{ ptr, [8 x i8] }> <{ ptr @alloc_0242e8ee118de705af76c627590b82cc, [8 x i8] c"\01\00\00\00\00\00\00\00" }>, align 8
@alloc_49a1e817e911805af64bbc7efb390101 = private unnamed_addr constant <{ [1 x i8] }> <{ [1 x i8] c"\0A" }>, align 1
@anon.81eb2ca617e7b492be846be889fa0cc1.2 = private unnamed_addr constant <{}> zeroinitializer, align 8
@anon.81eb2ca617e7b492be846be889fa0cc1.34 = private unnamed_addr constant <{ [130 x i8] }> <{ [130 x i8] c"\00\00\00\08\01\08\03\08\06\10\09\10\0D\10\12\18\17\18\1D\18$ + 3 < F(P([(g0s0\800\8E8\9C8\AB8\BB8\CC@\DD@\EF@\02I\15I)I>QSQiQ\80Q\98Y\B0Y\C9Y\E3a\FDa\18b4jPjmj\8Bj\AAr\C9r\E9r\0A{+{M{p\83\93\83\B7\83\DC\83\02\8C(\8CO\8Cw\94\9F\94\C8\94\F2\9C\1C\05\1C\05\1C\05\1C\05" }>, align 2
@anon.81eb2ca617e7b492be846be889fa0cc1.35 = private unnamed_addr constant <{ [1308 x i8] }> <{ [1308 x i8] c"\05\02\05\01\02\05\06\02\05\03\01\02\05\01\05\06\02\05\07\08\01\02\05\03\09\00\06\02\05\01\09\05\03\01\02\05\09\07\06\05\06\02\05\04\08\08\02\08\01\02\05\02\04\04\01\04\00\06\02\05\01\02\02\00\07\00\03\01\02\05\06\01\00\03\05\01\05\06\02\05\03\00\05\01\07\05\07\08\01\02\05\01\05\02\05\08\07\08\09\00\06\02\05\07\06\02\09\03\09\04\05\03\01\02\05\03\08\01\04\06\09\07\02\06\05\06\02\05\01\09\00\07\03\04\08\06\03\02\08\01\02\05\09\05\03\06\07\04\03\01\06\04\00\06\02\05\04\07\06\08\03\07\01\05\08\02\00\03\01\02\05\02\03\08\04\01\08\05\07\09\01\00\01\05\06\02\05\01\01\09\02\00\09\02\08\09\05\05\00\07\08\01\02\05\05\09\06\00\04\06\04\04\07\07\05\03\09\00\06\02\05\02\09\08\00\02\03\02\02\03\08\07\06\09\05\03\01\02\05\01\04\09\00\01\01\06\01\01\09\03\08\04\07\06\05\06\02\05\07\04\05\00\05\08\00\05\09\06\09\02\03\08\02\08\01\02\05\03\07\02\05\02\09\00\02\09\08\04\06\01\09\01\04\00\06\02\05\01\08\06\02\06\04\05\01\04\09\02\03\00\09\05\07\00\03\01\02\05\09\03\01\03\02\02\05\07\04\06\01\05\04\07\08\05\01\05\06\02\05\04\06\05\06\06\01\02\08\07\03\00\07\07\03\09\02\05\07\08\01\02\05\02\03\02\08\03\00\06\04\03\06\05\03\08\06\09\06\02\08\09\00\06\02\05\01\01\06\04\01\05\03\02\01\08\02\06\09\03\04\08\01\04\04\05\03\01\02\05\05\08\02\00\07\06\06\00\09\01\03\04\06\07\04\00\07\02\02\06\05\06\02\05\02\09\01\00\03\08\03\00\04\05\06\07\03\03\07\00\03\06\01\03\02\08\01\02\05\01\04\05\05\01\09\01\05\02\02\08\03\06\06\08\05\01\08\00\06\06\04\00\06\02\05\07\02\07\05\09\05\07\06\01\04\01\08\03\04\02\05\09\00\03\03\02\00\03\01\02\05\03\06\03\07\09\07\08\08\00\07\00\09\01\07\01\02\09\05\01\06\06\00\01\05\06\02\05\01\08\01\08\09\08\09\04\00\03\05\04\05\08\05\06\04\07\05\08\03\00\00\07\08\01\02\05\09\00\09\04\09\04\07\00\01\07\07\02\09\02\08\02\03\07\09\01\05\00\03\09\00\06\02\05\04\05\04\07\04\07\03\05\00\08\08\06\04\06\04\01\01\08\09\05\07\05\01\09\05\03\01\02\05\02\02\07\03\07\03\06\07\05\04\04\03\02\03\02\00\05\09\04\07\08\07\05\09\07\06\05\06\02\05\01\01\03\06\08\06\08\03\07\07\02\01\06\01\06\00\02\09\07\03\09\03\07\09\08\08\02\08\01\02\05\05\06\08\04\03\04\01\08\08\06\00\08\00\08\00\01\04\08\06\09\06\08\09\09\04\01\04\00\06\02\05\02\08\04\02\01\07\00\09\04\03\00\04\00\04\00\00\07\04\03\04\08\04\04\09\07\00\07\00\03\01\02\05\01\04\02\01\00\08\05\04\07\01\05\02\00\02\00\00\03\07\01\07\04\02\02\04\08\05\03\05\01\05\06\02\05\07\01\00\05\04\02\07\03\05\07\06\00\01\00\00\01\08\05\08\07\01\01\02\04\02\06\07\05\07\08\01\02\05\03\05\05\02\07\01\03\06\07\08\08\00\00\05\00\00\09\02\09\03\05\05\06\02\01\03\03\07\08\09\00\06\02\05\01\07\07\06\03\05\06\08\03\09\04\00\00\02\05\00\04\06\04\06\07\07\08\01\00\06\06\08\09\04\05\03\01\02\05\08\08\08\01\07\08\04\01\09\07\00\00\01\02\05\02\03\02\03\03\08\09\00\05\03\03\04\04\07\02\06\05\06\02\05\04\04\04\00\08\09\02\00\09\08\05\00\00\06\02\06\01\06\01\06\09\04\05\02\06\06\07\02\03\06\03\02\08\01\02\05\02\02\02\00\04\04\06\00\04\09\02\05\00\03\01\03\00\08\00\08\04\07\02\06\03\03\03\06\01\08\01\06\04\00\06\02\05\01\01\01\00\02\02\03\00\02\04\06\02\05\01\05\06\05\04\00\04\02\03\06\03\01\06\06\08\00\09\00\08\02\00\03\01\02\05\05\05\05\01\01\01\05\01\02\03\01\02\05\07\08\02\07\00\02\01\01\08\01\05\08\03\04\00\04\05\04\01\00\01\05\06\02\05\02\07\07\05\05\05\07\05\06\01\05\06\02\08\09\01\03\05\01\00\05\09\00\07\09\01\07\00\02\02\07\00\05\00\07\08\01\02\05\01\03\08\07\07\07\08\07\08\00\07\08\01\04\04\05\06\07\05\05\02\09\05\03\09\05\08\05\01\01\03\05\02\05\03\09\00\06\02\05\06\09\03\08\08\09\03\09\00\03\09\00\07\02\02\08\03\07\07\06\04\07\06\09\07\09\02\05\05\06\07\06\02\06\09\05\03\01\02\05\03\04\06\09\04\04\06\09\05\01\09\05\03\06\01\04\01\08\08\08\02\03\08\04\08\09\06\02\07\08\03\08\01\03\04\07\06\05\06\02\05\01\07\03\04\07\02\03\04\07\05\09\07\06\08\00\07\00\09\04\04\01\01\09\02\04\04\08\01\03\09\01\09\00\06\07\03\08\02\08\01\02\05\08\06\07\03\06\01\07\03\07\09\08\08\04\00\03\05\04\07\02\00\05\09\06\02\02\04\00\06\09\05\09\05\03\03\06\09\01\04\00\06\02\05" }>, align 1
@anon.81eb2ca617e7b492be846be889fa0cc1.38 = private unnamed_addr constant <{ [19 x i8] }> <{ [19 x i8] c"\00\03\06\09\0D\10\13\17\1A\1D!$'+.158;" }>, align 1
@anon.81eb2ca617e7b492be846be889fa0cc1.40 = private unnamed_addr constant <{ [256 x i8] }> <{ [256 x i8] c"\00\00\00\00\00\00\F0?\00\00\00\00\00\00$@\00\00\00\00\00\00Y@\00\00\00\00\00@\8F@\00\00\00\00\00\88\C3@\00\00\00\00\00j\F8@\00\00\00\00\80\84.A\00\00\00\00\D0\12cA\00\00\00\00\84\D7\97A\00\00\00\00e\CD\CDA\00\00\00 _\A0\02B\00\00\00\E8vH7B\00\00\00\A2\94\1AmB\00\00@\E5\9C0\A2B\00\00\90\1E\C4\BC\D6B\00\004&\F5k\0CC\00\80\E07y\C3AC\00\A0\D8\85W4vC\00\C8Ngm\C1\ABC\00=\91`\E4X\E1C@\8C\B5x\1D\AF\15DP\EF\E2\D6\E4\1AKD\92\D5M\06\CF\F0\80D\00\00\00\00\00\00\00\00\00\00\00\00\00\00\00\00\00\00\00\00\00\00\00\00\00\00\00\00\00\00\00\00\00\00\00\00\00\00\00\00\00\00\00\00\00\00\00\00\00\00\00\00\00\00\00\00\00\00\00\00\00\00\00\00\00\00\00\00\00\00\00\00" }>, align 8
@anon.81eb2ca617e7b492be846be889fa0cc1.43 = private unnamed_addr constant <{ [128 x i8] }> <{ [128 x i8] c"\01\00\00\00\00\00\00\00\0A\00\00\00\00\00\00\00d\00\00\00\00\00\00\00\E8\03\00\00\00\00\00\00\10'\00\00\00\00\00\00\A0\86\01\00\00\00\00\00@B\0F\00\00\00\00\00\80\96\98\00\00\00\00\00\00\E1\F5\05\00\00\00\00\00\CA\9A;\00\00\00\00\00\E4\0BT\02\00\00\00\00\E8vH\17\00\00\00\00\10\A5\D4\E8\00\00\00\00\A0rN\18\09\00\00\00@z\10\F3Z\00\00\00\80\C6\A4~\8D\03\00" }>, align 8
@_ZN4core3num7flt2dec8strategy6dragon8TWOPOW1017h0f6441e5b6bf4178E = internal unnamed_addr constant <{ [40 x i8] }> <{ [40 x i8] c"\02\00\00\00\14\00\00\00\C8\00\00\00\D0\07\00\00 N\00\00@\0D\03\00\80\84\1E\00\00-1\01\00\C2\EB\0B\00\945w" }>, align 4
@_ZN4core3num7flt2dec8strategy6dragon9POW10TO1617h63d2c5acc16b0626E = internal constant <{ [8 x i8] }> <{ [8 x i8] c"\00\00\C1o\F2\86#\00" }>, align 4
@_ZN4core3num7flt2dec8strategy6dragon9POW10TO3217h5db851f6d9e44384E = internal constant <{ [16 x i8] }> <{ [16 x i8] c"\00\00\00\00\81\EF\AC\85[Am-\EE\04\00\00" }>, align 4
@_ZN4core3num7flt2dec8strategy6dragon9POW10TO6417h6dc31d966e6bc033E = internal constant <{ [28 x i8] }> <{ [28 x i8] c"\00\00\00\00\00\00\00\00\01\1Fj\BFd\ED8n\ED\97\A7\DA\F4\F9?\E9\03O\18\00" }>, align 4
@_ZN4core3num7flt2dec8strategy6dragon10POW10TO12817ha3eb925412edb8d4E = internal constant <{ [56 x i8] }> <{ [56 x i8] c"\00\00\00\00\00\00\00\00\00\00\00\00\00\00\00\00\01>\95.\09\99\DF\03\FD8\15\0F/\E4t#\EC\F5\CF\D3\08\DC\04\C4\DA\B0\CD\BC\19\7F3\A6\03&\1F\E9N\02\00\00" }>, align 4
@_ZN4core3num7flt2dec8strategy6dragon10POW10TO25617h9162a07aef2cbe14E = internal constant <{ [108 x i8] }> <{ [108 x i8] c"\00\00\00\00\00\00\00\00\00\00\00\00\00\00\00\00\00\00\00\00\00\00\00\00\00\00\00\00\00\00\00\00\01|.\98[\87\D3\BEr\9F\D9\D8\87/\15\12\C6P\DEkpnJ\CF\0F\D8\95\D5nq\B2&\B0f\C6\AD$6\15\1DZ\D3B<\0ET\FFc\C0sU\CC\17\EF\F9e\F2(\BCU\F7\C7\DC\80\DC\EDn\F4\CE\EF\DC_\F7S\05\00" }>, align 4
@_ZN4core3num7flt2dec8strategy5grisu12CACHED_POW1017hcf5f875a21b3d76aE = internal unnamed_addr constant <{ [1296 x i8] }> <{ [1296 x i8] c"\DFE\1A=\03\CF\1A\E6\C1\FB\CC\FE\00\00\00\00\CA\C6\9A\C7\17\FEp\AB\DC\FB\D4\FE\00\00\00\00O\DC\BC\BE\FC\B1w\FF\F6\FB\DC\FE\00\00\00\00\0C\D6kA\EF\91V\BE\11\FC\E4\FE\00\00\00\00<\FC\7F\90\AD\1F\D0\8D,\FC\EC\FE\00\00\00\00\83\9AU1(\\Q\D3F\FC\F4\FE\00\00\00\00\B5\C9\A6\AD\8F\ACq\9Da\FC\FC\FE\00\00\00\00\CB\8B\EE#w\22\9C\EA{\FC\04\FF\00\00\00\00mSx@\91I\CC\AE\96\FC\0C\FF\00\00\00\00W\CE\B6]y\12<\82\B1\FC\14\FF\00\00\00\007V\FBM6\94\10\C2\CB\FC\1C\FF\00\00\00\00O\98H8o\EA\96\90\E6\FC$\FF\00\00\00\00\C7:\82%\CB\85t\D7\00\FD,\FF\00\00\00\00\F4\97\BF\97\CD\CF\86\A0\1B\FD4\FF\00\00\00\00\E5\AC*\17\98\0A4\EF5\FD<\FF\00\00\00\00\8E\B25*\FBg8\B2P\FDD\FF\00\00\00\00;?\C6\D2\DF\D4\C8\84k\FDL\FF\00\00\00\00\BA\CD\D3\1A'D\DD\C5\85\FDT\FF\00\00\00\00\96\C9%\BB\CE\9Fk\93\A0\FD\\\FF\00\00\00\00\84\A5b}$l\AC\DB\BA\FDd\FF\00\00\00\00\F6\DA_\0DXf\AB\A3\D5\FDl\FF\00\00\00\00&\F1\C3\DE\93\F8\E2\F3\EF\FDt\FF\00\00\00\00\B8\80\FF\AA\A8\AD\B5\B5\0A\FE|\FF\00\00\00\00\8BJ|l\05_b\87%\FE\84\FF\00\00\00\00S0\C14`\FF\BC\C9?\FE\8C\FF\00\00\00\00U&\BA\91\8C\85N\96Z\FE\94\FF\00\00\00\00\BD~)p$w\F9\DFt\FE\9C\FF\00\00\00\00\8F\B8\E5\B8\9F\BD\DF\A6\8F\FE\A4\FF\00\00\00\00\94}t\88\CF_\A9\F8\A9\FE\AC\FF\00\00\00\00\CF\9B\A8\8F\93pD\B9\C4\FE\B4\FF\00\00\00\00k\15\0F\BF\F8\F0\08\8A\DF\FE\BC\FF\00\00\00\00\B611eU%\B0\CD\F9\FE\C4\FF\00\00\00\00\AC\7F{\D0\C6\E2?\99\14\FF\CC\FF\00\00\00\00\06;+*\C4\10\\\E4.\FF\D4\FF\00\00\00\00\D3\92si\99$$\AAI\FF\DC\FF\00\00\00\00\0E\CA\00\83\F2\B5\87\FDc\FF\E4\FF\00\00\00\00\EB\1A\11\92d\08\E5\BC~\FF\EC\FF\00\00\00\00\CC\88Po\09\CC\BC\8C\99\FF\F4\FF\00\00\00\00,e\19\E2X\17\B7\D1\B3\FF\FC\FF\00\00\00\00\00\00\00\00\00\00@\9C\CE\FF\04\00\00\00\00\00\00\00\00\00\10\A5\D4\E8\E8\FF\0C\00\00\00\00\00\00\00b\AC\C5\EBx\AD\03\00\14\00\00\00\00\00\84\09\94\F8x9?\81\1E\00\1C\00\00\00\00\00\B3\15\07\C9{\CE\97\C08\00$\00\00\00\00\00p\\\EA{\CE2~\8FS\00,\00\00\00\00\00h\80\E9\AB\A48\D2\D5m\004\00\00\00\00\00E\22\9A\17&'O\9F\88\00<\00\00\00\00\00'\FB\C4\D41\A2c\ED\A2\00D\00\00\00\00\00\A8\AD\C8\8C8e\DE\B0\BD\00L\00\00\00\00\00\DBe\AB\1A\8E\08\C7\83\D8\00T\00\00\00\00\00\9A\1DqB\F9\1D]\C4\F2\00\\\00\00\00\00\00X\E7\1B\A6,iM\92\0D\01d\00\00\00\00\00\EA\8Dp\1Ad\EE\01\DA'\01l\00\00\00\00\00Jw\EF\9A\99\A3m\A2B\01t\00\00\00\00\00\85k}\B4{x\09\F2\\\01|\00\00\00\00\00w\18\DDy\A1\E4T\B4w\01\84\00\00\00\00\00\C2\C5\9B[\92\86[\86\92\01\8C\00\00\00\00\00=]\96\C8\C5S5\C8\AC\01\94\00\00\00\00\00\B3\A0\97\FA\\\B4*\95\C7\01\9C\00\00\00\00\00\E3_\A0\99\BD\9FF\DE\E1\01\A4\00\00\00\00\00%\8C9\DB4\C2\9B\A5\FC\01\AC\00\00\00\00\00\\\9F\98\A3r\9A\C6\F6\16\02\B4\00\00\00\00\00\CE\BE\E9TS\BF\DC\B71\02\BC\00\00\00\00\00\E2A\22\F2\17\F3\FC\88L\02\C4\00\00\00\00\00\A5x\\\D3\9B\CE \CCf\02\CC\00\00\00\00\00\DFS!{\F3Z\16\98\81\02\D4\00\00\00\00\00:0\1F\97\DC\B5\A0\E2\9B\02\DC\00\00\00\00\00\96\B3\E3\\S\D1\D9\A8\B6\02\E4\00\00\00\00\00<D\A7\A4\D9|\9B\FB\D0\02\EC\00\00\00\00\00\10D\A4\A7LLv\BB\EB\02\F4\00\00\00\00\00\1A\9C@\B6\EF\8E\AB\8B\06\03\FC\00\00\00\00\00,\84W\A6\10\EF\1F\D0 \03\04\01\00\00\00\00)1\91\E9\E5\A4\10\9B;\03\0C\01\00\00\00\00\9D\0C\9C\A1\FB\9B\10\E7U\03\14\01\00\00\00\00)\F4;b\D9 (\ACp\03\1C\01\00\00\00\00\85\CF\A7z^KD\80\8B\03$\01\00\00\00\00-\DD\AC\03@\E4!\BF\A5\03,\01\00\00\00\00\8F\FFD^/\9Cg\8E\C0\034\01\00\00\00\00A\B8\8C\9C\9D\173\D4\DA\03<\01\00\00\00\00\A9\1B\E3\B4\92\DB\19\9E\F5\03D\01\00\00\00\00\D9w\DF\BAn\BF\96\EB\0F\04L\01\00\00\00\00" }>, align 8
@anon.81eb2ca617e7b492be846be889fa0cc1.97 = private unnamed_addr constant <{ [40 x i8] }> <{ [40 x i8] c"\01\00\00\00\0A\00\00\00d\00\00\00\E8\03\00\00\10'\00\00\A0\86\01\00@B\0F\00\80\96\98\00\00\E1\F5\05\00\CA\9A;" }>, align 4
@anon.81eb2ca617e7b492be846be889fa0cc1.110 = private unnamed_addr constant <{ [1 x i8] }> <{ [1 x i8] c"." }>, align 1
@anon.81eb2ca617e7b492be846be889fa0cc1.111 = private unnamed_addr constant <{ [2 x i8] }> <{ [2 x i8] c"0." }>, align 1
@anon.81eb2ca617e7b492be846be889fa0cc1.120 = private unnamed_addr constant <{ [1 x i8] }> <{ [1 x i8] c"-" }>, align 1
@anon.81eb2ca617e7b492be846be889fa0cc1.121 = private unnamed_addr constant <{ [1 x i8] }> <{ [1 x i8] c"+" }>, align 1
@anon.81eb2ca617e7b492be846be889fa0cc1.122 = private unnamed_addr constant <{ [3 x i8] }> <{ [3 x i8] c"NaN" }>, align 1
@anon.81eb2ca617e7b492be846be889fa0cc1.123 = private unnamed_addr constant <{ [3 x i8] }> <{ [3 x i8] c"inf" }>, align 1
@anon.81eb2ca617e7b492be846be889fa0cc1.124 = private unnamed_addr constant <{ [1 x i8] }> <{ [1 x i8] c"0" }>, align 1
@anon.81eb2ca617e7b492be846be889fa0cc1.322 = private unnamed_addr constant <{ [200 x i8] }> <{ [200 x i8] c"00010203040506070809101112131415161718192021222324252627282930313233343536373839404142434445464748495051525354555657585960616263646566676869707172737475767778798081828384858687888990919293949596979899" }>, align 1
@anon.81eb2ca617e7b492be846be889fa0cc1.325 = private unnamed_addr constant <{ [64 x i8] }> <{ [64 x i8] c"0000000000000000000000000000000000000000000000000000000000000000" }>, align 1
@anon.81eb2ca617e7b492be846be889fa0cc1.392 = private unnamed_addr constant <{ [256 x i8] }> <{ [256 x i8] c"\01\01\01\01\01\01\01\01\01\01\01\01\01\01\01\01\01\01\01\01\01\01\01\01\01\01\01\01\01\01\01\01\01\01\01\01\01\01\01\01\01\01\01\01\01\01\01\01\01\01\01\01\01\01\01\01\01\01\01\01\01\01\01\01\01\01\01\01\01\01\01\01\01\01\01\01\01\01\01\01\01\01\01\01\01\01\01\01\01\01\01\01\01\01\01\01\01\01\01\01\01\01\01\01\01\01\01\01\01\01\01\01\01\01\01\01\01\01\01\01\01\01\01\01\01\01\01\01\00\00\00\00\00\00\00\00\00\00\00\00\00\00\00\00\00\00\00\00\00\00\00\00\00\00\00\00\00\00\00\00\00\00\00\00\00\00\00\00\00\00\00\00\00\00\00\00\00\00\00\00\00\00\00\00\00\00\00\00\00\00\00\00\00\00\02\02\02\02\02\02\02\02\02\02\02\02\02\02\02\02\02\02\02\02\02\02\02\02\02\02\02\02\02\02\03\03\03\03\03\03\03\03\03\03\03\03\03\03\03\03\04\04\04\04\04\00\00\00\00\00\00\00\00\00\00\00" }>, align 1
@_ZN4core3num7dec2flt5table17POWER_OF_FIVE_12817h1d640e41b0a2cf90E = internal unnamed_addr constant <{ [10416 x i8] }> <{ [10416 x i8] c"Z\D6;\92\D6S\F4\EE?;\A1\06)\AA?\11\F8ee\1Bf\B4X\95\07\C5$\A4Y\CA\C7Jv\BF>\A2\7F\E1\AE\BAI\F6-\0D\F0\BCy]So\CE\8A\DF\99Z\E9\DCsy\10,,\D8\F4\94\05\C1\B6+\A0\D8\91i\E8K\8A\9B\1B\07y\F9Fq\A46\C8N\B6\84\E2\DEl\82\E2H\97\B7\98\8DMDz\E2\E3%\9B\16\08#\1B\1B\FDr\7Fx\B0j\8Cm\8E\F7 \0E\E5\F5\F00\FEO\9F\96\\\85\EF\08\B25\A9Q^3-\BD\BD#G\BC\B3f+\8B\DE\82\13\E65\80x,\ADv\ACU0 \FB\16\8B1\CC\AF!P\CB;L\93\17k<\E8\B9\DC\AD=\BF\1B*$\BEJ\DFx\DD\85Kb\E8S\D9\0D\AF\A24\ADm\1D\D7k\AA3o=q\D4\87h\AD\E5@\8Cdr\86\06\95\00\CB\8C\8D\C9\A9\C2\18\1FQ\AF\FD\0EhH\BA\C0\FD\EF\F0;\D4\F2\DEf%\1B\BD\12\02mt\98\FE\95v\A5\84WK`\F70\B6K\01\88\91>~;\D4\CE\A5-^85\BD\A3\9EA\EA5\CE]J\89B\CF\B9u\86\82\ACL\06R\B2\E1\A0z\CE\95\89\81\93\09\94\D1\EB\EFCs\1F\1AI\19B\FB\EB\A1\F8\0B\F9\C5\E6\EB\14\10\A6`\9B\9F\12\FAf\CA\F6Nww\E0&\1A\D4\D08\82G\97\B8\00\FD\B4\22U\95\98\B0 \89\82c\B1\8C^s \9E\B05U]_n\B4Ub\BC\DD/6\90\A8\C5\1D\83\AA4\F7\89!\EB{+\D5\BBC\B4\12\F7\E4#\D5\01u\EC\E9\A5-;eU\AA\B0k\9An6%!\C93\B2G\F8\89\BE\EA\D4\9C\06\C1\0A\84ni\BB\C0\9E\99v,n%\0ADH\F1\0D%\CAC\EAp\06\C0\CA\DBdW\86*\CD\96(W^j\92\06\048\BC\12>\ED'u\80\BC\F2\EC\F5\047\08\05\C6k\97\8D\E8q\92\A0\EB.h3\C6DJ\86\F7\A3~X1\87[D\93\1D!\E0\FBj\EE\B3zL\9E\AE\FDhr\15\B8d)\D8\BA\05\EA`Y\DFE\1A=\03\CF\1A\E6\BD3\8E)\87$\B9o\ABk0\06b\C1\D0\8FV\E0\F8y\D4\B6\D3\A5\96\86\BC\87\BA\F1\C4\B3l\18w\98\89\A4H\8F<\A8\AB)).\B6\E0\87\DE\94\FE\AB\CD\1A3%I\0B\BA\D9\DCq\8C\14\0B\1D\7F\8B\C0\F0\9Fo\1B\8E(\10T\8E\AF\D9M\E4^\AE\F0\EC\07J\A2\B12\14\E9q\DBPa\9D\F6\D9,\E8\C9n\05\AF\9F\AC1'\89\D2\\\22:\08\1C1\BE\CA\C6\9A\C7\17\FEp\AB\06\F4\AAH\0Ac\BDm}x\81\B9\9D=M\D6\08\B1\D5\DA\CC\BB,\09N\EB\F0\93\82F\F0\85\A5\8E\C5\08`\F5\BB%!&\ED8#Xl\A7N\F2\F6\0A\B8\F2*\AF\AAo(\07,nG\D1\E1\AE\B4\0Df\AF\F5\1A\CAEy\84\DB\A4\CC\82M\ED\90\C8\9F\8D\D9P<\97\97e\12\CE\7F\A3\A0(\B5\BA\07\F1\0F\E5\0C}\FD\FE\96\C1_\CC\C8rb\A9I\EDS\1EO\DC\BC\BE\FC\B1w\FFz\0F\BB\13\9C\E8\E8%\B1\096\F7=\CF\AA\9F\AC\E9T\8Ca\91\B1w\1D\8C\03u\0D\83\95\C7\17$j\EF\B9\F5\9D\D5%oD\D2\D0\E3z\F9\1D\ADDk(s\05Kw\C5j\83b\CE\EC\9B2\EC\0AC\F9g\E3N\D5vE$\FB\01\E8\C2?\A7\CD\93\F7A\9C\22\8A\D4V\EDy\02\A2\F3\0F\11\C1xuRCk\D6DV4\8CAE\98\A9\AAxk\89\13\0A\83\0C\D6kA\EF\91V\BES\D5V\C6k\98\CC#\8F\CB\C6\11k6\EC\ED\A8\8A\EC\B7\86\BE\BF,9?\1C\EB\02\A2\B3\94\A9\D6\F32\14\D7\F7{\07O\E3\A5\83\8A\E0\B9S\CC\B0?\D9\CC\F5\DA\C9\22\\\8F$\ADX\E8h\FF\9C\8F\0F@\B3\D1\BE\95\99\D96l7\91\A1\1F\C2\B9\09\08\10#-\FB\FF\8FDG\85\B5\8A\A72(\0C\0A\D4\AB\F9\F9\FF\B3\15\99\E6\E2lQ?2\8F\0C\C9\16;\FC\7F\90\AD\1F\D0\8D\E3\92g\7F\D9\A7=\AEJ\FB\9F\F4\98'D\B1\9CwA\DF\CF\11\CD\99\1D\FA\C71\7F1\95\DD\83\D5\11\D7CV@@R\FC\1C\7F\EF>}\8Ar%kf\EA5(Hf;\E4^\AB\8E\1C\AD\CF\EE\05\00eC2\DA@J\9D6V\B2c\D8\82j\07@>\D4\BE\90hN\22\E2uO>\87\91\A2\04\E8\A6DwZ\02\E2\AAZS\E3\0D\A96\CB\05\A2\D0\15\15q\83\9AU1(\\Q\D3\03>\87\CAD[Z\0D\91\80\D5\1E\99\D9\12\84\C2\86\94\FE\0AyX\E8\B6\E0\8Af\FF\8F\17\A5r\A89\BEM\97nb\E3\98-@\FFs]\CE\8F\12\C8-!=\0A\FB\8E\7F\1C\88\7Fh\FA\80\99\0B\9D\BC4f\E6|r\9F#j\9F\029\A1\80N\C4\EB\C1\FF\1F\1CN\87\ACDGC\87\C9 b\B5f\B2\FF'\A3\22\A9\D7\15\19\14\E9\FB\A8\BAb\00\9F\FF\F1K\B5\C9\A6\AD\8F\ACq\9D\A9\B4=`\C3?wo\22|\10\99\B3\17\CE\C4\D3!M8\B4\0FU\CB+\9BT\7F\A0\9D\01\F6Hj`F\A1S*~\FB\E0\94O\84\02\C1\99mB\FC\CBDt\DA.9\19zc%C1\C0\08S\FB\FEU\11\91\FA\88\9FX\BC\EE\93=\F0\CA'\BA~\ABU5y\B5c\B75u|&\96\DEX4/\8BU\C1K\A2<%\83\92\1B\B0\BB\16o\01\FB\ED\AA\B1\9E\CB\8B\EE#w\22\9C\EA\DC\CA\C1y\A9\15^F_\17uv\8A\95\A1\92\C9\1E\19\EC\89\CD\FA\0B6]\12\14\ED\FAI\B7{f\1Fg\EC\80\F9\CE\84\F4\16Y\A8y\1C\E5\1A@\E7\80'\E1\B7\82\D2X\AE7\09\CC1\8F\10\88\90\B0\B8\EC\B2\D1\07\EF\99\85\0B?\FE\B2\15\AA\B4\DC\E6\A7\1F\86\C9j\00g\CE\CE\BD\DF\9A\D4\E1\93\E0\91\A7g\BDB`\00A\A1\D6\8B\E0$m\\,\BB\C8\E0mSx@\91I\CC\AE\18n\88s\F7\E9\FAXHh\96\90\F5[\7F\DA\9E\89jPu\A49\AF-\01^zy\99\8F\88\03\96BR\C9\06\84mx\81\F5\D8\D7\7F\B3\AA\83;\D3\A6{\08\E5\C8\D6\E12\CF\CD_`\D5d\0A\88\90\9AJ\1E\FB&\CD\7F\A1\E0;\\\85\7F\06U\9A\A0\EE\F2\\o\C0\DF\C9\D8J\B3\A6\1EH\EA\C0H\AA/\F4\8B\B0W\FC\8E\1D`\D0&\DA$\F1\DA\94;\F1W\CE\B6]y\12<\82X\08\B7\D6\08=\C5v\ED\81$\B5\17\17\CB\A2n\CAd\0CK\8CvTh\A2m\A2\DD\DC}\CB\09\FD}\CF]/\94\A9\02\0B\09\0B\15T]\FEL|]C5;\F9\D3\E1\A6\E5&\8DT\FA\9E\AFm\1AJ\01\C5{\C4\9A\10\9Fp\B0\E9\B8\C6\1B\09\A1\9CA\B6\9A5\C0\D4\C6\8C\1C$g\F8bK\C9\03\D2c\01\C3\F8D\FC\D7\91v@\9B\1D\CF]Bc\DE\E0y6V\FBM6\94\10\C2\E4B\F5\12\FC\15Y\98\C4+z\E1C\B9\94\F2\9D\93\B2\17{[o>Z[\ECl\CA\F3\9C\97B\9C\CF\EE,\99\05\A71r'\08\BD0\84\BDS\83\83*x\FF\C6P\BDN1J\EC<\E5\EC(d$5V\BF\F8\A46\D1^\AE\13F\0F\94\99\BE6\E1\95w\1B\87\84\85\F6\99\98\17\13\B9?n\84Y{U\E2(\E5&t\C0~\DDW\E7\CF\89\E5/\DA\EA\1A3O\98H8o\EA\96\90!v\EF]\C8\D2\F0?c\BEZ\06\0B\A5\BC\B4\A9Skuz\07\ED\0F\FBm\F1\C7M\CE\EB\E1\94(\C6\12YI\E8\D3\BD\E4\F6\9C\F0`3\8D\\\D9\BB\AB\D7-qd\EC\9D4\C4,9\80\B0\B3\CF\AA\96My\8D\BDg\C5A\F5wG\A0\DC\A0\83U\FC\A0\D7\F0\EC`\1BI\F9\AA,\E4\89Dr\B5\9D\C4\86\16\F49b\9B\B7\D57]\AC\D5\CE\22\C5u(\1C1\C7:\82%\CB\85t\D7\8B\82k6\932c}\BCdq\F7\9E\D3\A8\86\971\03\02\9C\FF]\AE\EB\BDM\B5\86\08S\A8\FC\FD\83\02\83\7F\F5\D9f-\A1b\A8\CAg\D2{\FD$\C3c\DFr\D0`\BC\A4=\A9\DE\80\83m\1E\F7Y\9E\CBGBx\EB\0D\8DS\16a\A4\08\E6t\F0\85\BE\D9RVfQp\E8[y\CD\8B\1F\92l'.\90g\F6\DF2Fq\D9k\80\B6S\DB\A3\D8\1C\BA\00\F3\97\BF\97\CD\CF\86\A0\A4(\D2\CC\0E\A4\E8\80\F0}\AF\FD\C0\83\A8\C8\CD\B2\06\80\12\CD\22al]\1B=\B1\A4\D2\FA\81_\08 W\80kyc\1A1\C6\EE\A6\C3\9C\B0;\05t60\E3\CB\FC`\BDw\AA\90\F4\C3\9C\8A\06\11D\FC\DB\BE;\B9\AC\15\D5\B4\F1\F4D-H\15U\FB\92\EE\C5\F3\8B-\05\11\17\99J\1CM-\15\DD\1Bu\B6\F0\EExF\D5\\\BF]c\A0xZ\D4b\D2\E4\AC*\17\98\0A4\EF4|\C8\16q\89\FB\86\0E\ACz\0E\9F\86\80\95\A0M=\AE\E65]\D4\12W\19\D2F\A8\E0\BA\09\A1\CCY`\83t\89\D7\AC\9F\86X\D2\98\E9K\C9?p8\A4\D1+\06\CC#Tw\83\FF\91\CF\DD'F\A3\06c{\08\BF,)Ud\7F\B6B\D5\B1\17L\C8;\1A\CA\EEwsj=\1F\E4\93J\9E\1D_\BA\CA >\F5*\88b\86\93\8E\9C\EE\82r{\B4~T\8D\B25*\FBg8\B2C\AA#O\9Aa\9E\E91\1F\C3\F4\F9\81\C6\DE\D4\94\EC\E2\00\FA\05d~\F3\F98<\11<\8B\04\DD\D3\8D@\BC\83\DE^p8G\8B\15\0B\AEE\D4H\B1P\AB$\96v\8C\06\19\EE\DA\8D\D9W\09\9B\DD$\D6\AD;\C9\17\A4\CF\D4\A8\F8\87\D6\E5\80\0A\D7\A5L\E5\BC\1D\8D\03\0A\D3\F6\A9L\1F!\CDL\CF\9F^+ep\84\CC\87t\D4\1Fgi\00 \C3Gv;?\C6\D2\DF\D4\C8\84s\E0A\00\F4\D9\EC)\09\CFw\C7\17\0A\FB\A5\90XR\00q\10h\F4\CC\C2U\B9\9D\CCy\CF\B4\EEf@\8D\14\82q\BF\99\D5\93\E2\1F\AC\810U@H\D8L\F1\C6/\00\CB8\DB'\17\A2|jPZ\0E\A0\AD\B8;\C0\FD\06\D2\F1\9C\CA\1C\85\E4\F0\11\08\D9\A6J0\BD\88F.D\FDc\A6\1Dm\16J\8F\90.>v\15\EC\9CJ\9E\FE\872\04N\8EY\9A\BA\CD\D3\1A'D\DD\C5\FD)?\85\E1\F1\EF@(\C1\88\E10\95T\F7|\F4\8E\E6Y\EE+\D1\B9x\F5\8C>\DD\94\9A\CEX\190\F8t\BB\82\E7\D620\8E\14:\C1\01\AF\1F<6Rj\E3\A1\8C?\BC\B1\99\88\F1\C1\9A'\CB\C3\E6D\DC\E5\B7\A7\15\0F`\F5\96\B9\C0\F8^:\10\AB)\DE\A5\11\DB\12\B8\B2\BC\E7\F0\B6\F6H\D4\15tV\0F\D6\91\17f\DF\EB!\ADd4[I\1B\11\95\C9%\BB\CE\9Fk\934\EC\BE\00\D9\0D\B1\CA\FB;\EFi\C2\87F\B8B\A7\EE@OQ]=\FA\0Ak\04\B3)X\E6\12Q*\11\A3\A5\B4\0C\DC\E6\C2\E2\0F\1A\F7\8F\ABr\BA\EA\85\E7\F0G\93\A0s\DB\93\E0\F4\B3V\0Fieg!\EDY\B8\88P\D2\B8\18\F2\E0,S\C3>\C1ih0sUr\83sO\97\8C\FB\13:\C7\18BA\1E\CF\EANdP#\BD\AF\FA\98\08\F9\9E\92\D1\E5\83\A5b}$l\AC\DB9\BFJ\B7F\F7E\DFr\A7]\CE\96\C3K\89\83\B7\8E2\8C\BA\8BkO\11\F5\81|\B4\9E\ABde2?/\A9n\06\A2Ur\A2\9Ba\86\D6\BD\FE\FE\0E{S\0A\C8\85u\87E\01\FD\13\866__\E9,t\06\BD\E7R\E9\96A\FC\98\A7\047\B7#8\11H,\A0\A7\A3\FCQ;\7F\D1\C5\04\A5,\86\15Z\F7\C4H\E6=\13\85\EF\82\FB\22\E7\DBsM\98\9A\F5\DA_\0DXf\AB\A3\BA\EB\E0\D2\D0`>\C1\B3\D1\B7\10\EE?\96\CC\A8&\99\07\05\F9\8D1\1F\C6\E5\94\E9\CF\BB\FFRp\7FIFw\F1\FD\D3\9B\0F\FD\F1a\D5\9F3\A6\EF\ED\8B\EA\B6\FE\C8\82S|n\BA\CA\C7\C0\8Fk\E9.\A5d\FE{ch\1B\0Ai\BD\F9\B0s\C6\A3z\CE\FD=->!Q\A6a\16\9CN\08\\\A6\0C\A1\BE\06\B8\8Di\E5\0F\FA\1B\C3b\0A\F3\CFOInH&\F1\C3\DE\93\F8\E2\F3\FA\CC\EF\C3\A3\DB\89Z\B7v:k\\\DBm\98\1C\E0uZF)\96\F8e\14\09\863R\89\BE#X\13\F1\97\B3\BB\F6\7FY\8Bg\C0\A6+\EE,.X\ED}\A0jt\EF\17\B7@8H\DB\94\DC\1CW\B4N\A4\C2\A8\EB\DD\E4PF\1A\12\BA\13\E4labM\F3\92f\15\1E\E5\D7\A0\96\E8\17\1D\C8\F9\BA \B0w`\CD2\EF\86$^\91.\12\1D\DCt\14\CE\0A\B8\80\FF\AA\A8\AD\B5\B5\BAV$\13\92\99\81\0D\E6`\BF\D5\12\19#\E3il\ED\97\F6\FF\E1\10\8F\9C\97\C5\AB\EF\F5\8D\C1c\F4\1E\FA?\8D\CA\B3\83\FD\B6\96ks\B1\B2|\B1\A6\F8\8F0\BD\A0\E4\BCd|F\D0\DD\DE\DB]\D0\F6\B3|\AC\E4\0E\F6\BE\0D,\A2\8Ak\A9:Bz\F0\CDk\9D\92\B3.\11\B7J\AD\C6S\C9\D2\98l\C1\86Dw`z\D5d\9D\D8\B7\A8{\07\BF\C7q\E8\8BJ|l\05_b\87rI\ADd\D7\1CG\11-]\9B\C7\C6\F6:\A9\CF\9B\D8=\0D\E4\98\D5y4\82yx\B4\89\D3\C3\C2N\8D\10\1D\FFJ\CB`\F1K\CB\106\84\BA9QX*r\DF\CE\FE\B8\ED\1E\FE\94C\A5(\88e\EE\B4N\97\C2>'\A9\A6=z\94\CE2\EA\FE)b\22=s\87\B8)\88f\CC\1C\81_R?Z}5\06\08\A8&4*\80\FFc\A1\F7&\CF\B0\DC\C2\07\CAR0\C14`\FF\BC\C9\B5\F0\02\DD\93\B3\89\FCg|\F1A8?,\FC\E2\ACC\D4x \AC\BB\C0\ED6)\83\A7\9B\9D\0DL\AA\84K\94K\D51\A9\84\F3c\91\02\C5\11\DF\D4e^y\9E\0A}\D3e\F0\BC5C\F6\D5\16J\FF\B5\17FM.\A4?\16\96\01\EA\99EN\8E\BF\D1\CEKP9\8D\CF\9B\FB\81d\C0\D6\E1q/\86\C2^\E4\88p\C3\82z\A2}\F0LZN\BB'sv]U&\BA\91\8C\85N\96o\F8\10\D5\F8\07j:\EA\AF(\B6\EF&\E2\BB\8B6U\0A\F7\89\04\89\E5\DB\B2\A3\AB\B0\DA\EA.\84\EA\CCt\ACE+o\C9OFk\AE\C8\92\9D\92\12\00\C9\8B\0B;\CB\BB\E3\17\06\DAz\B7D7\17@\BBn\CE\09\BD\AA\DC\9D\87\90Y\E5\15\05\1D\10j\0AB\CC\B6\EA\A9\C2T\FAW\8F-#\12J\82F\A9\9FdeT\F3\E9\F8-\B3\F9\AB\96\DC\22\98\93G\BD~)p$w\F9\DF\F7V\BC\93+~xY6\EF\19\C6v\EA\FB\8BZ\B6U<\DBN\EBW\03k\A0w\14\E5\FA\AE\F1#k\0B\92\22\E6\ED\C4\85\88\95Y\9E\B9\DA\ED\ECE\8E6\AB_\E9\9BSu\FD\F7\02\B4\88\14\B4\EB\18\02\CB\DB\11\81\A8\D2\FC\B5\03\E1\AA\19\A1&\9F\C2\BDR\D6\A2R\07|\A3D\99\D5_I\F0F3m\E7K\A5\93\84-\E6\CA\7F\85\DB-V\0C@\A4po\8E\B8\E5\B8\9F\BD\DF\A6R\B9k\0FP\CDL\CB\B2&\1F\A7\07\AD\97\D0\A7\A7F\13\A4\00 ~/xs\C8$\CC^\82\C8(\0C\8Cf\00\D4\8E;V\90\FA-\7F\F6\A2\FA2\0F/\80\00\89r\CAk4y\F9\1E\B4\CB\B9\FF\D2:\A0@+O\BC\86\81\D7\B7&\A1\FE\A8\BF\87I\C8\10\F6\E26\F4\B0\E62\B8$\9F\C9\D7\F4-}\CA\D9\0DC1]\A0?\E6\ED\C6\BB\0Dry\1C=P\91\94}t\88\CF_\A9\F8*\91\CE\97cL\A4u|\CEH\B5\E1\DBi\9B\BA\1A\E1>\BE\AF\86\C9\1B\02\9B\22\DARD\C2ha\99\CE\AD[\E8\FB\A2\C2A\AB\90g\D5\F2\C3\B9?B\99r\E2\FA\A5\19\09k\BA`\C5\97\1A\D4g\C9\9F\87\CD\DC\0F`\CB\05\E9\B8\B6\BD \C9\C1\BB\87\E9\00T\138>G#g$\EDh;\B2\AA\E9#\01)\0B\E3\86\0Cv\C06\94!e\AF\0Ar\B6\A0\F9\CE\9B\A8\8F\93pD\B9i>[\8D\0E\E4\08\F8\C2\C2\92s\B8\8C\95\E7\04\0E\B20\12\1D\0B\B6\B9\B9;H\F3w\BD\90\C2Ho^+\F2\C6\B1(\A8J\1A\F0\D5\EC\B4\F3\1A\0B6\B6\AE8\1E2R\DD l\0B(\E2\B0\E1\8D\C3c\DA\C6%_S\8A\94#\07Y\8D\0E\AD8Z~H\9CW7\E8\ACy\ECH\AF\B0Q\D8\C6\F0\9DZ\83-D\22\18\98'\1B\DB\DCe\8E\F8lE1\E4\F8k\15\0F\BF\F8\F0\08\8A\FFX\1Bd\CB\9E\8E\1B\C5\DA\D2\EE6-\8B\AC?/\22=~Fr\E2w\91\87\AA\84\F8\AD\D7\0F\BBj\CC\1D\D8\0E[\EA\BA\94\EAR\BB\CC\86\E9\B4\C2\9F\12G\E9\98\A5\E99\A5'\EA\7F\A8$b\B3G\D7\98#?\0Ed\88\8E\B1\E4\9F\D2\AD:\A0\19\0D\7F\EC\8E\89>\15\F9\EE\EE\A3\83\AC$\040h\CFS\19+\8EZ\B7\AA\EA\8C\A4\D7-\05<B\C3\A8_\B611eU%\B0\CDMy\06\CB\12\F4\927\11\BF>_U\17\8E\80\D0\0B\E4\BE\8B\D8\BB\E2\D6n\0E\B7*\9D\B1\A0\C4\0E\9D\AE\AE\CEj[\8B\0A\D2du\04\DE\C8uRDZZ\82E\F2.\8D\06\BE\92\85\15\FB\12g\D5\F0\F0\E2\D6\EE=\18\C4\B6{s\ED\9Ck`\85\96\D6MFUL\1Eu\A4Z\D0(\C4\86\B8&<L\E1\97\AA\DFe\92Mq\043\F5\A8f0K\9F\D9=\D5\AB\7F{\D0\C6\E2?\99)@\FE\8E\03\A8F\E5\96_\9A\84x\DB\8F\BF3\D0\BDr\04R\98\DE|\F7\C0\A5V\D2s\EF@Dm\8F\85f>\96\AD\9A\98'vc\A8\95\A8J\A4y\13\00\E7\DDY\C1~\B1S|\12\BBR]\0DX\18\C0`U\AFq\DE\9Dh\1B\D7\E9\A6\B4\10n\1E\F0\B8\AA\0D\07\ABb!q&\92\E8p\CA\04\13\96\B3\CA\D1\C8U\BBi\0D\B0\B6\22\0D\FD\C5\97{`=\05;+*\C4\10\\\E4jP|\B7}\9A\B8\8C\E3\04[\9Az\8A\B9\8EB\B2\AD\92\8E`\F3w\1C\C6\F1@\19\EDg\B2\D3\1EY7\B28\F0U\A37.\91_\E8\01\DF\88f/\C5\DEFlk\C6\E2\BC\BA;1a\8B\15\A0=;K\AC##w\1Bl\A9\8A}9\AE\1A\08\0D\0A^\97\EC\ABU\22\C7S\ED\DC\C7\D9!J\90\8C5\BD\E7\96uu\\T\14\EA\1C\88T.\DAwA\D6P~\D2\92si\99$$\AA\E9\B9\D0\D5\D1\0B\E5\DD\87w\D0\C3\BF-\AD\D4d\E8DK\C6N^\95\B4Jb\DA\97<\EC\84>\11\0B\EF;\F1Z\BDa\DD\FA\D0\BDK'\A6\8E\D5\CD\EA\8A\AD\B1\EC\BA\949E\AD\1E\B1\CF\F2J\81\A5\ED\18\DEg\F4\FCCK,\B3\CE\81\D7\CEp\87\94\CF\EA\801\FC\14^\F7_B\A2\8D\02M\A9y\83%\A1>;\9A5\F5\F7\D2\CA0C\A0\13X\E4n\09\0D\CA\00\83\F2\B5\87\FD\FCS\88\18n\9D\CA\8BH~\E0\91\B7\D1t\9E~4U\CFd\A2^w\DA\9DXv%\06\12\C6\9E\81*\03\FEJ6\95Q\C5\EE\D3\AE\87\96\F7\05\22\F5\83\BD\DD\83:R;uD\CD\14\BE\9AC5yr\96j\92\C4'\8A\92\95\00\9Am\C1\94\82\17\0F<\05\B7u\B1,\F7\BA\80\00\C9\F19c\DD\12\8B\C6$S\EE{\DAtP\A0\1D\97\04^\CA\EB\16\FC\F6\D3\EA\1A\11\92d\08\E5\BC\85\F5\BC\A6\1C\BB\F4\88\A5a\95\B6}J\1E\EC\E62l\D0\E3\E91+\07]\1D\92\8E\EE\92\93\D0\9FCb.2\FF:I\B4\A462\AAw\B8\C3\87\D4\FA\B9\FE\BE\09[\E1M\C4\BE\94\95\E6\B4\A9\89yh\BE.L\D9\AC\B0:\F7|\1D\90\11\0A\F6K\017\9D\0F\0F\D8\\\095\DC$\B4\95\8C\F3\9E\C1\84\84S\13\0E\B4KB\13.\E1\BAo\B0\06\F2\A5e(\CB\88Po\09\CC\BC\8C\D4E.D\B7\87?\F9\FE\AA$\CB\0B\FF\EB\AFI\D79\15\A5i\8F\F7\BE\D5\ED\BD\CE\FE\E6\DB\1CM\88Z\0EDs\B5\97\A5\B46A_p\8910\95\F8\88\0Ah1\FC\CEa\84\11w\CC\AB>|\BA6+\0D\C2\FD\BCBz\E5\D5\94\BF\D6M\1Bi\04v\902=\B5il\AF\05\BD7\86\10\B1\C1\C2I\9A?\A6#\84G\1BG\AC\C5\A7T\1Dr3\DC\80\CF\0F+e\19\E2X\17\B7\D1\A9\A4N@\13a\C3\D3;\DFO\8D\97n\12\83\EA&1\08\AC\1CZd\0A\D7\A3p=\0A\D7\A3\A4p=\0A\D7\A3p=\CC\CC\CC\CC\CC\CC\CC\CC\CD\CC\CC\CC\CC\CC\CC\CC\00\00\00\00\00\00\00\80\00\00\00\00\00\00\00\00\00\00\00\00\00\00\00\A0\00\00\00\00\00\00\00\00\00\00\00\00\00\00\00\C8\00\00\00\00\00\00\00\00\00\00\00\00\00\00\00\FA\00\00\00\00\00\00\00\00\00\00\00\00\00\00@\9C\00\00\00\00\00\00\00\00\00\00\00\00\00\00P\C3\00\00\00\00\00\00\00\00\00\00\00\00\00\00$\F4\00\00\00\00\00\00\00\00\00\00\00\00\00\80\96\98\00\00\00\00\00\00\00\00\00\00\00\00\00 \BC\BE\00\00\00\00\00\00\00\00\00\00\00\00\00(k\EE\00\00\00\00\00\00\00\00\00\00\00\00\00\F9\02\95\00\00\00\00\00\00\00\00\00\00\00\00@\B7C\BA\00\00\00\00\00\00\00\00\00\00\00\00\10\A5\D4\E8\00\00\00\00\00\00\00\00\00\00\00\00*\E7\84\91\00\00\00\00\00\00\00\00\00\00\00\80\F4 \E6\B5\00\00\00\00\00\00\00\00\00\00\00\A01\A9_\E3\00\00\00\00\00\00\00\00\00\00\00\04\BF\C9\1B\8E\00\00\00\00\00\00\00\00\00\00\00\C5.\BC\A2\B1\00\00\00\00\00\00\00\00\00\00@v:k\0B\DE\00\00\00\00\00\00\00\00\00\00\E8\89\04#\C7\8A\00\00\00\00\00\00\00\00\00\00b\AC\C5\EBx\AD\00\00\00\00\00\00\00\00\00\80z\17\B7&\D7\D8\00\00\00\00\00\00\00\00\00\90\ACn2x\86\87\00\00\00\00\00\00\00\00\00\B4W\0A?\16h\A9\00\00\00\00\00\00\00\00\00\A1\ED\CC\CE\1B\C2\D3\00\00\00\00\00\00\00\00\A0\84\14@aQY\84\00\00\00\00\00\00\00\00\C8\A5\19\90\B9\A5o\A5\00\00\00\00\00\00\00\00:\0F \F4'\8F\CB\CE\00\00\00\00\00\00\00\00\84\09\94\F8x9?\81\00\00\00\00\00\00\00@\E5\0B\B96\D7\07\8F\A1\00\00\00\00\00\00\00P\DENg\04\CD\C9\F2\C9\00\00\00\00\00\00\00\A4\96\22\81E@|o\FC\00\00\00\00\00\00\00M\9D\B5p+\A8\AD\C5\9D\00\00\00\00\00\00 \F0\05\E3L6\12\197\C5\00\00\00\00\00\00(l\C6\1B\E0\C3V\DF\84\F6\00\00\00\00\00\002\C7\\\11l:\96\0B\13\9A\00\00\00\00\00@\7F<\B3\15\07\C9{\CE\97\C0\00\00\00\00\00\10\9FK \DBH\BB\1A\C2\BD\F0\00\00\00\00\00\D4\86\1E\F4\88\0D\B5P\99v\96\00\00\00\00\80D\14\131\EBP\E2\A4?\14\BC\00\00\00\00\A0U\D9\17\FD%\E5\1A\8EO\19\EB\00\00\00\00\08\AB\CF]\BE7\CF\D0\B8\D1\EF\92\00\00\00\00\E5\CA\A1Z\AD\05\03\05'\C6\AB\B7\00\00\00@\9E=J\F1\19\C7C\C6\B0\B7\96\E5\00\00\00\D0\05\CD\9Cmo\\\EA{\CE2~\8F\00\00\00\A2#\00\82\E4\8B\F3\E4\1A\82\BF]\B3\00\00\80\8A,\80\A2\DDn0\9E\A1b/5\E0\00\00 \AD7 \0B\D5E\DE\02\A5\9D=!\8C\00\004\CC\22\F4&E\D6\95C\0E\05\8D)\AF\00\00A\7F+\B1p\96L{\D4QF\F0\F3\DA\00@\11_v\DD\0C<\0F\CD$\F3+v\D8\88\00\C8j\FBi\0A\88\A5S\00\EE\EF\B6\93\0E\AB\00zEz\04\0D\EA\8Eh\80\E9\AB\A48\D2\D5\80\D8\D6\98E\90\A4rA\F0q\EBfc\A3\85PG\86\7F+\DA\A6GQlN\A6@<\0C\A7$\D9g_\B6\90\90\99e\07\E2\CFPK\CF\D0m\CFA\F7\E3\B4\F4\FF\9FD\ED\81\12\8F\81\82\A4!\89z\0E\F1\F8\BF\C7\95h\22\D7\F2!\A3\0Dj+\19R-\F7\AF9\BB\02\EB\8Co\EA\CB\90Dv\9F\A6\F8\F4\9B\08j\C3%p\0B\E5\FE\B4\D5SG\D06\F2\02E\22\9A\17&'O\9F\90e\94,Bb\D7\01\D6\AA\80\9D\EF\F0\22\C7\F5~\B9\B7\D2:MB\8B\D5\E0\84+\AD\EB\F8\B2\DE\A7e\87\89\E0\D2w\85\0C3;L\93\9B/\EB\88\9F\F4U\CCc\D5\A6\CF\FFI\1Fx\C2\FB%k\C7qk\BF<\8A\90\C3\7F\1C'\16\F3z\EFE9NF\EF\8BV:\DA\CFq\D8\ED\97\AC\B5\CB\E3\F0\8Bu\97\EC\C8\D0C\8EN\E9\BD\17\A3\BE\1C\ED\EER='\FB\C4\D41\A2c\ED\DDK\EEc\A8\AA\A7L\F8\1C\FB$_E^\94j\EFt>\A9\CA\E8\8F6\E49\EE\B6\D6u\B9D+\12\8ES\FD\E2\B3D]\C8\A9dL\D3\E7\16\B6\96q\A8\BC\DB`J:\1D\EA\BE\0F\E4\90\CD1\FEF\E9U\89\BC\DD\88\A4\A4\AE\13\1D\B5A\BE\BD\98c\AB\ABk\14\AB\CDM\9AXd\E2\D1-\ED~<\96\96\C6\EC\8A\A0p`\B7~\8D\A2<T\CF\E5\1D\1E\FC\A8\AD\C8\8C8e\DE\B0\CBK)C_\A5%;\12\D9\FA\AF\86\FE\15\DD\BE\9E\F3\13\B7\0E\EFI\AB\C7\FC-\14\BF-\8A7Cxl2i5n\96\F9{9\D9.\B9\AC\04T\96\07\7F\C3\C2I\FB\F7\DA\87\8Fz\E7\D7\06\E9{\C9^t3\DC\FD\DA\E8\B4\99\AC\F0\86\A3q\ED=\BB(\A0i\BC\11#\22\C0\D7\AC\A8\0C\CEh\0D\EA2\08\C4+\D6\AB*\B0\0D\D8\D2\90\01\C3\90\A4?\0A\F5\DBe\AB\1A\8E\08\C7\83\FA\E0y\DA\C6g&yR?V\A1\B1\CA\B8\A48Y\18\91\B8\01pW&\CF\AB\09^\FD\E6\CD\86o^\B5&\02L\EDxa\0B\C6Z^\B0\80\B4\05[1X\81OT\D69\8Ew\F1u\DC\A0!\C7\B1=\AEaciL\C8q\D5m\93\13\C9\E98\1E\CD\19:\BC\03_:\CEJIxX\FB#\C7e@\A0H\AB\04{\E4\C0\CE-K\17\9Dv\9C?(d\0D\EBb\9A\1DqB\F9\1D]\C4\94\83O2\BD\D0\A5;\00e\0D\93wet\F5yd\E3~\ECD\8F\CA _\E8\BBj\BFh\99\CB\1EN\CF\13\8B\99~\E8v\E2jE\EF\C2\BF~\A6!\C3\D8\ED?\9E\A2\14\9B\C5\16\AB\B3\EF\1E\10\EA\F3N\E9\CF\C5\E5\EC\80;\EEJ\D0\95\12JrX\D1\F1\A1\BB\1F(a\CA\A9]D\BB\97\DC\8E\AEEn\8A*&r\F9<\14u\15\EA\BD\932\1A\D7\09-\F5X\E7\1B\A6,iM\92V\9C_p&&<Y.\E1\A2\CFw\C3\E0\B6l\83w\0C\B0/\8Boz\99\8B\C3U\F4\98\E4Gd\95\0F\9C\FBm\0B\EC?7\9A\B5\98\DF\8E\AC^\BD\89A\BD$G\E7\0F\C5\00\E3~\97\B2W\B6,\EC\91\EC\EDX\E1S\F6\C0\9B^=\DF\ED\E37g\B6g)/l\F4\99X![\86\8Bt\EE\82\00\D2\E0y\BD\87q\C0\AE\E9\F1g\AE\11\AA\A3\80\06Y\D8\EC\E9\8Dp\1Ad\EE\01\DA\95\94\CC Ho\0E\E8\B2X\86\90\FE4A\88\DD\DC\7F\14\8D\05\091\DE\EE\A74>\82Q\AA\15\D4\9FY\F0FK\BD\96\EA\D1\C1\CD\E2\E5\D4\1A\C9\07p\AC\18\9El\9E2#\99\C0\AD\0F\85\B0\DD\04\C6k\CF\E2\03E\FFk\BF0\99S\A6\1C\15\86\B7F\83\DB\84\16\FFF\EF|\7F\E8\CFc\9Age\18d\12\E6n_\8C\15\AEO\F1\81~\C0`?\8F~\CBOIw\EF\9A\99\A3m\A2\9D\F08\0F3^\BE\E3\1CU\AB\01\80\0C\09\CB\C5,\07\D3\BF\F5\AD\\c*\16\02\A0O\CB\FD\F6\F7\C8\C7/s\D9s~\DAM\01\C4\11\9F\9E\FA\9A\DD\DC\FD\E7g(\1DQ\A1\015\D6F\C6\B8\01\15T\FD\E1\81\B2e\A5\09B\C2\8B\D8\F7&B\1A\A9|Z\22\1F_\07FiYW\E7\9AXi\B0\E9\8Dxu37\89\97\C3/-\A1\C1\AE\83\1Cd\B1\D6R\00\84k}\B4{x\09\F2\9A\A4#\BD]\8Cg\C02c\CEPM\EBE\97\E0F6\96\BA\B7@\F8\FF\FB\01\A5 f\17\BD\98\D8\C3;\A9\E5P\B6\FFzB\CE\A8?]\EC\BE\CE\B4\8A\13\1F\E5\A3\DF\8C\E9\80\C9G\BA\937\01\B16l3o\C6\17\F0#\E1\BB\D9\A8\B8\84A]DG\00\0B\B8\1D\ECl\D9*\10\D3\E6\E5\91t\15Y\C0\0D\A6\92\13\E4\C7\1A\EAC\90/\DBh\AD7\98\C8\87w\18\DDy\A1\E4T\B4\FB\11\C3\98E\BE\BA)\94^T\D8\C9\1Dj\E1z\D6\F3\FE\D6m)\F4\1D\BB4'\9ER\E2\8C\0CfX_\A6\E4\99\18\E4\E9\01\B1E\E7\1A\B0\8F\7F.\F7\CF]\C0^]dB\1D\17\A1!\DCs\1F\FA\F4Cupv\BA~Ir\AE\04\95\89\A8S\1CyJI\06ji\DE\DB\0E\DAE\FA\AB\92hc\17\9D\DB\87\04\03\D6\92\92P\D7\F8\D6\B6B<]\84\D2\A9E\C2\C5\9B[\92\86[\86\B2\A9E\BA\92#\8A\0B2\B7\82\F26h\F2\A7\1E\14\D7hw\ACl\8E\FFd#\AFD\02\EF\D1&\D9\0CC\95\D7\072\1F\1Fv\EDja5\83\B8\07\E8I\BD\E6D\7F\E7\A6\D3\A8\C5\B9\02\A4\A6\09b\9Cl \16_\A1\90\08\137h\03\CD\0F\8Cz\C3\87\A8\DB6dZ\E5k\22!\22\80\89\97,\DATII\C2\FD\B0\DE\06k\A9*\A0l\BD\B7\10\AA\9B\DB\F2=]\96\C8\C5S5\C8\C7\AC\E5\94\94\82\92o\8C\F4\BB:\B7\A8B\FA\F9\17\1F\BA9#w\CB\D7x\B5\84r\A9i\9C\FBnS\14\04v*\FF\0D\D7\E2%\CF\13\84\C3\BAJh\19\85\13\F5\FE\D1\8C[\EF\C2\18e\F4i]\C2_fX\B2~\028\99\D5y/\BF\98az\D9\FB?w/\EF\03\86\FFJX\FB\EE\BE\FA\D8\CF\FA\0FU\FB\AA\84g\BF].\BA\AA\EE8\CF\83\F9S*\BA\95\B2\A0\97\FA\\\B4*\95\83a\F2{tZ\94\DD\DF\88=9tau\BA\E4\F9\EE\9A\11q\F9\94\17\EB\8CG\D1\B9\12\E9]\B8\AA\01V\CD7z\EE\12\B8\CC\22\B4\AB\91:\B3\0A\C1U\E0b\AC\AA\17\E6\7F+\A1\16\B6\09`M1k\98{W\94\9D\DF_vI\9C\E3\0B\B8\A0\FD\85~Z\ED}\C2\EB\FB\E9\ADA\8E\07s\84\BE\13\8FX\14\1C\B3\E6zd\19\D2\B1\C8\8F%\AE\D8\B2nY\E3_\A0\99\BD\9FF\DE\BB\F3\AE\D9\8E_\CAo\EE;\04\80\D6#\EC\8ATX\0DH\B9{\DE%\E9J\05 \CC,\A7\ADj\AE\10\9A\A7\1AV\AF\A4\9D\06(\FF\F7\10\D9\04\DA\94\80Q\A1+\1B\86\22\04y\FF\9A\AA\87B\08]\F0\D2D\FB\90(+EW\BFA\95\A9SJt\AC\07\16:5\F2u\16-/\92\FA\D3\E8\\\91\97\89\9B\88B\B7\09.|]\9B|\84\11\DA\BA\FE5a\95i%\8C9\DB4\C2\9B\A5\95\90i~\83\B9\FAC.\EF\07\12\C2\B2\02\CF\BB\F4\03^\E4g\F9\94}\F5DK\B9\AFa\81\F5x\C2\BA\EE\E0\1B\1D\DC2\16\9E\A7\1B\BA\A12\17si*\D9bd\93\BF\9B\85\91\A2(\CA\FE\DC\CF\03u\8F{}x\AF\02\E75\CB\B2\FC>\D4\C3DRs\DA\\\AB\ADa\B0\01\BF\EF\9D\A7d\FAj\13\88\08:\16\19z\1C\C2\AEk\C5\D0\FD\B8E\18\AA\8A\08[\9F\98\A3r\9A\C6\F6E='W\9ET\AD\8A\99c?\A6\87 <\9AK\86x\F6\E2T\AC6\7F<\CF\8F\A9(\CB\C0\DD\A7\16\B4\1BjW\84\9F\0B\C3\F3\D3\F2\FD\F0\D5Q\1C\A1\A2DmeC\E7Yx\C4\B7\9E\96%\B3\B1\A4\E5Jd\9F\14ap\96\B5eF\BC\EE\1F\DE\0D\9F]=\87Yy\0C\FC\22\FFW\EB\EA\A7U\D1\06\B5\0C\A9\D8\CB\87\DDu\FF\16\93\F2\88\D5B$\F1\A7\09\CE\BE\E9TS\BF\DC\B7/\EB\8ASm\ED\11\0C\81.$*(\EF\D3\E5\FA\A5m\A8\C8h\16\8F\10\9DV\1Ayu\A4\8F\BC\87Di}\01n\F9UD\EC`\D7\92\8D\B3\AC\A9\95\C3\DC\81\C97jU'9\8D\F7p\E0\17\14{\F4S\E2\BB\85b\95\B8C\B8\9AF\8C\8E\EC\CCxtm\95\93\BB\BA\A6TfAX\AF\B2'\00\97\D1\C8z8ji\D0\E9\BFQ.\DB\9E1\C0\FC\05{\99\06\E2A\22\F2\17\F3\FC\88\03\1F\F8\BD\E3\EC\1FDZ\D2\AA\EE\DD/<\AB\C3&v\AD\1C\E8'\D5\F1\86Uj\D5;\0B\D6t\B0\D3\D8#\E2q\8AVtube\05\C7\85IN\84gV-\87\F6l\D1\12\BB\BE\C68\A7\DBae\01\AC\F8(\B4\C7\85\D7in\F8\06\D1R\BA\BE\01\D763\E1\9C\B3&\02E[\A4\82s4\17aF\02\C0\EC\84`\B0B\16rM\A3\90\01]\F9\D7\02\F0'\A5x\\\D3\9B\CE \CC\F4A\B4\F7\8D\03\EC1\CE\963\C8B\02)\FFqR\A1uq\04g~A> \BDi\A1y\9F\86\D3\84\E9\C6b\00\0F\D1Mh,\C4\09X\C7h\08\E6\A3x{\C0REa\8275\0C.\F9\82\8A\DF\CCV\9Ap\A7\CB|\B1B\A1\C7\BC\9B\91\B6\0B@v`\A6\88\FE\DB]\93\89\F9\AB\C25\A4\0E\D0\93\F8\CFj\FER5\F8\EB\F7V\F3CM\12\C4\B8\F6\83\05\DES!{\F3Z\16\98Jp\8Bz3zr\C3\D6\A8\E9Y\B0\F1\1B\BE\\L.Y\C0\18Ot\0C\13dp\1C\EE\A2\EDs\DFyo\F0\DEb\11\E7\8B>\C6\D1\D4\85\94\A8+\ACEV\CB\DD\8A\E1.\CE7\06J\A7\B9\926\17\D7+>\95m\99\BA\C1\C5\87\1C\11\E87\04\DD\CC\B6\8D\FA\C8\A0\14\99\DB\D4\B1\0A\91\A2\22\0A@\92\98\9C\1D\C8Y\7F\12J^M\B5K\AB\0C\D0\B6\BE\03%:0\1F\97\DC\B5\A0\E2\1D\D6\0F\84d\AED.$~s\DE\A9q\A4\8D\D2\E5\89\D2\FE\EC\EA\\\AD]\10V\14\8E\0D\B1G_,\87>\A8%t\18u\94k\99\F1P\DD\19w\F7(N\12/\D1/\C9<\E3\FF\96R\8Ao\AA\9A\D9pk\BD\82{\FB\0B\DC\BF<\E7\AC\0BU\01\10M\C6lcZ\FA\0E\D3\EF\0B!\D8N\AA\01T\E0\F7G<x\\\E9\E3u\A7\14\87q\0A\814\EC\FA\ACe\96\B3\E3\\S\D1\D9\A8\0DM\A1A\A79\18\7F|\A0\1C4\A8E\10\D3P\A0\09\12\11H\DE\1EM\E4\91 \89+\EA\832\04F\AB\0A\EDJ\93`]\B6hk\B6\E4\A4?\85\17VM\A8\1D\F8\B9\F4\E3B\06\E4\1D\CE\8Ef\9D\AB`\12%6\F3x\CE\E9\83\AE\D2\80\19`Bk|+\D7\C10\17B\E4$Z\07\A1\1F\F8\12\86[\F6L\B2\FC\9CR\1D\AE0I\C9'\B6\97g\F23\E0\DE<D\A7\A4\D9|\9B\FB\B1\A3}\01\EF@\98\16\A5\8A\E8\06\08.A\9DN\86\EE`\95(\1F\8EN\AD\A2\08\8Ay\91\C4\E2'*\B9\BA\F2\A6\F1\A2X\CB\8A\EC\D7\B5\F5\DB\B1tgi\AF\10\AEe\17\BF\D6\F3\A6\91\99)\EF\A8\E0\A1m\CA\AC?\DDn\CC\B0\10\F6\BF\F3*\D3X\0A\09\FD\17\8E\94\8A\FF\DC\94\F3\EF\B0\F5\07\EFLK\FC\DD\D9\9C\B6\1F\0A=\F8\95\8E\F9d\15\10\AF\BDJ\0FD\A4\A7LLv\BB\F17\BE\1A\D4\1Am\9D\13U\8D\D1_\DFS\EA\ED\C5m!\89a\C8\84,U\F8\E2\9Bkt\92\B4\9B\E4\B4\F5<\FD2wj\B6\DB\82\86\11\B7\A1\C2\1D\223\8C\BC?\15\05\A4\92#\E8\D5\E4J3\A5\EA?\AF\AB\0F-\83\A6;\16\B1\05\8F\0E@\A7\F2\87M\CB)\F8#\90\CA[\1D\C7\B2\12\10Q\EF\E9 >t\F6,4\BD\B2\E4x\DF\16T%k$\A9M\91\1A\9C@\B6\EF\8E\AB\8B\8ET\F7\C2\B6\89\D0\1A \C3\D0\A3\ABr\96\AE\B1)\B5s$\AC\84\A1\E8\F3\C4\8CV\0F<\DA\1Et\A2\90-\D7\E5\C9q\18\FB\17\96\89e\88\92\88ez|\A6/~\8D\DE\F9\9D\FB\EB~\AA\B7\EA\FE\98\1B\90\BB\DD1Vx\85\FA\A6\1E\D5e\A5>\7F\22t*U\DE5k\93\\(3\85_'\87\8F\95\88:\D5V\03F\B8s\F2\7F\A67\F1h\F3\BA*\89\8A,\84W\A6\10\EF\1F\D0\85-C\B0iu+-\9B\B2\F6gj\F5\13\82s\FC)\0Eb);\9CB_\F4\01\C5\F2\98\A2\8F{\B4\91\BA\F3I\83\13wqBv/?\CBs\9A!6\A9p\1C$\D7\D4\0D\D3S\FB\0E\FE\10\01\AA\83\D3\8C#\ED\06\A5\E8c\14]\C9\9E\AA@J2\0486\F4H\CE\E2|Y\B4{\C6\D5\D0\DC>\05\C6C\B1\DA\81\1B\DCo\A1\1A\F8\0A\05\94\8E\86\B7\94\DD(1\91\E9\E5\A4\10\9B&\83\1C\19\B4\F2|\CAr}\F5c\1F\CE\D4\C1\F0\A3c\1Fa/\1C\FD\CF\DC\F2<\A7\01J\F2\EC\8C<g9;c\BC\01\CA\17\86\08An\97\13\D8\85\E0\03\05\BE\D5\82\BC\9D\A7J\D1I\BD\18N\A7\D8D\86-K\A2+\85Q\9DE\9C\EC\9E!\D1\0E\D6\E7\F8\DDE;\F3R\82\AB\E1\93\03\B5B\C9\E5\90\BB\CA\17\0A\B0\E7b\16\DA\B8Cb\93;\1Fuj=\9D\0C\9C\A1\FB\9B\10\E7\D4:x\0Ag\12\C5\0C\E2\87\01E}aj\90\C5$\8Bf\80+\FB'\DA\E9A\96\DC\F9\84\B4\F6\ED-\80`\F6\F9\B1Qd\D2\BBS8\A6\E1si9\A0\F8sx^\B2~cU4\E3\07\8D\E8\E1#d{H\0B\DB_^\BCj\01\DCI\B0b\DA,=\9A\1A\CE\91\F7uk\C5\01S\\\DC\FB\10x\CC@\A1Av\BA)c\1B\E1\B3\B9\89\9D\0A\CB\7F\C8\04\E9\A9)\F4;b\D9 (\ACD\CD\BD\9F\FAEcT3\F1\CA\BA\0F)2\D7\95@\ADGy\17|\A9\C0\D6\BE\D4\A9Y\7F\86]H\CC\CC\AB\8E\EDIp\8C\EEI\140\1F\A8tZ\FF\BFV\F2h\\\8C/j\\\19\FC&\D2\111\FFo\EC.\83s\B7]\C2\D9\8F]X\83\AB~\FF\C5S\FD1\C8%\F52\D0\F3t.\A4U^\7F\B7\A8|>\BAo\B2?\C40\12:\CD\EB5_\E5\D2\1B\CE(\85\CF\A7z^KD\80\B3\81[\CFc\D1\80yf\C3Q\196^U\A0\1Fb2\C3\BC\05\E1\D7@4\A6\9F\C3\B5j\C8\A7\FA\FE\F3+G\D9\8DP\C1\8F\874c\85\FAQ\B9\FE\F0\F6\98O\B1\D2\D8\B9\D4\00^\93\9C\D33\9FV\9A\BF\D1n\07O\E8\09\815\B8\C3\C8\00G\EC\80/\86\0A\C8bbL\E1B\A6\F4\FA\C0X'a\BB'\CD\BD}\BD\CF\CC\E9\E7\98\9Cx\97\B8\1C\D58\80,\DD\AC\03@\E4!\BF\C3V\BD\E6c\0AG\E0x\14\98\04P]\EA\EEt\ACl\E0\FC\CCX\18\CB\0C\DF\02RzR\95\C8\EBC\0C\1E\807\0F\FD\CF\96\83\E6\18\A7\BA\BA\E6T\8F%`\05\D3\FD\83|$ \DFP\E9i *\F3.\B8\C6G~\D2\CD\16t\8B\D2\91AT\FAW\1D3\DCL\1DG\81\1CQ.G\B6R\E9\F8\AD\E4?\13\E0\E5\98\A1c\E5\F9\D8\E3\A6#w\D9\DD\0F\18X\8F\FFD^/\9Cg\8EHv\EA\A7\EA\09\0FW" }>, align 8

; Function Attrs: nofree nounwind
define internal noundef zeroext i1 @_ZN4core3fmt5Write10write_char17hc6f525993c85bce7E(ptr noalias nocapture noundef readonly align 4 dereferenceable(4) %self, i32 noundef %c) unnamed_addr #0 {
start:
  %_6 = alloca [4 x i8], align 4
  call void @llvm.lifetime.start.p0(i64 4, ptr nonnull %_6)
  store i32 0, ptr %_6, align 4
  %_73.i = icmp ult i32 %c, 128
  br i1 %_73.i, label %bb6.i, label %bb13.i

bb13.i:                                           ; preds = %start
  %_74.i = icmp ult i32 %c, 2048
  br i1 %_74.i, label %bb7.i, label %bb15.i

bb15.i:                                           ; preds = %bb13.i
  %_75.i = icmp ult i32 %c, 65536
  br i1 %_75.i, label %bb8.i, label %bb9.i

bb6.i:                                            ; preds = %start
  %0 = trunc i32 %c to i8
  store i8 %0, ptr %_6, align 4, !alias.scope !10
  br label %_ZN4core4char7methods15encode_utf8_raw17hcf6fef9b2e1b1da9E.exit

bb7.i:                                            ; preds = %bb13.i
  %_20.i = lshr i32 %c, 6
  %1 = trunc i32 %_20.i to i8
  %2 = or disjoint i8 %1, -64
  store i8 %2, ptr %_6, align 4, !alias.scope !10
  %3 = trunc i32 %c to i8
  %_22.i = and i8 %3, 63
  %4 = getelementptr inbounds [0 x i8], ptr %_6, i64 0, i64 1
  %5 = or disjoint i8 %_22.i, -128
  store i8 %5, ptr %4, align 1, !alias.scope !10
  br label %_ZN4core4char7methods15encode_utf8_raw17hcf6fef9b2e1b1da9E.exit

bb8.i:                                            ; preds = %bb15.i
  %_30.i = lshr i32 %c, 12
  %6 = trunc i32 %_30.i to i8
  %7 = or disjoint i8 %6, -32
  store i8 %7, ptr %_6, align 4, !alias.scope !10
  %_34.i = lshr i32 %c, 6
  %8 = trunc i32 %_34.i to i8
  %_32.i = and i8 %8, 63
  %9 = getelementptr inbounds [0 x i8], ptr %_6, i64 0, i64 1
  %10 = or disjoint i8 %_32.i, -128
  store i8 %10, ptr %9, align 1, !alias.scope !10
  %11 = trunc i32 %c to i8
  %_36.i = and i8 %11, 63
  %12 = getelementptr inbounds [0 x i8], ptr %_6, i64 0, i64 2
  %13 = or disjoint i8 %_36.i, -128
  store i8 %13, ptr %12, align 2, !alias.scope !10
  br label %_ZN4core4char7methods15encode_utf8_raw17hcf6fef9b2e1b1da9E.exit

bb9.i:                                            ; preds = %bb15.i
  %_45.i = lshr i32 %c, 18
  %14 = trunc i32 %_45.i to i8
  %_43.i = and i8 %14, 7
  %15 = or disjoint i8 %_43.i, -16
  store i8 %15, ptr %_6, align 4, !alias.scope !10
  %_49.i = lshr i32 %c, 12
  %16 = trunc i32 %_49.i to i8
  %_47.i = and i8 %16, 63
  %17 = getelementptr inbounds [0 x i8], ptr %_6, i64 0, i64 1
  %18 = or disjoint i8 %_47.i, -128
  store i8 %18, ptr %17, align 1, !alias.scope !10
  %_53.i = lshr i32 %c, 6
  %19 = trunc i32 %_53.i to i8
  %_51.i = and i8 %19, 63
  %20 = getelementptr inbounds [0 x i8], ptr %_6, i64 0, i64 2
  %21 = or disjoint i8 %_51.i, -128
  store i8 %21, ptr %20, align 2, !alias.scope !10
  %22 = trunc i32 %c to i8
  %_55.i = and i8 %22, 63
  %23 = getelementptr inbounds [0 x i8], ptr %_6, i64 0, i64 3
  %24 = or disjoint i8 %_55.i, -128
  store i8 %24, ptr %23, align 1, !alias.scope !10
  br label %_ZN4core4char7methods15encode_utf8_raw17hcf6fef9b2e1b1da9E.exit

_ZN4core4char7methods15encode_utf8_raw17hcf6fef9b2e1b1da9E.exit: ; preds = %bb9.i, %bb8.i, %bb7.i, %bb6.i
  %_54.i = phi i64 [ 4, %bb9.i ], [ 3, %bb8.i ], [ 2, %bb7.i ], [ 1, %bb6.i ]
  tail call void @llvm.experimental.noalias.scope.decl(metadata !13)
  %_3.i = load i32, ptr %self, align 4, !alias.scope !13, !noalias !16, !noundef !18
  br label %bb11.i.i

bb11.i.i:                                         ; preds = %bb11.i.i, %_ZN4core4char7methods15encode_utf8_raw17hcf6fef9b2e1b1da9E.exit
  %written.05.i.i = phi i64 [ %26, %bb11.i.i ], [ 0, %_ZN4core4char7methods15encode_utf8_raw17hcf6fef9b2e1b1da9E.exit ]
  %new_len.i.i = sub nuw i64 %_54.i, %written.05.i.i
  %data.i.i = getelementptr inbounds i8, ptr %_6, i64 %written.05.i.i
  %25 = call noundef i64 @write(i32 noundef %_3.i, ptr noundef nonnull %data.i.i, i64 noundef %new_len.i.i) #25, !noalias !13
  %or.cond.not7.i.i = icmp sgt i64 %25, 0
  %26 = add i64 %25, %written.05.i.i
  %_5.i.i = icmp ult i64 %26, %_54.i
  %or.cond6.i.i = and i1 %or.cond.not7.i.i, %_5.i.i
  br i1 %or.cond6.i.i, label %bb11.i.i, label %"_ZN61_$LT$libc_print..__LibCWriter$u20$as$u20$core..fmt..Write$GT$9write_str17hfeba44cb5b2df8dfE.exit"

"_ZN61_$LT$libc_print..__LibCWriter$u20$as$u20$core..fmt..Write$GT$9write_str17hfeba44cb5b2df8dfE.exit": ; preds = %bb11.i.i
  call void @llvm.lifetime.end.p0(i64 4, ptr nonnull %_6)
  ret i1 false
}

; Function Attrs: nounwind
define internal noundef zeroext i1 @_ZN4core3fmt5Write9write_fmt17he8e1fa4725eb32b7E(ptr noalias noundef align 4 dereferenceable(4) %self, ptr noalias nocapture noundef readonly align 8 dereferenceable(48) %args) unnamed_addr #1 {
start:
  %_0.i = tail call fastcc noundef zeroext i1 @_ZN4core3fmt5write17he9fa43146d420946E(ptr noundef nonnull align 1 %self, ptr noalias noundef nonnull readonly align 8 dereferenceable(24) @vtable.4, ptr noalias nocapture noundef nonnull readonly align 8 dereferenceable(48) %args) #25
  ret i1 %_0.i
}

; Function Attrs: inlinehint mustprogress nofree norecurse nosync nounwind willreturn memory(none)
define internal void @"_ZN4core3ptr45drop_in_place$LT$libc_print..__LibCWriter$GT$17hbd3669dafa013a2cE"(ptr noalias nocapture align 4 %_1) unnamed_addr #2 {
start:
  ret void
}

; Function Attrs: inlinehint nofree nounwind
define internal noundef zeroext i1 @"_ZN61_$LT$libc_print..__LibCWriter$u20$as$u20$core..fmt..Write$GT$9write_str17hfeba44cb5b2df8dfE"(ptr noalias nocapture noundef readonly align 4 dereferenceable(4) %self, ptr noalias nocapture noundef nonnull readonly align 1 %s.0, i64 noundef %s.1) unnamed_addr #3 {
start:
  %_3 = load i32, ptr %self, align 4, !noundef !18
  %_54.not.i = icmp eq i64 %s.1, 0
  br i1 %_54.not.i, label %_ZN10libc_print14__libc_println17h791ee7eec4b2afbfE.exit, label %bb11.i

bb11.i:                                           ; preds = %start, %bb11.i
  %written.05.i = phi i64 [ %1, %bb11.i ], [ 0, %start ]
  %new_len.i = sub nuw i64 %s.1, %written.05.i
  %data.i = getelementptr inbounds i8, ptr %s.0, i64 %written.05.i
  %0 = tail call noundef i64 @write(i32 noundef %_3, ptr noundef nonnull %data.i, i64 noundef %new_len.i) #25
  %or.cond.not7.i = icmp sgt i64 %0, 0
  %1 = add i64 %0, %written.05.i
  %_5.i = icmp ult i64 %1, %s.1
  %or.cond6.i = and i1 %or.cond.not7.i, %_5.i
  br i1 %or.cond6.i, label %bb11.i, label %_ZN10libc_print14__libc_println17h791ee7eec4b2afbfE.exit

_ZN10libc_print14__libc_println17h791ee7eec4b2afbfE.exit: ; preds = %bb11.i, %start
  ret i1 false
}

; Function Attrs: nounwind
define dso_local void @_bril_print_int(i64 noundef %0) unnamed_addr #1 {
start:
  %_9 = alloca [1 x { ptr, ptr }], align 8
  %args = alloca %"core::fmt::Arguments<'_>", align 8
  %stm = alloca i32, align 4
  %i = alloca i64, align 8
  store i64 %0, ptr %i, align 8
  call void @llvm.lifetime.start.p0(i64 4, ptr nonnull %stm)
  store i32 1, ptr %stm, align 4
  call void @llvm.lifetime.start.p0(i64 48, ptr nonnull %args)
  call void @llvm.lifetime.start.p0(i64 16, ptr nonnull %_9)
  store ptr %i, ptr %_9, align 8
  %1 = getelementptr inbounds { ptr, ptr }, ptr %_9, i64 0, i32 1
  store ptr @"_ZN4core3fmt3num3imp52_$LT$impl$u20$core..fmt..Display$u20$for$u20$i64$GT$3fmt17h711c4a25006ea97aE", ptr %1, align 8
  store ptr @alloc_ffa3cdb3ae88e54a1cc225f31dd07672, ptr %args, align 8, !alias.scope !19, !noalias !22
  %2 = getelementptr inbounds { ptr, i64 }, ptr %args, i64 0, i32 1
  store i64 1, ptr %2, align 8, !alias.scope !19, !noalias !22
  %3 = getelementptr inbounds %"core::fmt::Arguments<'_>", ptr %args, i64 0, i32 2
  store ptr null, ptr %3, align 8, !alias.scope !19, !noalias !22
  %4 = getelementptr inbounds %"core::fmt::Arguments<'_>", ptr %args, i64 0, i32 1
  store ptr %_9, ptr %4, align 8, !alias.scope !19, !noalias !22
  %5 = getelementptr inbounds %"core::fmt::Arguments<'_>", ptr %args, i64 0, i32 1, i32 1
  store i64 1, ptr %5, align 8, !alias.scope !19, !noalias !22
  %_3 = call fastcc noundef zeroext i1 @_ZN4core3fmt5write17he9fa43146d420946E(ptr noundef nonnull align 1 %stm, ptr noalias noundef nonnull readonly align 8 dereferenceable(24) @vtable.4, ptr noalias nocapture noundef nonnull readonly align 8 dereferenceable(48) %args) #25
  call void @llvm.lifetime.end.p0(i64 48, ptr nonnull %args)
  call void @llvm.lifetime.end.p0(i64 16, ptr nonnull %_9)
  call void @llvm.lifetime.end.p0(i64 4, ptr nonnull %stm)
  ret void
}

; Function Attrs: nounwind
define dso_local void @_bril_print_bool(i1 noundef zeroext %b) unnamed_addr #1 {
start:
  %args2 = alloca %"core::fmt::Arguments<'_>", align 8
  %stm1 = alloca i32, align 4
  %args = alloca %"core::fmt::Arguments<'_>", align 8
  %stm = alloca i32, align 4
  br i1 %b, label %bb1, label %bb2

bb2:                                              ; preds = %start
  call void @llvm.lifetime.start.p0(i64 4, ptr nonnull %stm1)
  store i32 1, ptr %stm1, align 4
  call void @llvm.lifetime.start.p0(i64 48, ptr nonnull %args2)
  store ptr @alloc_9f540273f3b79d2c726146bbd3f5074c, ptr %args2, align 8
  %0 = getelementptr inbounds { ptr, i64 }, ptr %args2, i64 0, i32 1
  store i64 1, ptr %0, align 8
  %1 = getelementptr inbounds %"core::fmt::Arguments<'_>", ptr %args2, i64 0, i32 2
  store ptr null, ptr %1, align 8
  %2 = getelementptr inbounds %"core::fmt::Arguments<'_>", ptr %args2, i64 0, i32 1
  store ptr @anon.81eb2ca617e7b492be846be889fa0cc1.2, ptr %2, align 8
  %3 = getelementptr inbounds %"core::fmt::Arguments<'_>", ptr %args2, i64 0, i32 1, i32 1
  store i64 0, ptr %3, align 8
  %_8 = call fastcc noundef zeroext i1 @_ZN4core3fmt5write17he9fa43146d420946E(ptr noundef nonnull align 1 %stm1, ptr noalias noundef nonnull readonly align 8 dereferenceable(24) @vtable.4, ptr noalias nocapture noundef nonnull readonly align 8 dereferenceable(48) %args2) #25
  call void @llvm.lifetime.end.p0(i64 48, ptr nonnull %args2)
  call void @llvm.lifetime.end.p0(i64 4, ptr nonnull %stm1)
  br label %bb3

bb1:                                              ; preds = %start
  call void @llvm.lifetime.start.p0(i64 4, ptr nonnull %stm)
  store i32 1, ptr %stm, align 4
  call void @llvm.lifetime.start.p0(i64 48, ptr nonnull %args)
  store ptr @alloc_de4c6128c1b30660c61eab3610f3a239, ptr %args, align 8
  %4 = getelementptr inbounds { ptr, i64 }, ptr %args, i64 0, i32 1
  store i64 1, ptr %4, align 8
  %5 = getelementptr inbounds %"core::fmt::Arguments<'_>", ptr %args, i64 0, i32 2
  store ptr null, ptr %5, align 8
  %6 = getelementptr inbounds %"core::fmt::Arguments<'_>", ptr %args, i64 0, i32 1
  store ptr @anon.81eb2ca617e7b492be846be889fa0cc1.2, ptr %6, align 8
  %7 = getelementptr inbounds %"core::fmt::Arguments<'_>", ptr %args, i64 0, i32 1, i32 1
  store i64 0, ptr %7, align 8
  %_3 = call fastcc noundef zeroext i1 @_ZN4core3fmt5write17he9fa43146d420946E(ptr noundef nonnull align 1 %stm, ptr noalias noundef nonnull readonly align 8 dereferenceable(24) @vtable.4, ptr noalias nocapture noundef nonnull readonly align 8 dereferenceable(48) %args) #25
  call void @llvm.lifetime.end.p0(i64 48, ptr nonnull %args)
  call void @llvm.lifetime.end.p0(i64 4, ptr nonnull %stm)
  br label %bb3

bb3:                                              ; preds = %bb1, %bb2
  ret void
}

; Function Attrs: nounwind
define dso_local void @_bril_print_float(double noundef %0) unnamed_addr #1 {
start:
  %_34 = alloca [1 x %"core::fmt::rt::Placeholder"], align 16
  %_29 = alloca [1 x { ptr, ptr }], align 8
  %args6 = alloca %"core::fmt::Arguments<'_>", align 8
  %stm5 = alloca i32, align 4
  %args4 = alloca %"core::fmt::Arguments<'_>", align 8
  %stm3 = alloca i32, align 4
  %args2 = alloca %"core::fmt::Arguments<'_>", align 8
  %stm1 = alloca i32, align 4
  %args = alloca %"core::fmt::Arguments<'_>", align 8
  %stm = alloca i32, align 4
  %f = alloca double, align 8
  store double %0, ptr %f, align 8
  %1 = tail call double @llvm.fabs.f64(double %0)
  %_2 = fcmp oeq double %1, 0x7FF0000000000000
  br i1 %_2, label %bb1, label %bb4

bb4:                                              ; preds = %start
  %_15 = fcmp uno double %0, 0.000000e+00
  br i1 %_15, label %bb5, label %bb6

bb1:                                              ; preds = %start
  %_45 = bitcast double %0 to i64
  %2 = icmp sgt i64 %_45, -1
  br i1 %2, label %bb3, label %bb2

bb6:                                              ; preds = %bb4
  call void @llvm.lifetime.start.p0(i64 4, ptr nonnull %stm5)
  store i32 1, ptr %stm5, align 4
  call void @llvm.lifetime.start.p0(i64 48, ptr nonnull %args6)
  call void @llvm.lifetime.start.p0(i64 16, ptr nonnull %_29)
  store ptr %f, ptr %_29, align 8
  %3 = getelementptr inbounds { ptr, ptr }, ptr %_29, i64 0, i32 1
  store ptr @"_ZN4core3fmt5float52_$LT$impl$u20$core..fmt..Display$u20$for$u20$f64$GT$3fmt17h165821304c467d82E", ptr %3, align 8
  call void @llvm.lifetime.start.p0(i64 56, ptr nonnull %_34)
  store <2 x i64> <i64 0, i64 17>, ptr %_34, align 16
  %_35.sroa.5.0..sroa_idx = getelementptr inbounds i8, ptr %_34, i64 16
  store i64 2, ptr %_35.sroa.5.0..sroa_idx, align 16
  %_35.sroa.7.0..sroa_idx = getelementptr inbounds i8, ptr %_34, i64 32
  store i64 0, ptr %_35.sroa.7.0..sroa_idx, align 16
  %_35.sroa.8.0..sroa_idx = getelementptr inbounds i8, ptr %_34, i64 40
  store <2 x i32> <i32 32, i32 0>, ptr %_35.sroa.8.0..sroa_idx, align 8
  %_35.sroa.10.0..sroa_idx = getelementptr inbounds i8, ptr %_34, i64 48
  store i8 3, ptr %_35.sroa.10.0..sroa_idx, align 16
  store ptr @alloc_ffa3cdb3ae88e54a1cc225f31dd07672, ptr %args6, align 8
  %4 = getelementptr inbounds { ptr, i64 }, ptr %args6, i64 0, i32 1
  store i64 1, ptr %4, align 8
  %5 = getelementptr inbounds %"core::fmt::Arguments<'_>", ptr %args6, i64 0, i32 2
  store ptr %_34, ptr %5, align 8
  %6 = getelementptr inbounds %"core::fmt::Arguments<'_>", ptr %args6, i64 0, i32 2, i32 1
  store i64 1, ptr %6, align 8
  %7 = getelementptr inbounds %"core::fmt::Arguments<'_>", ptr %args6, i64 0, i32 1
  store ptr %_29, ptr %7, align 8
  %8 = getelementptr inbounds %"core::fmt::Arguments<'_>", ptr %args6, i64 0, i32 1, i32 1
  store i64 1, ptr %8, align 8
  %_23 = call fastcc noundef zeroext i1 @_ZN4core3fmt5write17he9fa43146d420946E(ptr noundef nonnull align 1 %stm5, ptr noalias noundef nonnull readonly align 8 dereferenceable(24) @vtable.4, ptr noalias nocapture noundef nonnull readonly align 8 dereferenceable(48) %args6) #25
  call void @llvm.lifetime.end.p0(i64 48, ptr nonnull %args6)
  call void @llvm.lifetime.end.p0(i64 56, ptr nonnull %_34)
  call void @llvm.lifetime.end.p0(i64 16, ptr nonnull %_29)
  call void @llvm.lifetime.end.p0(i64 4, ptr nonnull %stm5)
  br label %bb8

bb5:                                              ; preds = %bb4
  call void @llvm.lifetime.start.p0(i64 4, ptr nonnull %stm3)
  store i32 1, ptr %stm3, align 4
  call void @llvm.lifetime.start.p0(i64 48, ptr nonnull %args4)
  store ptr @alloc_bc552b7721126a64210d35ff65b32ae7, ptr %args4, align 8
  %9 = getelementptr inbounds { ptr, i64 }, ptr %args4, i64 0, i32 1
  store i64 1, ptr %9, align 8
  %10 = getelementptr inbounds %"core::fmt::Arguments<'_>", ptr %args4, i64 0, i32 2
  store ptr null, ptr %10, align 8
  %11 = getelementptr inbounds %"core::fmt::Arguments<'_>", ptr %args4, i64 0, i32 1
  store ptr @anon.81eb2ca617e7b492be846be889fa0cc1.2, ptr %11, align 8
  %12 = getelementptr inbounds %"core::fmt::Arguments<'_>", ptr %args4, i64 0, i32 1, i32 1
  store i64 0, ptr %12, align 8
  %_18 = call fastcc noundef zeroext i1 @_ZN4core3fmt5write17he9fa43146d420946E(ptr noundef nonnull align 1 %stm3, ptr noalias noundef nonnull readonly align 8 dereferenceable(24) @vtable.4, ptr noalias nocapture noundef nonnull readonly align 8 dereferenceable(48) %args4) #25
  call void @llvm.lifetime.end.p0(i64 48, ptr nonnull %args4)
  call void @llvm.lifetime.end.p0(i64 4, ptr nonnull %stm3)
  br label %bb8

bb8:                                              ; preds = %bb2, %bb3, %bb5, %bb6
  ret void

bb3:                                              ; preds = %bb1
  call void @llvm.lifetime.start.p0(i64 4, ptr nonnull %stm1)
  store i32 1, ptr %stm1, align 4
  call void @llvm.lifetime.start.p0(i64 48, ptr nonnull %args2)
  store ptr @alloc_2076b882c852b27af7ff3b97a9b401a1, ptr %args2, align 8
  %13 = getelementptr inbounds { ptr, i64 }, ptr %args2, i64 0, i32 1
  store i64 1, ptr %13, align 8
  %14 = getelementptr inbounds %"core::fmt::Arguments<'_>", ptr %args2, i64 0, i32 2
  store ptr null, ptr %14, align 8
  %15 = getelementptr inbounds %"core::fmt::Arguments<'_>", ptr %args2, i64 0, i32 1
  store ptr @anon.81eb2ca617e7b492be846be889fa0cc1.2, ptr %15, align 8
  %16 = getelementptr inbounds %"core::fmt::Arguments<'_>", ptr %args2, i64 0, i32 1, i32 1
  store i64 0, ptr %16, align 8
  %_11 = call fastcc noundef zeroext i1 @_ZN4core3fmt5write17he9fa43146d420946E(ptr noundef nonnull align 1 %stm1, ptr noalias noundef nonnull readonly align 8 dereferenceable(24) @vtable.4, ptr noalias nocapture noundef nonnull readonly align 8 dereferenceable(48) %args2) #25
  call void @llvm.lifetime.end.p0(i64 48, ptr nonnull %args2)
  call void @llvm.lifetime.end.p0(i64 4, ptr nonnull %stm1)
  br label %bb8

bb2:                                              ; preds = %bb1
  call void @llvm.lifetime.start.p0(i64 4, ptr nonnull %stm)
  store i32 1, ptr %stm, align 4
  call void @llvm.lifetime.start.p0(i64 48, ptr nonnull %args)
  store ptr @alloc_aafdf1a4a27a106112db52cc3b95de65, ptr %args, align 8
  %17 = getelementptr inbounds { ptr, i64 }, ptr %args, i64 0, i32 1
  store i64 1, ptr %17, align 8
  %18 = getelementptr inbounds %"core::fmt::Arguments<'_>", ptr %args, i64 0, i32 2
  store ptr null, ptr %18, align 8
  %19 = getelementptr inbounds %"core::fmt::Arguments<'_>", ptr %args, i64 0, i32 1
  store ptr @anon.81eb2ca617e7b492be846be889fa0cc1.2, ptr %19, align 8
  %20 = getelementptr inbounds %"core::fmt::Arguments<'_>", ptr %args, i64 0, i32 1, i32 1
  store i64 0, ptr %20, align 8
  %_6 = call fastcc noundef zeroext i1 @_ZN4core3fmt5write17he9fa43146d420946E(ptr noundef nonnull align 1 %stm, ptr noalias noundef nonnull readonly align 8 dereferenceable(24) @vtable.4, ptr noalias nocapture noundef nonnull readonly align 8 dereferenceable(48) %args) #25
  call void @llvm.lifetime.end.p0(i64 48, ptr nonnull %args)
  call void @llvm.lifetime.end.p0(i64 4, ptr nonnull %stm)
  br label %bb8
}

; Function Attrs: nounwind
define dso_local void @_bril_print_sep() unnamed_addr #1 {
start:
  %args = alloca %"core::fmt::Arguments<'_>", align 8
  %stm = alloca i32, align 4
  call void @llvm.lifetime.start.p0(i64 4, ptr nonnull %stm)
  store i32 1, ptr %stm, align 4
  call void @llvm.lifetime.start.p0(i64 48, ptr nonnull %args)
  store ptr @alloc_75c62af2e3495065b198d9bcb040c803, ptr %args, align 8
  %0 = getelementptr inbounds { ptr, i64 }, ptr %args, i64 0, i32 1
  store i64 1, ptr %0, align 8
  %1 = getelementptr inbounds %"core::fmt::Arguments<'_>", ptr %args, i64 0, i32 2
  store ptr null, ptr %1, align 8
  %2 = getelementptr inbounds %"core::fmt::Arguments<'_>", ptr %args, i64 0, i32 1
  store ptr @anon.81eb2ca617e7b492be846be889fa0cc1.2, ptr %2, align 8
  %3 = getelementptr inbounds %"core::fmt::Arguments<'_>", ptr %args, i64 0, i32 1, i32 1
  store i64 0, ptr %3, align 8
  %_2 = call fastcc noundef zeroext i1 @_ZN4core3fmt5write17he9fa43146d420946E(ptr noundef nonnull align 1 %stm, ptr noalias noundef nonnull readonly align 8 dereferenceable(24) @vtable.4, ptr noalias nocapture noundef nonnull readonly align 8 dereferenceable(48) %args) #25
  call void @llvm.lifetime.end.p0(i64 48, ptr nonnull %args)
  call void @llvm.lifetime.end.p0(i64 4, ptr nonnull %stm)
  ret void
}

; Function Attrs: nounwind
define dso_local void @_bril_print_end() unnamed_addr #1 {
_ZN10libc_print14__libc_println17h791ee7eec4b2afbfE.exit:
  %args = alloca %"core::fmt::Arguments<'_>", align 8
  %stm = alloca i32, align 4
  call void @llvm.lifetime.start.p0(i64 4, ptr nonnull %stm)
  store i32 1, ptr %stm, align 4
  call void @llvm.lifetime.start.p0(i64 48, ptr nonnull %args)
  store ptr @anon.81eb2ca617e7b492be846be889fa0cc1.2, ptr %args, align 8
  %0 = getelementptr inbounds { ptr, i64 }, ptr %args, i64 0, i32 1
  store i64 0, ptr %0, align 8
  %1 = getelementptr inbounds %"core::fmt::Arguments<'_>", ptr %args, i64 0, i32 2
  store ptr null, ptr %1, align 8
  %2 = getelementptr inbounds %"core::fmt::Arguments<'_>", ptr %args, i64 0, i32 1
  store ptr @anon.81eb2ca617e7b492be846be889fa0cc1.2, ptr %2, align 8
  %3 = getelementptr inbounds %"core::fmt::Arguments<'_>", ptr %args, i64 0, i32 1, i32 1
  store i64 0, ptr %3, align 8
  %_2 = call fastcc noundef zeroext i1 @_ZN4core3fmt5write17he9fa43146d420946E(ptr noundef nonnull align 1 %stm, ptr noalias noundef nonnull readonly align 8 dereferenceable(24) @vtable.4, ptr noalias nocapture noundef nonnull readonly align 8 dereferenceable(48) %args) #25
  call void @llvm.lifetime.end.p0(i64 48, ptr nonnull %args)
  %_13 = load i32, ptr %stm, align 4, !noundef !18
  %4 = call noundef i64 @write(i32 noundef %_13, ptr noundef nonnull @alloc_49a1e817e911805af64bbc7efb390101, i64 noundef 1) #25
  call void @llvm.lifetime.end.p0(i64 4, ptr nonnull %stm)
  ret void
}

; Function Attrs: nofree nounwind memory(read, argmem: readwrite, inaccessiblemem: readwrite)
define dso_local noundef i64 @_bril_parse_int(ptr noundef nonnull %arg) unnamed_addr #4 personality ptr @rust_eh_personality {
start:
  %_3 = alloca %"core::result::Result<&str, core::str::error::Utf8Error>", align 8
  %len = tail call noundef i64 @strlen(ptr noundef nonnull dereferenceable(1) %arg) #25
  %len1 = add i64 %len, 1
  call void @llvm.lifetime.start.p0(i64 24, ptr nonnull %_3)
  call fastcc void @_ZN4core3ffi5c_str4CStr6to_str17h9b0c460b7d7bc8d5E(ptr noalias nocapture noundef nonnull align 8 dereferenceable(24) %_3, ptr noalias noundef nonnull readonly align 1 %arg, i64 noundef %len1) #25
  %_2.i = load i64, ptr %_3, align 8, !range !25, !alias.scope !26, !noalias !29, !noundef !18
  %trunc.not.i = icmp eq i64 %_2.i, 0
  br i1 %trunc.not.i, label %"_ZN4core6result19Result$LT$T$C$E$GT$6unwrap17h38707db8c0e83d2bE.exit", label %bb1.i

bb1.i:                                            ; preds = %start
  tail call fastcc void @_ZN4core6result13unwrap_failed17h16d42dbc22454d03E() #28
  unreachable

"_ZN4core6result19Result$LT$T$C$E$GT$6unwrap17h38707db8c0e83d2bE.exit": ; preds = %start
  %0 = getelementptr inbounds %"core::result::Result<&str, core::str::error::Utf8Error>::Ok", ptr %_3, i64 0, i32 1
  %t.0.i = load ptr, ptr %0, align 8, !alias.scope !26, !noalias !29, !nonnull !18, !align !31, !noundef !18
  %1 = getelementptr inbounds %"core::result::Result<&str, core::str::error::Utf8Error>::Ok", ptr %_3, i64 0, i32 1, i32 1
  %t.1.i = load i64, ptr %1, align 8, !alias.scope !26, !noalias !29, !noundef !18
  call void @llvm.lifetime.end.p0(i64 24, ptr nonnull %_3)
  %2 = icmp eq i64 %t.1.i, 0, !dbg !32
  br i1 %2, label %bb1.i4, label %3, !dbg !32

3:                                                ; preds = %"_ZN4core6result19Result$LT$T$C$E$GT$6unwrap17h38707db8c0e83d2bE.exit"
  %4 = load i8, ptr %t.0.i, align 1, !dbg !42, !alias.scope !45, !noalias !50, !noundef !18
  switch i8 %4, label %10 [
    i8 43, label %5
    i8 45, label %19
  ], !dbg !42

5:                                                ; preds = %3
  %6 = add i64 %t.1.i, -1, !dbg !53
  %7 = icmp eq i64 %6, 0, !dbg !76
  br i1 %7, label %bb1.i4, label %8, !dbg !76

8:                                                ; preds = %5
  %9 = getelementptr inbounds i8, ptr %t.0.i, i64 1, !dbg !77
  br label %10, !dbg !99

10:                                               ; preds = %8, %3
  %11 = phi ptr [ %9, %8 ], [ %t.0.i, %3 ], !dbg !100
  %12 = phi i64 [ %6, %8 ], [ %t.1.i, %3 ], !dbg !100
  %13 = icmp ult i64 %12, 16, !dbg !101
  %14 = getelementptr inbounds i8, ptr %11, i64 %12, !dbg !107
  br i1 %13, label %.preheader, label %.preheader28, !dbg !128

15:                                               ; preds = %19
  %16 = getelementptr inbounds i8, ptr %t.0.i, i64 1, !dbg !129
  %17 = icmp ult i64 %t.1.i, 17, !dbg !101
  %18 = getelementptr inbounds i8, ptr %t.0.i, i64 %t.1.i, !dbg !107
  br i1 %17, label %.preheader31, label %.preheader34, !dbg !128

19:                                               ; preds = %3
  %20 = icmp eq i64 %t.1.i, 1, !dbg !76
  br i1 %20, label %bb1.i4, label %15, !dbg !76

.preheader34:                                     ; preds = %15, %34
  %21 = phi i64 [ %38, %34 ], [ 0, %15 ], !dbg !146
  %22 = phi ptr [ %25, %34 ], [ %16, %15 ], !dbg !147
  %23 = icmp eq ptr %22, %18, !dbg !148
  br i1 %23, label %"_ZN4core6result19Result$LT$T$C$E$GT$6unwrap17h2fe088d43f02a21cE.exit", label %24, !dbg !163

24:                                               ; preds = %.preheader34
  %25 = getelementptr inbounds i8, ptr %22, i64 1, !dbg !164
  %26 = load i8, ptr %22, align 1, !dbg !181, !alias.scope !45, !noalias !50, !noundef !18
  %27 = tail call { i64, i1 } @llvm.smul.with.overflow.i64(i64 %21, i64 10), !dbg !182
  %28 = extractvalue { i64, i1 } %27, 0, !dbg !182
  %29 = zext i8 %26 to i32, !dbg !196
  %30 = add nsw i32 %29, -48, !dbg !198
  %31 = icmp ult i32 %30, 10, !dbg !211
  br i1 %31, label %32, label %bb1.i4, !dbg !196

32:                                               ; preds = %24
  %33 = extractvalue { i64, i1 } %27, 1, !dbg !182
  br i1 %33, label %bb1.i4, label %34, !dbg !213

34:                                               ; preds = %32
  %35 = zext nneg i32 %30 to i64, !dbg !215
  %36 = tail call { i64, i1 } @llvm.ssub.with.overflow.i64(i64 %28, i64 %35), !dbg !218
  %37 = extractvalue { i64, i1 } %36, 1, !dbg !218
  %38 = extractvalue { i64, i1 } %36, 0, !dbg !218
  br i1 %37, label %bb1.i4, label %.preheader34, !dbg !213

.preheader28:                                     ; preds = %10, %52
  %39 = phi i64 [ %56, %52 ], [ 0, %10 ], !dbg !146
  %40 = phi ptr [ %43, %52 ], [ %11, %10 ], !dbg !226
  %41 = icmp eq ptr %40, %14, !dbg !227
  br i1 %41, label %"_ZN4core6result19Result$LT$T$C$E$GT$6unwrap17h2fe088d43f02a21cE.exit", label %42, !dbg !231

42:                                               ; preds = %.preheader28
  %43 = getelementptr inbounds i8, ptr %40, i64 1, !dbg !232
  %44 = load i8, ptr %40, align 1, !dbg !236, !alias.scope !45, !noalias !50, !noundef !18
  %45 = tail call { i64, i1 } @llvm.smul.with.overflow.i64(i64 %39, i64 10), !dbg !237
  %46 = extractvalue { i64, i1 } %45, 0, !dbg !237
  %47 = zext i8 %44 to i32, !dbg !242
  %48 = add nsw i32 %47, -48, !dbg !244
  %49 = icmp ult i32 %48, 10, !dbg !247
  br i1 %49, label %50, label %bb1.i4, !dbg !242

50:                                               ; preds = %42
  %51 = extractvalue { i64, i1 } %45, 1, !dbg !237
  br i1 %51, label %bb1.i4, label %52, !dbg !248

52:                                               ; preds = %50
  %53 = zext nneg i32 %48 to i64, !dbg !250
  %54 = tail call { i64, i1 } @llvm.sadd.with.overflow.i64(i64 %46, i64 %53), !dbg !253
  %55 = extractvalue { i64, i1 } %54, 1, !dbg !253
  %56 = extractvalue { i64, i1 } %54, 0, !dbg !253
  br i1 %55, label %bb1.i4, label %.preheader28, !dbg !248

.preheader31:                                     ; preds = %15, %63
  %57 = phi i64 [ %67, %63 ], [ 0, %15 ]
  %58 = phi ptr [ %65, %63 ], [ %16, %15 ]
  %59 = load i8, ptr %58, align 1, !dbg !261, !alias.scope !45, !noalias !50, !noundef !18
  %60 = zext i8 %59 to i32, !dbg !263
  %61 = add nsw i32 %60, -48, !dbg !265
  %62 = icmp ult i32 %61, 10, !dbg !268
  br i1 %62, label %63, label %bb1.i4, !dbg !263

63:                                               ; preds = %.preheader31
  %64 = mul i64 %57, 10, !dbg !269
  %65 = getelementptr inbounds i8, ptr %58, i64 1, !dbg !276
  %66 = zext nneg i32 %61 to i64, !dbg !281
  %67 = sub i64 %64, %66, !dbg !285
  %68 = icmp eq ptr %65, %18, !dbg !289
  br i1 %68, label %"_ZN4core6result19Result$LT$T$C$E$GT$6unwrap17h2fe088d43f02a21cE.exit", label %.preheader31, !dbg !291

.preheader:                                       ; preds = %10, %75
  %69 = phi i64 [ %79, %75 ], [ 0, %10 ]
  %70 = phi ptr [ %77, %75 ], [ %11, %10 ]
  %71 = load i8, ptr %70, align 1, !dbg !292, !alias.scope !45, !noalias !50, !noundef !18
  %72 = zext i8 %71 to i32, !dbg !294
  %73 = add nsw i32 %72, -48, !dbg !296
  %74 = icmp ult i32 %73, 10, !dbg !299
  br i1 %74, label %75, label %bb1.i4, !dbg !294

75:                                               ; preds = %.preheader
  %76 = mul i64 %69, 10, !dbg !300
  %77 = getelementptr inbounds i8, ptr %70, i64 1, !dbg !302
  %78 = zext nneg i32 %73 to i64, !dbg !307
  %79 = add i64 %76, %78, !dbg !310
  %80 = icmp eq ptr %77, %14, !dbg !314
  br i1 %80, label %"_ZN4core6result19Result$LT$T$C$E$GT$6unwrap17h2fe088d43f02a21cE.exit", label %.preheader, !dbg !316

bb1.i4:                                           ; preds = %34, %32, %24, %.preheader31, %52, %50, %42, %.preheader, %19, %5, %"_ZN4core6result19Result$LT$T$C$E$GT$6unwrap17h38707db8c0e83d2bE.exit"
  tail call fastcc void @_ZN4core6result13unwrap_failed17h16d42dbc22454d03E() #28
  unreachable

"_ZN4core6result19Result$LT$T$C$E$GT$6unwrap17h2fe088d43f02a21cE.exit": ; preds = %.preheader34, %63, %.preheader28, %75
  %81 = phi i64 [ %79, %75 ], [ %39, %.preheader28 ], [ %67, %63 ], [ %21, %.preheader34 ], !dbg !317
  ret i64 %81
}

; Function Attrs: nofree nounwind memory(read, argmem: readwrite, inaccessiblemem: readwrite)
define dso_local noundef zeroext i1 @_bril_parse_bool(ptr noundef nonnull %arg) unnamed_addr #4 personality ptr @rust_eh_personality {
start:
  %_3 = alloca %"core::result::Result<&str, core::str::error::Utf8Error>", align 8
  %len = tail call noundef i64 @strlen(ptr noundef nonnull dereferenceable(1) %arg) #25
  %len1 = add i64 %len, 1
  call void @llvm.lifetime.start.p0(i64 24, ptr nonnull %_3)
  call fastcc void @_ZN4core3ffi5c_str4CStr6to_str17h9b0c460b7d7bc8d5E(ptr noalias nocapture noundef nonnull align 8 dereferenceable(24) %_3, ptr noalias noundef nonnull readonly align 1 %arg, i64 noundef %len1) #25
  %_2.i = load i64, ptr %_3, align 8, !range !25, !alias.scope !318, !noalias !321, !noundef !18
  %trunc.not.i = icmp eq i64 %_2.i, 0
  br i1 %trunc.not.i, label %"_ZN4core6result19Result$LT$T$C$E$GT$6unwrap17h38707db8c0e83d2bE.exit", label %bb1.i

bb1.i:                                            ; preds = %start
  tail call fastcc void @_ZN4core6result13unwrap_failed17h16d42dbc22454d03E() #28
  unreachable

"_ZN4core6result19Result$LT$T$C$E$GT$6unwrap17h38707db8c0e83d2bE.exit": ; preds = %start
  %0 = getelementptr inbounds %"core::result::Result<&str, core::str::error::Utf8Error>::Ok", ptr %_3, i64 0, i32 1
  %t.0.i = load ptr, ptr %0, align 8, !alias.scope !318, !noalias !321, !nonnull !18, !align !31, !noundef !18
  %1 = getelementptr inbounds %"core::result::Result<&str, core::str::error::Utf8Error>::Ok", ptr %_3, i64 0, i32 1, i32 1
  %t.1.i = load i64, ptr %1, align 8, !alias.scope !318, !noalias !321, !noundef !18
  call void @llvm.lifetime.end.p0(i64 24, ptr nonnull %_3)
  switch i64 %t.1.i, label %bb1.i3 [
    i64 4, label %"_ZN73_$LT$$u5b$A$u5d$$u20$as$u20$core..slice..cmp..SlicePartialEq$LT$B$GT$$GT$5equal17h6dfa8afb4e7de51fE.exit.i"
    i64 5, label %"_ZN73_$LT$$u5b$A$u5d$$u20$as$u20$core..slice..cmp..SlicePartialEq$LT$B$GT$$GT$5equal17h6dfa8afb4e7de51fE.exit4.i"
  ]

"_ZN73_$LT$$u5b$A$u5d$$u20$as$u20$core..slice..cmp..SlicePartialEq$LT$B$GT$$GT$5equal17h6dfa8afb4e7de51fE.exit.i": ; preds = %"_ZN4core6result19Result$LT$T$C$E$GT$6unwrap17h38707db8c0e83d2bE.exit"
  %2 = tail call i32 @memcmp(ptr noundef nonnull dereferenceable(4) %t.0.i, ptr noundef nonnull dereferenceable(4) @alloc_da967f6e9acf91e913e9d8172d81c5c3, i64 4), !alias.scope !323
  %3 = icmp eq i32 %2, 0
  br i1 %3, label %"_ZN4core6result19Result$LT$T$C$E$GT$6unwrap17h3e555001d8abdac6E.exit", label %bb1.i3

"_ZN73_$LT$$u5b$A$u5d$$u20$as$u20$core..slice..cmp..SlicePartialEq$LT$B$GT$$GT$5equal17h6dfa8afb4e7de51fE.exit4.i": ; preds = %"_ZN4core6result19Result$LT$T$C$E$GT$6unwrap17h38707db8c0e83d2bE.exit"
  %4 = tail call i32 @memcmp(ptr noundef nonnull dereferenceable(5) %t.0.i, ptr noundef nonnull dereferenceable(5) @alloc_b81e52ca1a07489f49a3e5fe131c4b29, i64 5), !alias.scope !327
  %.fr.i = freeze i32 %4
  %5 = icmp eq i32 %.fr.i, 0
  br i1 %5, label %"_ZN4core6result19Result$LT$T$C$E$GT$6unwrap17h3e555001d8abdac6E.exit", label %bb1.i3

bb1.i3:                                           ; preds = %"_ZN73_$LT$$u5b$A$u5d$$u20$as$u20$core..slice..cmp..SlicePartialEq$LT$B$GT$$GT$5equal17h6dfa8afb4e7de51fE.exit4.i", %"_ZN73_$LT$$u5b$A$u5d$$u20$as$u20$core..slice..cmp..SlicePartialEq$LT$B$GT$$GT$5equal17h6dfa8afb4e7de51fE.exit.i", %"_ZN4core6result19Result$LT$T$C$E$GT$6unwrap17h38707db8c0e83d2bE.exit"
  tail call fastcc void @_ZN4core6result13unwrap_failed17h16d42dbc22454d03E() #28
  unreachable

"_ZN4core6result19Result$LT$T$C$E$GT$6unwrap17h3e555001d8abdac6E.exit": ; preds = %"_ZN73_$LT$$u5b$A$u5d$$u20$as$u20$core..slice..cmp..SlicePartialEq$LT$B$GT$$GT$5equal17h6dfa8afb4e7de51fE.exit4.i", %"_ZN73_$LT$$u5b$A$u5d$$u20$as$u20$core..slice..cmp..SlicePartialEq$LT$B$GT$$GT$5equal17h6dfa8afb4e7de51fE.exit.i"
  %t.i = phi i1 [ false, %"_ZN73_$LT$$u5b$A$u5d$$u20$as$u20$core..slice..cmp..SlicePartialEq$LT$B$GT$$GT$5equal17h6dfa8afb4e7de51fE.exit4.i" ], [ true, %"_ZN73_$LT$$u5b$A$u5d$$u20$as$u20$core..slice..cmp..SlicePartialEq$LT$B$GT$$GT$5equal17h6dfa8afb4e7de51fE.exit.i" ]
  ret i1 %t.i
}

; Function Attrs: nofree nounwind
define dso_local noundef double @_bril_parse_float(ptr noundef nonnull %arg) unnamed_addr #0 personality ptr @rust_eh_personality {
start:
  %_5 = alloca %"core::result::Result<f64, core::num::dec2flt::ParseFloatError>", align 8
  %_3 = alloca %"core::result::Result<&str, core::str::error::Utf8Error>", align 8
  %len = tail call noundef i64 @strlen(ptr noundef nonnull dereferenceable(1) %arg) #25
  %len1 = add i64 %len, 1
  call void @llvm.lifetime.start.p0(i64 24, ptr nonnull %_3)
  call fastcc void @_ZN4core3ffi5c_str4CStr6to_str17h9b0c460b7d7bc8d5E(ptr noalias nocapture noundef nonnull align 8 dereferenceable(24) %_3, ptr noalias noundef nonnull readonly align 1 %arg, i64 noundef %len1) #25
  %_2.i = load i64, ptr %_3, align 8, !range !25, !alias.scope !331, !noalias !334, !noundef !18
  %trunc.not.i = icmp eq i64 %_2.i, 0
  br i1 %trunc.not.i, label %"_ZN4core6result19Result$LT$T$C$E$GT$6unwrap17h38707db8c0e83d2bE.exit", label %bb1.i

bb1.i:                                            ; preds = %start
  tail call fastcc void @_ZN4core6result13unwrap_failed17h16d42dbc22454d03E() #28
  unreachable

"_ZN4core6result19Result$LT$T$C$E$GT$6unwrap17h38707db8c0e83d2bE.exit": ; preds = %start
  %0 = getelementptr inbounds %"core::result::Result<&str, core::str::error::Utf8Error>::Ok", ptr %_3, i64 0, i32 1
  %t.0.i = load ptr, ptr %0, align 8, !alias.scope !331, !noalias !334, !nonnull !18, !align !31, !noundef !18
  %1 = getelementptr inbounds %"core::result::Result<&str, core::str::error::Utf8Error>::Ok", ptr %_3, i64 0, i32 1, i32 1
  %t.1.i = load i64, ptr %1, align 8, !alias.scope !331, !noalias !334, !noundef !18
  call void @llvm.lifetime.end.p0(i64 24, ptr nonnull %_3)
  call void @llvm.lifetime.start.p0(i64 16, ptr nonnull %_5)
  call fastcc void @"_ZN4core3num7dec2flt60_$LT$impl$u20$core..str..traits..FromStr$u20$for$u20$f64$GT$8from_str17h6e816cefcb5fb04dE"(ptr noalias nocapture noundef nonnull align 8 dereferenceable(16) %_5, ptr noalias noundef nonnull readonly align 1 %t.0.i, i64 noundef %t.1.i) #25
  %2 = load i8, ptr %_5, align 8, !range !336, !alias.scope !337, !noundef !18
  %trunc.not.i3 = icmp eq i8 %2, 0
  br i1 %trunc.not.i3, label %"_ZN4core6result19Result$LT$T$C$E$GT$6unwrap17hbe40f7d7176410e6E.exit", label %bb1.i4

bb1.i4:                                           ; preds = %"_ZN4core6result19Result$LT$T$C$E$GT$6unwrap17h38707db8c0e83d2bE.exit"
  tail call fastcc void @_ZN4core6result13unwrap_failed17h16d42dbc22454d03E() #28
  unreachable

"_ZN4core6result19Result$LT$T$C$E$GT$6unwrap17hbe40f7d7176410e6E.exit": ; preds = %"_ZN4core6result19Result$LT$T$C$E$GT$6unwrap17h38707db8c0e83d2bE.exit"
  %3 = getelementptr inbounds %"core::result::Result<f64, core::num::dec2flt::ParseFloatError>::Ok", ptr %_5, i64 0, i32 1
  %t.i = load double, ptr %3, align 8, !alias.scope !337, !noundef !18
  call void @llvm.lifetime.end.p0(i64 16, ptr nonnull %_5)
  ret double %t.i
}

declare i32 @rust_eh_personality(...) unnamed_addr #5

; Function Attrs: mustprogress nocallback nofree nounwind willreturn memory(argmem: readwrite)
declare void @llvm.memcpy.p0.p0.i64(ptr noalias nocapture writeonly, ptr noalias nocapture readonly, i64, i1 immarg) #6

; Function Attrs: mustprogress nofree nounwind willreturn memory(argmem: read)
declare i32 @memcmp(ptr nocapture, ptr nocapture, i64) local_unnamed_addr #7

; Function Attrs: mustprogress nofree nounwind willreturn memory(argmem: read)
declare noundef i64 @strlen(ptr nocapture noundef) unnamed_addr #8

; Function Attrs: mustprogress nocallback nofree nosync nounwind willreturn memory(argmem: readwrite)
declare void @llvm.lifetime.start.p0(i64 immarg, ptr nocapture) #9

; Function Attrs: mustprogress nocallback nofree nosync nounwind willreturn memory(argmem: readwrite)
declare void @llvm.lifetime.end.p0(i64 immarg, ptr nocapture) #9

; Function Attrs: mustprogress nocallback nofree nosync nounwind willreturn memory(inaccessiblemem: readwrite)
declare void @llvm.experimental.noalias.scope.decl(metadata) #10

; Function Attrs: inlinehint nofree norecurse noreturn nounwind memory(argmem: read, inaccessiblemem: readwrite) uwtable
define internal noundef zeroext i1 @_ZN4core3ops8function6FnOnce9call_once17h327a852a215e42d7E(ptr noalias noundef readonly align 8 dereferenceable(8) %0, ptr noalias nocapture readnone align 8 %1) unnamed_addr #11 personality ptr @rust_eh_personality !dbg !340 {
  %3 = load volatile i64, ptr %0, align 8, !dbg !344, !alias.scope !357
  br label %4, !dbg !360

4:                                                ; preds = %4, %2
  br label %4, !dbg !360
}

; Function Attrs: cold nofree noinline norecurse noreturn nosync nounwind memory(none) uwtable
define internal fastcc void @_ZN4core9panicking9panic_fmt17h10bd3bfe5bb30d67E() unnamed_addr #12 !dbg !362 {
  br label %bb1.i, !dbg !365

bb1.i:                                            ; preds = %bb1.i, %0
  br label %bb1.i, !dbg !365
}

; Function Attrs: mustprogress nocallback nofree nounwind willreturn memory(argmem: write)
declare void @llvm.memset.p0.i64(ptr nocapture writeonly, i8, i64, i1 immarg) #13

; Function Attrs: nofree norecurse nosync nounwind memory(argmem: readwrite, inaccessiblemem: readwrite) uwtable
define internal fastcc void @_ZN4core3num7dec2flt7decimal7Decimal10left_shift17hea3542b07885afffE(ptr noalias nocapture noundef align 8 dereferenceable(784) %0, i64 noundef %1) unnamed_addr #14 personality ptr @rust_eh_personality !dbg !368 {
  %3 = load i64, ptr %0, align 8, !dbg !373, !noundef !18
  %4 = icmp eq i64 %3, 0, !dbg !373
  br i1 %4, label %.loopexit, label %5, !dbg !373

5:                                                ; preds = %2
  tail call void @llvm.experimental.noalias.scope.decl(metadata !374), !dbg !377
  %6 = and i64 %1, 63, !dbg !378
  %7 = getelementptr inbounds [65 x i16], ptr @anon.81eb2ca617e7b492be846be889fa0cc1.34, i64 0, i64 %6, !dbg !381
  %8 = load i16, ptr %7, align 2, !dbg !381, !noalias !374, !noundef !18
  %9 = lshr i16 %8, 11, !dbg !382
  %10 = zext nneg i16 %9 to i64, !dbg !382
  %11 = and i16 %8, 2047, !dbg !385
  %12 = icmp ugt i16 %11, 1308, !dbg !387
  br i1 %12, label %21, label %13, !dbg !387

13:                                               ; preds = %5
  %14 = zext nneg i16 %11 to i64, !dbg !385
  %15 = add nuw nsw i64 %6, 1, !dbg !402
  %16 = getelementptr inbounds [65 x i16], ptr @anon.81eb2ca617e7b492be846be889fa0cc1.34, i64 0, i64 %15, !dbg !403
  %17 = load i16, ptr %16, align 2, !dbg !403, !noalias !374, !noundef !18
  %18 = and i16 %17, 2047, !dbg !404
  %19 = zext nneg i16 %18 to i64, !dbg !404
  %20 = sub nsw i64 %19, %14, !dbg !405
  br label %22, !dbg !407

21:                                               ; preds = %5
  tail call fastcc void @_ZN4core5slice5index24slice_end_index_len_fail17hfdbe95b016e4b961E() #29, !dbg !409
  unreachable, !dbg !409

22:                                               ; preds = %37, %13
  %23 = phi i64 [ 0, %13 ], [ %30, %37 ], !dbg !410
  %24 = phi i64 [ %20, %13 ], [ %27, %37 ], !dbg !410
  %.idx = phi i64 [ %14, %13 ], [ %.add, %37 ]
  %.ptr = getelementptr inbounds i8, ptr @anon.81eb2ca617e7b492be846be889fa0cc1.35, i64 %.idx, !dbg !411
  %25 = icmp eq i64 %24, 0, !dbg !411
  br i1 %25, label %.loopexit13, label %26, !dbg !411

26:                                               ; preds = %22
  %27 = add nsw i64 %24, -1, !dbg !420
  %28 = icmp eq i64 %.idx, 1308, !dbg !421
  br i1 %28, label %.loopexit13, label %29, !dbg !429

29:                                               ; preds = %26
  %.add = add nuw nsw i64 %.idx, 1, !dbg !430
  %30 = add nuw nsw i64 %23, 1, !dbg !434
  %31 = load i8, ptr %.ptr, align 1, !dbg !437, !noalias !374, !noundef !18
  %32 = icmp eq i64 %23, %3, !dbg !438
  br i1 %32, label %35, label %33, !dbg !438

33:                                               ; preds = %29
  %34 = icmp eq i64 %23, 768, !dbg !440
  br i1 %34, label %41, label %37, !dbg !440, !prof !441

35:                                               ; preds = %29
  %36 = add nsw i64 %10, -1, !dbg !442
  br label %.loopexit13, !dbg !443

37:                                               ; preds = %33
  %38 = getelementptr inbounds { i64, [768 x i8], i32, i8, [3 x i8] }, ptr %0, i64 0, i32 1, i64 %23, !dbg !440
  %39 = load i8, ptr %38, align 1, !dbg !440, !alias.scope !374, !noundef !18
  %40 = icmp eq i8 %39, %31, !dbg !440
  br i1 %40, label %22, label %42, !dbg !440

41:                                               ; preds = %33
  tail call fastcc void @_ZN4core5slice5index24slice_end_index_len_fail17hfdbe95b016e4b961E() #29, !dbg !440
  unreachable, !dbg !440

42:                                               ; preds = %37
  %43 = icmp ult i8 %39, %31, !dbg !444
  %44 = sext i1 %43 to i64, !dbg !444
  %45 = add nsw i64 %44, %10, !dbg !444
  br label %.loopexit13, !dbg !444

.loopexit13:                                      ; preds = %26, %22, %42, %35
  %46 = phi i64 [ %36, %35 ], [ %45, %42 ], [ %10, %22 ], [ %10, %26 ], !dbg !445
  %47 = add i64 %46, %3, !dbg !446
  %48 = getelementptr inbounds { i64, [768 x i8], i32, i8, [3 x i8] }, ptr %0, i64 0, i32 3
  br label %51, !dbg !449

.loopexit:                                        ; preds = %71, %.preheader, %.loopexit12, %2
  ret void, !dbg !452

49:                                               ; preds = %102
  %50 = icmp ult i64 %93, 10, !dbg !453
  br i1 %50, label %.loopexit12, label %.preheader11, !dbg !453

51:                                               ; preds = %102, %.loopexit13
  %52 = phi i64 [ %3, %.loopexit13 ], [ %55, %102 ]
  %53 = phi i64 [ %47, %.loopexit13 ], [ %56, %102 ]
  %54 = phi i64 [ 0, %.loopexit13 ], [ %94, %102 ]
  %55 = add i64 %52, -1, !dbg !454
  %56 = add i64 %53, -1, !dbg !455
  %57 = icmp ult i64 %52, 769, !dbg !456
  br i1 %57, label %88, label %98, !dbg !456, !prof !457

.loopexit12:                                      ; preds = %83, %49
  %58 = load i64, ptr %0, align 8, !dbg !458, !noundef !18
  %59 = add i64 %58, %46, !dbg !458
  %60 = tail call i64 @llvm.umin.i64(i64 %59, i64 768), !dbg !459
  store i64 %60, ptr %0, align 8, !dbg !460
  %61 = trunc i64 %46 to i32, !dbg !461
  %62 = getelementptr inbounds { i64, [768 x i8], i32, i8, [3 x i8] }, ptr %0, i64 0, i32 2, !dbg !462
  %63 = load i32, ptr %62, align 8, !dbg !462, !noundef !18
  %64 = add i32 %63, %61, !dbg !462
  store i32 %64, ptr %62, align 8, !dbg !462
  %65 = icmp eq i64 %59, 0, !dbg !463
  br i1 %65, label %.loopexit, label %.preheader, !dbg !463

.preheader:                                       ; preds = %.loopexit12, %71
  %66 = phi i64 [ %67, %71 ], [ %60, %.loopexit12 ]
  %67 = add nsw i64 %66, -1, !dbg !466
  %68 = getelementptr inbounds { i64, [768 x i8], i32, i8, [3 x i8] }, ptr %0, i64 0, i32 1, i64 %67, !dbg !467
  %69 = load i8, ptr %68, align 1, !dbg !467, !alias.scope !468, !noundef !18
  %70 = icmp eq i8 %69, 0, !dbg !467
  br i1 %70, label %71, label %.loopexit, !dbg !467

71:                                               ; preds = %.preheader
  store i64 %67, ptr %0, align 8, !dbg !471, !alias.scope !468
  %72 = icmp eq i64 %67, 0, !dbg !463
  br i1 %72, label %.loopexit, label %.preheader, !dbg !463

.preheader11:                                     ; preds = %49, %83
  %73 = phi i64 [ %75, %83 ], [ %46, %49 ]
  %74 = phi i64 [ %76, %83 ], [ %94, %49 ]
  %75 = add i64 %73, -1, !dbg !472
  %76 = udiv i64 %74, 10, !dbg !473
  %77 = mul nsw i64 %76, -10, !dbg !474
  %78 = add nsw i64 %77, %74, !dbg !476
  %79 = icmp ult i64 %75, 768, !dbg !477
  br i1 %79, label %85, label %80, !dbg !477

80:                                               ; preds = %.preheader11
  %81 = icmp eq i64 %78, 0, !dbg !479
  br i1 %81, label %83, label %82, !dbg !479

82:                                               ; preds = %80
  store i8 1, ptr %48, align 4, !dbg !480
  br label %83, !dbg !481

83:                                               ; preds = %85, %82, %80
  %84 = icmp ult i64 %74, 10, !dbg !453
  br i1 %84, label %.loopexit12, label %.preheader11, !dbg !453

85:                                               ; preds = %.preheader11
  %86 = getelementptr inbounds { i64, [768 x i8], i32, i8, [3 x i8] }, ptr %0, i64 0, i32 1, i64 %75, !dbg !482
  %87 = trunc i64 %78 to i8, !dbg !482
  store i8 %87, ptr %86, align 1, !dbg !482
  br label %83, !dbg !483

88:                                               ; preds = %51
  %89 = getelementptr inbounds { i64, [768 x i8], i32, i8, [3 x i8] }, ptr %0, i64 0, i32 1, i64 %55, !dbg !456
  %90 = load i8, ptr %89, align 1, !dbg !456, !noundef !18
  %91 = zext i8 %90 to i64, !dbg !484
  %92 = shl i64 %91, %6, !dbg !484
  %93 = add i64 %92, %54, !dbg !485
  %94 = udiv i64 %93, 10, !dbg !486
  %95 = mul i64 %94, -10, !dbg !487
  %96 = add i64 %95, %93, !dbg !489
  %97 = icmp ult i64 %56, 768, !dbg !490
  br i1 %97, label %104, label %99, !dbg !490

98:                                               ; preds = %51
  tail call fastcc void @_ZN4core5slice5index24slice_end_index_len_fail17hfdbe95b016e4b961E() #29, !dbg !456
  unreachable, !dbg !456

99:                                               ; preds = %88
  %100 = icmp eq i64 %96, 0, !dbg !492
  br i1 %100, label %102, label %101, !dbg !492

101:                                              ; preds = %99
  store i8 1, ptr %48, align 4, !dbg !493
  br label %102, !dbg !494

102:                                              ; preds = %104, %101, %99
  %103 = icmp eq i64 %55, 0, !dbg !449
  br i1 %103, label %49, label %51, !dbg !449

104:                                              ; preds = %88
  %105 = getelementptr inbounds { i64, [768 x i8], i32, i8, [3 x i8] }, ptr %0, i64 0, i32 1, i64 %56, !dbg !495
  %106 = trunc i64 %96 to i8, !dbg !495
  store i8 %106, ptr %105, align 1, !dbg !495
  br label %102, !dbg !496
}

; Function Attrs: mustprogress nocallback nofree nosync nounwind speculatable willreturn memory(none)
declare i64 @llvm.umin.i64(i64, i64) #15

; Function Attrs: uwtable
define internal fastcc noundef zeroext i1 @_ZN4core3fmt9Formatter12pad_integral17hf582ed9d1a8c5990E(ptr noalias nocapture noundef align 8 dereferenceable(64) %0, i1 noundef zeroext %1, ptr noalias noundef nonnull readonly align 1 %2, i64 noundef %3, ptr noalias noundef nonnull readonly align 1 %4, i64 noundef %5) unnamed_addr #16 personality ptr @rust_eh_personality !dbg !497 {
  br i1 %1, label %11, label %7, !dbg !500

7:                                                ; preds = %6
  %8 = add i64 %5, 1, !dbg !503
  %9 = getelementptr inbounds { { i64, i64 }, { i64, i64 }, { ptr, ptr }, i32, i32, i8, [7 x i8] }, ptr %0, i64 0, i32 4
  %10 = load i32, ptr %9, align 4, !dbg !504
  br label %19, !dbg !507

11:                                               ; preds = %6
  %12 = getelementptr inbounds { { i64, i64 }, { i64, i64 }, { ptr, ptr }, i32, i32, i8, [7 x i8] }, ptr %0, i64 0, i32 4, !dbg !508
  %13 = load i32, ptr %12, align 4, !dbg !508, !noundef !18
  %14 = and i32 %13, 1, !dbg !508
  %15 = icmp eq i32 %14, 0, !dbg !508
  %16 = select i1 %15, i32 1114112, i32 43, !dbg !511
  %17 = zext nneg i32 %14 to i64, !dbg !511
  %18 = add i64 %17, %5, !dbg !511
  br label %19, !dbg !511

19:                                               ; preds = %11, %7
  %20 = phi i32 [ %10, %7 ], [ %13, %11 ], !dbg !504
  %21 = phi i32 [ 45, %7 ], [ %16, %11 ], !dbg !512
  %22 = phi i64 [ %8, %7 ], [ %18, %11 ], !dbg !513
  %23 = and i32 %20, 4, !dbg !504
  %24 = icmp eq i32 %23, 0, !dbg !504
  br i1 %24, label %38, label %25, !dbg !514

25:                                               ; preds = %19
  %26 = icmp eq i64 %3, 0, !dbg !515
  br i1 %26, label %.loopexit10, label %.preheader, !dbg !559

.preheader:                                       ; preds = %25, %.preheader
  %27 = phi i64 [ %33, %.preheader ], [ 0, %25 ], !dbg !560
  %28 = phi i64 [ %34, %.preheader ], [ 0, %25 ], !dbg !561
  %29 = getelementptr inbounds i8, ptr %2, i64 %28, !dbg !563
  %30 = load i8, ptr %29, align 1, !dbg !575, !alias.scope !576, !noundef !18
  %31 = icmp sgt i8 %30, -65, !dbg !581
  %32 = zext i1 %31 to i64, !dbg !598
  %33 = add i64 %27, %32, !dbg !599
  %34 = add nuw nsw i64 %28, 1, !dbg !603
  %35 = icmp eq i64 %34, %3, !dbg !611
  br i1 %35, label %.loopexit10, label %.preheader, !dbg !611, !llvm.loop !612

.loopexit10:                                      ; preds = %.preheader, %25
  %36 = phi i64 [ 0, %25 ], [ %33, %.preheader ], !dbg !615
  %37 = add i64 %36, %22, !dbg !616
  br label %38, !dbg !617

38:                                               ; preds = %.loopexit10, %19
  %39 = phi ptr [ %2, %.loopexit10 ], [ null, %19 ], !dbg !618
  %40 = phi i64 [ %37, %.loopexit10 ], [ %22, %19 ], !dbg !618
  %41 = load i64, ptr %0, align 8, !dbg !619, !range !25, !noundef !18
  %42 = icmp eq i64 %41, 0, !dbg !621
  br i1 %42, label %43, label %49, !dbg !621

43:                                               ; preds = %38
  %44 = getelementptr inbounds i8, ptr %0, i64 32, !dbg !622
  %45 = load ptr, ptr %44, align 8, !dbg !622
  %46 = getelementptr inbounds i8, ptr %0, i64 40, !dbg !622
  %47 = load ptr, ptr %46, align 8, !dbg !622
  %48 = tail call fastcc noundef zeroext i1 @_ZN4core3fmt9Formatter12pad_integral12write_prefix17h91fd288290cd1315E(ptr %45, ptr %47, i32 noundef %21, ptr noalias noundef readonly align 1 %39, i64 %3), !dbg !622
  br i1 %48, label %.loopexit, label %53, !dbg !622

49:                                               ; preds = %38
  %50 = getelementptr inbounds { i64, i64 }, ptr %0, i64 0, i32 1, !dbg !623
  %51 = load i64, ptr %50, align 8, !dbg !623, !noundef !18
  %52 = icmp ult i64 %40, %51, !dbg !624
  br i1 %52, label %57, label %60, !dbg !624

53:                                               ; preds = %43
  %54 = getelementptr inbounds ptr, ptr %47, i64 3, !dbg !625
  %55 = load ptr, ptr %54, align 8, !dbg !625, !invariant.load !18, !nonnull !18
  %56 = tail call noundef zeroext i1 %55(ptr noundef nonnull align 1 %45, ptr noalias noundef nonnull readonly align 1 %4, i64 noundef %5), !dbg !625
  br label %.loopexit, !dbg !625

57:                                               ; preds = %49
  %58 = and i32 %20, 8, !dbg !626
  %59 = icmp eq i32 %58, 0, !dbg !626
  br i1 %59, label %66, label %92, !dbg !629

60:                                               ; preds = %49
  %61 = getelementptr inbounds i8, ptr %0, i64 32, !dbg !630
  %62 = load ptr, ptr %61, align 8, !dbg !630
  %63 = getelementptr inbounds i8, ptr %0, i64 40, !dbg !630
  %64 = load ptr, ptr %63, align 8, !dbg !630
  %65 = tail call fastcc noundef zeroext i1 @_ZN4core3fmt9Formatter12pad_integral12write_prefix17h91fd288290cd1315E(ptr %62, ptr %64, i32 noundef %21, ptr noalias noundef readonly align 1 %39, i64 %3), !dbg !630
  br i1 %65, label %.loopexit, label %135, !dbg !630

66:                                               ; preds = %57
  %67 = sub i64 %51, %40, !dbg !632
  tail call void @llvm.experimental.noalias.scope.decl(metadata !634), !dbg !637
  %68 = getelementptr inbounds { { i64, i64 }, { i64, i64 }, { ptr, ptr }, i32, i32, i8, [7 x i8] }, ptr %0, i64 0, i32 5, !dbg !638
  %69 = load i8, ptr %68, align 8, !dbg !638, !range !641, !alias.scope !634, !noundef !18
  switch i8 %69, label %default.unreachable9 [
    i8 0, label %75
    i8 1, label %70
    i8 2, label %71
    i8 3, label %70
  ], !dbg !642

default.unreachable9:                             ; preds = %66
  unreachable

70:                                               ; preds = %66, %66
  br label %75, !dbg !643

71:                                               ; preds = %66
  %72 = lshr i64 %67, 1, !dbg !645
  %73 = add i64 %67, 1, !dbg !646
  %74 = lshr i64 %73, 1, !dbg !646
  br label %75, !dbg !647

75:                                               ; preds = %71, %70, %66
  %76 = phi i64 [ %72, %71 ], [ %67, %70 ], [ 0, %66 ], !dbg !648
  %77 = phi i64 [ %74, %71 ], [ 0, %70 ], [ %67, %66 ], !dbg !648
  %78 = getelementptr inbounds { { i64, i64 }, { i64, i64 }, { ptr, ptr }, i32, i32, i8, [7 x i8] }, ptr %0, i64 0, i32 2
  %79 = load ptr, ptr %78, align 8
  %80 = getelementptr inbounds { { i64, i64 }, { i64, i64 }, { ptr, ptr }, i32, i32, i8, [7 x i8] }, ptr %0, i64 0, i32 2, i32 1
  %81 = load ptr, ptr %80, align 8
  %82 = getelementptr inbounds { { i64, i64 }, { i64, i64 }, { ptr, ptr }, i32, i32, i8, [7 x i8] }, ptr %0, i64 0, i32 3
  %83 = load i32, ptr %82, align 8, !range !649, !alias.scope !634
  %84 = getelementptr inbounds ptr, ptr %81, i64 4
  br label %85, !dbg !650

85:                                               ; preds = %88, %75
  %86 = phi i64 [ 0, %75 ], [ %89, %88 ], !dbg !653
  %87 = icmp eq i64 %86, %76, !dbg !654
  br i1 %87, label %102, label %88, !dbg !672

88:                                               ; preds = %85
  %89 = add i64 %86, 1, !dbg !673
  %90 = load ptr, ptr %84, align 8, !dbg !685, !invariant.load !18, !noalias !634, !nonnull !18
  %91 = tail call noundef zeroext i1 %90(ptr noundef nonnull align 1 %79, i32 noundef %83), !dbg !685, !noalias !634
  br i1 %91, label %.loopexit, label %85, !dbg !685

92:                                               ; preds = %57
  %93 = getelementptr inbounds { { i64, i64 }, { i64, i64 }, { ptr, ptr }, i32, i32, i8, [7 x i8] }, ptr %0, i64 0, i32 3, !dbg !686
  %94 = load i32, ptr %93, align 8, !dbg !686, !range !649, !noundef !18
  store i32 48, ptr %93, align 8, !dbg !698
  %95 = getelementptr inbounds { { i64, i64 }, { i64, i64 }, { ptr, ptr }, i32, i32, i8, [7 x i8] }, ptr %0, i64 0, i32 5, !dbg !704
  %96 = load i8, ptr %95, align 8, !dbg !704, !range !641, !noundef !18
  store i8 1, ptr %95, align 8, !dbg !714
  %97 = getelementptr inbounds i8, ptr %0, i64 32, !dbg !720
  %98 = load ptr, ptr %97, align 8, !dbg !720
  %99 = getelementptr inbounds i8, ptr %0, i64 40, !dbg !720
  %100 = load ptr, ptr %99, align 8, !dbg !720
  %101 = tail call fastcc noundef zeroext i1 @_ZN4core3fmt9Formatter12pad_integral12write_prefix17h91fd288290cd1315E(ptr %98, ptr %100, i32 noundef %21, ptr noalias noundef readonly align 1 %39, i64 %3), !dbg !720
  br i1 %101, label %.loopexit, label %120, !dbg !720

102:                                              ; preds = %85
  %103 = tail call fastcc noundef zeroext i1 @_ZN4core3fmt9Formatter12pad_integral12write_prefix17h91fd288290cd1315E(ptr %79, ptr %81, i32 noundef %21, ptr noalias noundef readonly align 1 %39, i64 %3), !dbg !722
  br i1 %103, label %.loopexit, label %104, !dbg !722

104:                                              ; preds = %102
  %105 = getelementptr inbounds ptr, ptr %81, i64 3, !dbg !724
  %106 = load ptr, ptr %105, align 8, !dbg !724, !invariant.load !18, !nonnull !18
  %107 = tail call noundef zeroext i1 %106(ptr noundef nonnull align 1 %79, ptr noalias noundef nonnull readonly align 1 %4, i64 noundef %5), !dbg !724
  br i1 %107, label %.loopexit, label %108, !dbg !724

108:                                              ; preds = %104
  %109 = icmp ne ptr %79, null
  br label %110, !dbg !725

110:                                              ; preds = %113, %108
  %111 = phi i64 [ 0, %108 ], [ %114, %113 ], !dbg !730
  %112 = icmp eq i64 %111, %77, !dbg !731
  br i1 %112, label %117, label %113, !dbg !741

113:                                              ; preds = %110
  %114 = add i64 %111, 1, !dbg !742
  tail call void @llvm.assume(i1 %109)
  %115 = load ptr, ptr %84, align 8, !dbg !747, !invariant.load !18, !nonnull !18
  %116 = tail call noundef zeroext i1 %115(ptr noundef nonnull align 1 %79, i32 noundef %83), !dbg !747
  br i1 %116, label %117, label %110, !dbg !747

117:                                              ; preds = %113, %110
  %118 = phi i64 [ %77, %110 ], [ %111, %113 ], !dbg !730
  %119 = icmp ult i64 %118, %77, !dbg !731
  br label %.loopexit, !dbg !748

120:                                              ; preds = %92
  %121 = sub i64 %51, %40, !dbg !749
  %122 = getelementptr inbounds ptr, ptr %100, i64 4
  br label %123, !dbg !750

123:                                              ; preds = %126, %120
  %124 = phi i64 [ 0, %120 ], [ %127, %126 ], !dbg !752
  %125 = icmp eq i64 %124, %121, !dbg !753
  br i1 %125, label %130, label %126, !dbg !757

126:                                              ; preds = %123
  %127 = add i64 %124, 1, !dbg !758
  %128 = load ptr, ptr %122, align 8, !dbg !761, !invariant.load !18, !noalias !762, !nonnull !18
  %129 = tail call noundef zeroext i1 %128(ptr noundef nonnull align 1 %98, i32 noundef 48), !dbg !761, !noalias !762
  br i1 %129, label %.loopexit, label %123, !dbg !761

130:                                              ; preds = %123
  %131 = getelementptr inbounds ptr, ptr %100, i64 3, !dbg !765
  %132 = load ptr, ptr %131, align 8, !dbg !765, !invariant.load !18, !nonnull !18
  %133 = tail call noundef zeroext i1 %132(ptr noundef nonnull align 1 %98, ptr noalias noundef nonnull readonly align 1 %4, i64 noundef %5), !dbg !765
  br i1 %133, label %.loopexit, label %134, !dbg !765

134:                                              ; preds = %130
  store i32 %94, ptr %93, align 8, !dbg !767
  store i8 %96, ptr %95, align 8, !dbg !768
  br label %.loopexit, !dbg !769

135:                                              ; preds = %60
  %136 = getelementptr inbounds ptr, ptr %64, i64 3, !dbg !770
  %137 = load ptr, ptr %136, align 8, !dbg !770, !invariant.load !18, !nonnull !18
  %138 = tail call noundef zeroext i1 %137(ptr noundef nonnull align 1 %62, ptr noalias noundef nonnull readonly align 1 %4, i64 noundef %5), !dbg !770
  br label %.loopexit, !dbg !771

.loopexit:                                        ; preds = %126, %88, %135, %134, %130, %117, %104, %102, %92, %60, %53, %43
  %139 = phi i1 [ %138, %135 ], [ false, %134 ], [ %119, %117 ], [ %56, %53 ], [ true, %43 ], [ true, %102 ], [ true, %104 ], [ true, %92 ], [ true, %130 ], [ true, %60 ], [ true, %88 ], [ true, %126 ]
  ret i1 %139, !dbg !772
}

; Function Attrs: noinline uwtable
define internal fastcc noundef zeroext i1 @_ZN4core3fmt9Formatter12pad_integral12write_prefix17h91fd288290cd1315E(ptr %0, ptr readonly %1, i32 noundef %2, ptr noalias noundef readonly align 1 %3, i64 %4) unnamed_addr #17 !dbg !773 {
  %6 = icmp eq i32 %2, 1114112, !dbg !776
  br i1 %6, label %13, label %7, !dbg !776

7:                                                ; preds = %5
  %8 = icmp ne ptr %0, null
  tail call void @llvm.assume(i1 %8)
  %9 = icmp ne ptr %1, null
  tail call void @llvm.assume(i1 %9)
  %10 = getelementptr inbounds ptr, ptr %1, i64 4, !dbg !778
  %11 = load ptr, ptr %10, align 8, !dbg !778, !invariant.load !18, !nonnull !18
  %12 = tail call noundef zeroext i1 %11(ptr noundef nonnull align 1 %0, i32 noundef %2), !dbg !778
  br i1 %12, label %15, label %13, !dbg !778

13:                                               ; preds = %7, %5
  %14 = icmp eq ptr %3, null, !dbg !779
  br i1 %14, label %15, label %17, !dbg !779

15:                                               ; preds = %17, %13, %7
  %16 = phi i1 [ %22, %17 ], [ true, %7 ], [ false, %13 ]
  ret i1 %16, !dbg !781

17:                                               ; preds = %13
  %18 = icmp ne ptr %0, null
  tail call void @llvm.assume(i1 %18)
  %19 = icmp ne ptr %1, null
  tail call void @llvm.assume(i1 %19)
  %20 = getelementptr inbounds ptr, ptr %1, i64 3, !dbg !782
  %21 = load ptr, ptr %20, align 8, !dbg !782, !invariant.load !18, !nonnull !18
  %22 = tail call noundef zeroext i1 %21(ptr noundef nonnull align 1 %0, ptr noalias noundef nonnull readonly align 1 %3, i64 noundef %4), !dbg !782
  br label %15, !dbg !782
}

; Function Attrs: mustprogress nocallback nofree nosync nounwind willreturn memory(inaccessiblemem: write)
declare void @llvm.assume(i1 noundef) #18

; Function Attrs: nofree norecurse nosync nounwind memory(argmem: readwrite) uwtable
define internal fastcc void @_ZN4core3num7dec2flt7decimal7Decimal11right_shift17h9c89549016994516E(ptr noalias nocapture noundef align 8 dereferenceable(784) %0, i64 noundef %1) unnamed_addr #19 !dbg !783 {
  %3 = and i64 %1, 63
  %4 = load i64, ptr %0, align 8, !noundef !18
  br label %5, !dbg !784

5:                                                ; preds = %30, %2
  %6 = phi i64 [ 0, %2 ], [ %36, %30 ]
  %7 = phi i64 [ 0, %2 ], [ %35, %30 ]
  %8 = icmp eq i64 %6, %4, !dbg !788
  br i1 %8, label %9, label %14, !dbg !788

9:                                                ; preds = %5
  %10 = icmp eq i64 %7, 0, !dbg !789
  br i1 %10, label %.loopexit, label %11, !dbg !789

11:                                               ; preds = %9
  %12 = lshr i64 %7, %3, !dbg !790
  %13 = icmp eq i64 %12, 0, !dbg !790
  br i1 %13, label %.preheader16, label %.loopexit17, !dbg !790

14:                                               ; preds = %5
  %15 = icmp eq i64 %6, 768, !dbg !791
  br i1 %15, label %39, label %30, !dbg !791, !prof !441

.preheader16:                                     ; preds = %11, %.preheader16
  %16 = phi i64 [ %19, %.preheader16 ], [ %4, %11 ]
  %17 = phi i64 [ %18, %.preheader16 ], [ %7, %11 ]
  %18 = mul i64 %17, 10, !dbg !792
  %19 = add i64 %16, 1, !dbg !793
  %20 = lshr i64 %18, %3, !dbg !790
  %21 = icmp eq i64 %20, 0, !dbg !790
  br i1 %21, label %.preheader16, label %.loopexit17, !dbg !790

.loopexit17:                                      ; preds = %30, %.preheader16, %11
  %22 = phi i64 [ %7, %11 ], [ %18, %.preheader16 ], [ %35, %30 ], !dbg !794
  %23 = phi i64 [ %4, %11 ], [ %19, %.preheader16 ], [ %36, %30 ], !dbg !795
  %24 = trunc i64 %23 to i32, !dbg !796
  %25 = getelementptr inbounds { i64, [768 x i8], i32, i8, [3 x i8] }, ptr %0, i64 0, i32 2, !dbg !797
  %26 = load i32, ptr %25, align 8, !dbg !797, !noundef !18
  %27 = sub i32 %26, %24, !dbg !797
  %28 = add i32 %27, 1, !dbg !797
  store i32 %28, ptr %25, align 8, !dbg !797
  %29 = icmp slt i32 %28, -2047, !dbg !798
  br i1 %29, label %47, label %40, !dbg !798

30:                                               ; preds = %14
  %31 = mul i64 %7, 10, !dbg !799
  %32 = getelementptr inbounds { i64, [768 x i8], i32, i8, [3 x i8] }, ptr %0, i64 0, i32 1, i64 %6, !dbg !791
  %33 = load i8, ptr %32, align 1, !dbg !791, !noundef !18
  %34 = zext i8 %33 to i64, !dbg !791
  %35 = add i64 %31, %34, !dbg !800
  %36 = add nuw nsw i64 %6, 1, !dbg !801
  %37 = lshr i64 %35, %3, !dbg !784
  %38 = icmp eq i64 %37, 0, !dbg !784
  br i1 %38, label %5, label %.loopexit17, !dbg !784

39:                                               ; preds = %14
  tail call fastcc void @_ZN4core5slice5index24slice_end_index_len_fail17hfdbe95b016e4b961E() #29, !dbg !791
  unreachable, !dbg !791

40:                                               ; preds = %.loopexit17
  %41 = shl nsw i64 -1, %3, !dbg !802
  %42 = xor i64 %41, -1, !dbg !802
  %43 = icmp ult i64 %23, %4, !dbg !803
  br i1 %43, label %44, label %.thread, !dbg !803

44:                                               ; preds = %40
  %45 = tail call i64 @llvm.usub.sat.i64(i64 768, i64 %23), !dbg !805
  %46 = sub i64 %4, %23, !dbg !805
  br label %56, !dbg !805

47:                                               ; preds = %.loopexit17
  store i64 0, ptr %0, align 8, !dbg !807
  store i32 0, ptr %25, align 8, !dbg !808
  %48 = getelementptr inbounds { i64, [768 x i8], i32, i8, [3 x i8] }, ptr %0, i64 0, i32 3, !dbg !809
  store i8 0, ptr %48, align 4, !dbg !809
  br label %.loopexit, !dbg !810

49:                                               ; preds = %89
  %50 = icmp eq i64 %98, 0, !dbg !813
  br i1 %50, label %.loopexit15, label %52, !dbg !813

.thread:                                          ; preds = %40
  %51 = icmp eq i64 %22, 0, !dbg !813
  br i1 %51, label %.thread15, label %52, !dbg !813

.thread15:                                        ; preds = %.thread
  store i64 0, ptr %0, align 8, !dbg !814
  br label %.loopexit, !dbg !815

52:                                               ; preds = %.thread, %49
  %53 = phi i64 [ 0, %.thread ], [ %46, %49 ]
  %54 = phi i64 [ %22, %.thread ], [ %98, %49 ]
  %55 = getelementptr inbounds { i64, [768 x i8], i32, i8, [3 x i8] }, ptr %0, i64 0, i32 3
  br label %71, !dbg !813

56:                                               ; preds = %89, %44
  %57 = phi i64 [ %92, %89 ], [ %23, %44 ]
  %58 = phi i64 [ %100, %89 ], [ 0, %44 ]
  %59 = phi i64 [ %98, %89 ], [ %22, %44 ]
  %60 = icmp eq i64 %58, %45, !dbg !805
  br i1 %60, label %88, label %89, !dbg !805, !prof !441

.loopexit15:                                      ; preds = %82, %49
  %61 = phi i64 [ %46, %49 ], [ %83, %82 ]
  store i64 %61, ptr %0, align 8, !dbg !814
  %62 = icmp ult i64 %61, 769, !dbg !817
  br i1 %62, label %.preheader, label %70, !dbg !817, !prof !457

.preheader:                                       ; preds = %.loopexit15, %68
  %63 = phi i64 [ %64, %68 ], [ %61, %.loopexit15 ]
  %64 = add i64 %63, -1, !dbg !818
  %65 = getelementptr inbounds { i64, [768 x i8], i32, i8, [3 x i8] }, ptr %0, i64 0, i32 1, i64 %64, !dbg !817
  %66 = load i8, ptr %65, align 1, !dbg !817, !alias.scope !819, !noundef !18
  %67 = icmp eq i8 %66, 0, !dbg !817
  br i1 %67, label %68, label %.loopexit, !dbg !817

68:                                               ; preds = %.preheader
  store i64 %64, ptr %0, align 8, !dbg !822, !alias.scope !819
  %69 = icmp eq i64 %64, 0, !dbg !815
  br i1 %69, label %.loopexit, label %.preheader, !dbg !815

70:                                               ; preds = %.loopexit15
  tail call fastcc void @_ZN4core5slice5index24slice_end_index_len_fail17hfdbe95b016e4b961E() #29, !dbg !817
  unreachable, !dbg !817

71:                                               ; preds = %82, %52
  %72 = phi i64 [ %53, %52 ], [ %83, %82 ]
  %73 = phi i64 [ %54, %52 ], [ %77, %82 ]
  %74 = lshr i64 %73, %3, !dbg !823
  %75 = trunc i64 %74 to i8, !dbg !823
  %76 = and i64 %73, %42, !dbg !824
  %77 = mul i64 %76, 10, !dbg !826
  %78 = icmp ult i64 %72, 768, !dbg !827
  br i1 %78, label %85, label %79, !dbg !827

.loopexit:                                        ; preds = %68, %.preheader, %.thread15, %47, %9
  ret void, !dbg !828

79:                                               ; preds = %71
  %80 = icmp eq i8 %75, 0, !dbg !829
  br i1 %80, label %82, label %81, !dbg !829

81:                                               ; preds = %79
  store i8 1, ptr %55, align 4, !dbg !830
  br label %82, !dbg !831

82:                                               ; preds = %85, %81, %79
  %83 = phi i64 [ %87, %85 ], [ %72, %81 ], [ %72, %79 ], !dbg !832
  %84 = icmp eq i64 %77, 0, !dbg !813
  br i1 %84, label %.loopexit15, label %71, !dbg !813

85:                                               ; preds = %71
  %86 = getelementptr inbounds { i64, [768 x i8], i32, i8, [3 x i8] }, ptr %0, i64 0, i32 1, i64 %72, !dbg !833
  store i8 %75, ptr %86, align 1, !dbg !833
  %87 = add nuw nsw i64 %72, 1, !dbg !834
  br label %82, !dbg !835

88:                                               ; preds = %56
  tail call fastcc void @_ZN4core5slice5index24slice_end_index_len_fail17hfdbe95b016e4b961E() #29, !dbg !805
  unreachable, !dbg !805

89:                                               ; preds = %56
  %90 = lshr i64 %59, %3, !dbg !836
  %91 = trunc i64 %90 to i8, !dbg !836
  %92 = add nuw nsw i64 %57, 1, !dbg !837
  %93 = and i64 %59, %42, !dbg !838
  %94 = mul i64 %93, 10, !dbg !839
  %95 = getelementptr inbounds { i64, [768 x i8], i32, i8, [3 x i8] }, ptr %0, i64 0, i32 1, i64 %57, !dbg !805
  %96 = load i8, ptr %95, align 1, !dbg !805, !noundef !18
  %97 = zext i8 %96 to i64, !dbg !805
  %98 = add i64 %94, %97, !dbg !840
  %99 = getelementptr inbounds { i64, [768 x i8], i32, i8, [3 x i8] }, ptr %0, i64 0, i32 1, i64 %58, !dbg !841
  store i8 %91, ptr %99, align 1, !dbg !841
  %100 = add nuw nsw i64 %58, 1, !dbg !842
  %101 = icmp eq i64 %100, %46, !dbg !803
  br i1 %101, label %49, label %56, !dbg !803
}

; Function Attrs: mustprogress nocallback nofree nosync nounwind speculatable willreturn memory(none)
declare i64 @llvm.usub.sat.i64(i64, i64) #15

; Function Attrs: cold nofree noinline norecurse noreturn nosync nounwind memory(none) uwtable
define internal fastcc void @_ZN4core5slice5index24slice_end_index_len_fail17hfdbe95b016e4b961E() unnamed_addr #12 !dbg !843 {
  tail call fastcc void @_ZN4core9panicking9panic_fmt17h10bd3bfe5bb30d67E() #29, !dbg !844
  unreachable, !dbg !844
}

; Function Attrs: mustprogress nocallback nofree nosync nounwind speculatable willreturn memory(none)
declare i8 @llvm.usub.sat.i8(i8, i8) #15

; Function Attrs: cold nofree noinline norecurse noreturn nosync nounwind memory(none) uwtable
define internal fastcc void @_ZN4core9panicking5panic17hca9af9b940213a79E() unnamed_addr #12 !dbg !849 {
  tail call fastcc void @_ZN4core9panicking9panic_fmt17h10bd3bfe5bb30d67E() #29, !dbg !850
  unreachable, !dbg !850
}

; Function Attrs: cold nofree noinline norecurse noreturn nosync nounwind memory(none) uwtable
define internal fastcc void @_ZN4core9panicking13assert_failed17h6ca055d4d7de3296E() unnamed_addr #12 !dbg !851 {
  tail call fastcc void @_ZN4core9panicking19assert_failed_inner17h831d6c5898287e00E() #29, !dbg !852
  unreachable, !dbg !852
}

; Function Attrs: cold nofree noinline norecurse noreturn nosync nounwind memory(none) uwtable
define internal fastcc void @_ZN4core9panicking19assert_failed_inner17h831d6c5898287e00E() unnamed_addr #12 !dbg !853 {
  tail call fastcc void @_ZN4core9panicking9panic_fmt17h10bd3bfe5bb30d67E() #29, !dbg !854
  unreachable, !dbg !854
}

; Function Attrs: uwtable
define internal fastcc noundef zeroext i1 @_ZN4core3fmt5write17he9fa43146d420946E(ptr noundef nonnull align 1 %0, ptr noalias noundef readonly align 8 dereferenceable(24) %1, ptr noalias nocapture noundef readonly align 8 dereferenceable(48) %2) unnamed_addr #16 personality ptr @rust_eh_personality !dbg !856 {
  %4 = alloca { { i64, i64 }, { i64, i64 }, { ptr, ptr }, i32, i32, i8, [7 x i8] }, align 8
  call void @llvm.lifetime.start.p0(i64 64, ptr nonnull %4), !dbg !857
  %5 = getelementptr inbounds { { i64, i64 }, { i64, i64 }, { ptr, ptr }, i32, i32, i8, [7 x i8] }, ptr %4, i64 0, i32 3, !dbg !858
  store <2 x i32> <i32 32, i32 0>, ptr %5, align 8, !dbg !858, !alias.scope !861, !noalias !864
  %6 = getelementptr inbounds { { i64, i64 }, { i64, i64 }, { ptr, ptr }, i32, i32, i8, [7 x i8] }, ptr %4, i64 0, i32 5, !dbg !858
  store i8 3, ptr %6, align 8, !dbg !858, !alias.scope !861, !noalias !864
  store i64 0, ptr %4, align 8, !dbg !858, !alias.scope !861, !noalias !864
  %7 = getelementptr inbounds { { i64, i64 }, { i64, i64 }, { ptr, ptr }, i32, i32, i8, [7 x i8] }, ptr %4, i64 0, i32 1, !dbg !858
  store i64 0, ptr %7, align 8, !dbg !858, !alias.scope !861, !noalias !864
  %8 = getelementptr inbounds { { i64, i64 }, { i64, i64 }, { ptr, ptr }, i32, i32, i8, [7 x i8] }, ptr %4, i64 0, i32 2, !dbg !858
  store ptr %0, ptr %8, align 8, !dbg !858, !alias.scope !861, !noalias !864
  %9 = getelementptr inbounds { { i64, i64 }, { i64, i64 }, { ptr, ptr }, i32, i32, i8, [7 x i8] }, ptr %4, i64 0, i32 2, i32 1, !dbg !858
  store ptr %1, ptr %9, align 8, !dbg !858, !alias.scope !861, !noalias !864
  %10 = getelementptr inbounds { { ptr, i64 }, { ptr, i64 }, { ptr, i64 } }, ptr %2, i64 0, i32 2, !dbg !866
  %11 = load ptr, ptr %10, align 8, !dbg !866, !noundef !18
  %12 = icmp eq ptr %11, null, !dbg !866
  br i1 %12, label %13, label %25, !dbg !869

13:                                               ; preds = %3
  %14 = getelementptr inbounds { { ptr, i64 }, { ptr, i64 }, { ptr, i64 } }, ptr %2, i64 0, i32 1, !dbg !870
  %15 = load ptr, ptr %14, align 8, !dbg !870, !nonnull !18, !align !871, !noundef !18
  %16 = getelementptr inbounds { { ptr, i64 }, { ptr, i64 }, { ptr, i64 } }, ptr %2, i64 0, i32 1, i32 1, !dbg !870
  %17 = load i64, ptr %16, align 8, !dbg !870, !noundef !18
  %18 = getelementptr inbounds { ptr, ptr }, ptr %15, i64 %17, !dbg !872
  %19 = icmp eq i64 %17, 0, !dbg !885
  br i1 %19, label %.loopexit8, label %20, !dbg !897

20:                                               ; preds = %13
  %21 = load ptr, ptr %2, align 8, !nonnull !18, !align !871, !noundef !18
  %22 = add i64 %17, 1152921504606846975, !dbg !897
  %23 = and i64 %22, 1152921504606846975, !dbg !897
  %24 = add nuw nsw i64 %23, 1, !dbg !897
  br label %39, !dbg !897

25:                                               ; preds = %3
  %26 = getelementptr inbounds { { ptr, i64 }, { ptr, i64 }, { ptr, i64 } }, ptr %2, i64 0, i32 2, i32 1, !dbg !898
  %27 = load i64, ptr %26, align 8, !dbg !898, !noundef !18
  %28 = getelementptr inbounds { { i64, i64 }, { i64, i64 }, i64, i32, i32, i8, [7 x i8] }, ptr %11, i64 %27, !dbg !899
  %29 = icmp eq i64 %27, 0, !dbg !913
  br i1 %29, label %.loopexit8, label %30, !dbg !925

30:                                               ; preds = %25
  %31 = load ptr, ptr %2, align 8, !nonnull !18, !align !871, !noundef !18
  %32 = getelementptr inbounds { { ptr, i64 }, { ptr, i64 }, { ptr, i64 } }, ptr %2, i64 0, i32 1
  %33 = load ptr, ptr %32, align 8, !nonnull !18, !align !871
  %34 = getelementptr inbounds { i64, i64 }, ptr %4, i64 0, i32 1
  %35 = getelementptr inbounds { { i64, i64 }, { i64, i64 }, { ptr, ptr }, i32, i32, i8, [7 x i8] }, ptr %4, i64 0, i32 1, i32 1
  %36 = add i64 %27, 2305843009213693951, !dbg !925
  %37 = and i64 %36, 2305843009213693951, !dbg !925
  %38 = add nuw nsw i64 %37, 1, !dbg !925
  br label %66, !dbg !925

39:                                               ; preds = %64, %20
  %40 = phi i64 [ 0, %20 ], [ %43, %64 ]
  %41 = phi ptr [ %15, %20 ], [ %42, %64 ]
  %42 = getelementptr inbounds { ptr, ptr }, ptr %41, i64 1, !dbg !926
  %43 = add nuw nsw i64 %40, 1, !dbg !942
  %44 = getelementptr inbounds { ptr, i64 }, ptr %21, i64 %40, i32 1, !dbg !945
  %45 = load i64, ptr %44, align 8, !dbg !945, !noundef !18
  %46 = icmp eq i64 %45, 0, !dbg !945
  br i1 %46, label %59, label %51, !dbg !945

.loopexit8:                                       ; preds = %139, %64, %25, %13
  %47 = phi i64 [ 0, %13 ], [ 0, %25 ], [ %24, %64 ], [ %38, %139 ], !dbg !946
  %48 = getelementptr inbounds { ptr, i64 }, ptr %2, i64 0, i32 1, !dbg !947
  %49 = load i64, ptr %48, align 8, !dbg !947, !noundef !18
  %50 = icmp ult i64 %47, %49, !dbg !949
  br i1 %50, label %74, label %85, !dbg !957

51:                                               ; preds = %39
  %52 = getelementptr inbounds { ptr, i64 }, ptr %21, i64 %40, !dbg !958
  %53 = load ptr, ptr %8, align 8, !dbg !973, !nonnull !18, !align !31, !noundef !18
  %54 = load ptr, ptr %9, align 8, !dbg !973, !nonnull !18, !align !871, !noundef !18
  %55 = load ptr, ptr %52, align 8, !dbg !974, !nonnull !18, !align !31, !noundef !18
  %56 = getelementptr inbounds ptr, ptr %54, i64 3, !dbg !973
  %57 = load ptr, ptr %56, align 8, !dbg !973, !invariant.load !18, !nonnull !18
  %58 = call noundef zeroext i1 %57(ptr noundef nonnull align 1 %53, ptr noalias noundef nonnull readonly align 1 %55, i64 noundef %45), !dbg !973
  br i1 %58, label %.loopexit, label %59, !dbg !973

59:                                               ; preds = %51, %39
  %60 = getelementptr inbounds { ptr, ptr }, ptr %41, i64 0, i32 1, !dbg !975
  %61 = load ptr, ptr %60, align 8, !dbg !975, !nonnull !18, !noundef !18
  %62 = load ptr, ptr %41, align 8, !dbg !980, !nonnull !18, !align !31, !noundef !18
  %63 = call noundef zeroext i1 %61(ptr noundef nonnull align 1 %62, ptr noalias noundef nonnull align 8 dereferenceable(64) %4), !dbg !975
  br i1 %63, label %.loopexit, label %64, !dbg !981

64:                                               ; preds = %59
  %65 = icmp eq ptr %42, %18, !dbg !885
  br i1 %65, label %.loopexit8, label %39, !dbg !897

.loopexit:                                        ; preds = %129, %88, %59, %51, %74
  call void @llvm.lifetime.end.p0(i64 64, ptr nonnull %4), !dbg !982
  br label %86, !dbg !983

66:                                               ; preds = %139, %30
  %67 = phi i64 [ 0, %30 ], [ %70, %139 ]
  %68 = phi ptr [ %11, %30 ], [ %69, %139 ]
  %69 = getelementptr inbounds { { i64, i64 }, { i64, i64 }, i64, i32, i32, i8, [7 x i8] }, ptr %68, i64 1, !dbg !984
  %70 = add nuw nsw i64 %67, 1, !dbg !1000
  %71 = getelementptr inbounds { ptr, i64 }, ptr %31, i64 %67, i32 1, !dbg !1003
  %72 = load i64, ptr %71, align 8, !dbg !1003, !noundef !18
  %73 = icmp eq i64 %72, 0, !dbg !1003
  br i1 %73, label %96, label %88, !dbg !1003

74:                                               ; preds = %.loopexit8
  %75 = load ptr, ptr %2, align 8, !dbg !949, !nonnull !18, !align !871
  %76 = getelementptr inbounds { ptr, i64 }, ptr %75, i64 %47, !dbg !949
  %77 = load ptr, ptr %8, align 8, !dbg !1004, !nonnull !18, !align !31, !noundef !18
  %78 = load ptr, ptr %9, align 8, !dbg !1004, !nonnull !18, !align !871, !noundef !18
  %79 = load ptr, ptr %76, align 8, !dbg !1005, !nonnull !18, !align !31, !noundef !18
  %80 = getelementptr inbounds { ptr, i64 }, ptr %75, i64 %47, i32 1, !dbg !1005
  %81 = load i64, ptr %80, align 8, !dbg !1005, !noundef !18
  %82 = getelementptr inbounds ptr, ptr %78, i64 3, !dbg !1004
  %83 = load ptr, ptr %82, align 8, !dbg !1004, !invariant.load !18, !nonnull !18
  %84 = call noundef zeroext i1 %83(ptr noundef nonnull align 1 %77, ptr noalias noundef nonnull readonly align 1 %79, i64 noundef %81), !dbg !1004
  br i1 %84, label %.loopexit, label %85, !dbg !1004

85:                                               ; preds = %74, %.loopexit8
  call void @llvm.lifetime.end.p0(i64 64, ptr nonnull %4), !dbg !982
  br label %86, !dbg !983

86:                                               ; preds = %85, %.loopexit
  %87 = phi i1 [ true, %.loopexit ], [ false, %85 ]
  ret i1 %87, !dbg !983

88:                                               ; preds = %66
  %89 = getelementptr inbounds { ptr, i64 }, ptr %31, i64 %67, !dbg !1006
  %90 = load ptr, ptr %8, align 8, !dbg !1018, !nonnull !18, !align !31, !noundef !18
  %91 = load ptr, ptr %9, align 8, !dbg !1018, !nonnull !18, !align !871, !noundef !18
  %92 = load ptr, ptr %89, align 8, !dbg !1019, !nonnull !18, !align !31, !noundef !18
  %93 = getelementptr inbounds ptr, ptr %91, i64 3, !dbg !1018
  %94 = load ptr, ptr %93, align 8, !dbg !1018, !invariant.load !18, !nonnull !18
  %95 = call noundef zeroext i1 %94(ptr noundef nonnull align 1 %90, ptr noalias noundef nonnull readonly align 1 %92, i64 noundef %72), !dbg !1018
  br i1 %95, label %.loopexit, label %96, !dbg !1018

96:                                               ; preds = %88, %66
  call void @llvm.experimental.noalias.scope.decl(metadata !1020), !dbg !1023
  call void @llvm.experimental.noalias.scope.decl(metadata !1025), !dbg !1023
  call void @llvm.experimental.noalias.scope.decl(metadata !1027), !dbg !1023
  %97 = getelementptr inbounds { { i64, i64 }, { i64, i64 }, i64, i32, i32, i8, [7 x i8] }, ptr %68, i64 0, i32 3, !dbg !1029
  %98 = getelementptr inbounds { { i64, i64 }, { i64, i64 }, i64, i32, i32, i8, [7 x i8] }, ptr %68, i64 0, i32 5, !dbg !1032
  %99 = load i8, ptr %98, align 8, !dbg !1032, !range !641, !alias.scope !1025, !noalias !1033, !noundef !18
  store i8 %99, ptr %6, align 8, !dbg !1034, !alias.scope !1020, !noalias !1035
  %100 = load <2 x i32>, ptr %97, align 8, !dbg !1029, !alias.scope !1025, !noalias !1033
  store <2 x i32> %100, ptr %5, align 8, !dbg !1036, !alias.scope !1020, !noalias !1035
  %101 = getelementptr inbounds { { i64, i64 }, { i64, i64 }, i64, i32, i32, i8, [7 x i8] }, ptr %68, i64 0, i32 1, !dbg !1037
  %102 = load i64, ptr %101, align 8, !dbg !1039, !range !1040, !alias.scope !1025, !noalias !1033, !noundef !18
  %103 = getelementptr inbounds { { i64, i64 }, { i64, i64 }, i64, i32, i32, i8, [7 x i8] }, ptr %68, i64 0, i32 1, i32 1, !dbg !1039
  %104 = load i64, ptr %103, align 8, !dbg !1039, !alias.scope !1025, !noalias !1033
  call void @llvm.experimental.noalias.scope.decl(metadata !1041), !dbg !1039
  switch i64 %102, label %default.unreachable12 [
    i64 0, label %105
    i64 1, label %106
    i64 2, label %114
  ], !dbg !1044

default.unreachable12:                            ; preds = %114, %96
  unreachable

105:                                              ; preds = %96
  br label %114, !dbg !1047

106:                                              ; preds = %96
  %107 = getelementptr inbounds { ptr, ptr }, ptr %33, i64 %104, i32 1, !dbg !1048
  %108 = load ptr, ptr %107, align 8, !dbg !1048, !alias.scope !1054, !noalias !1055, !nonnull !18, !noundef !18
  %109 = icmp eq ptr %108, @_ZN4core3ops8function6FnOnce9call_once17h327a852a215e42d7E, !dbg !1048
  br i1 %109, label %110, label %114, !dbg !1048

110:                                              ; preds = %106
  %111 = getelementptr inbounds { ptr, ptr }, ptr %33, i64 %104, !dbg !1056
  %112 = load ptr, ptr %111, align 8, !dbg !1070, !alias.scope !1054, !noalias !1055, !nonnull !18, !align !31, !noundef !18
  %113 = load i64, ptr %112, align 8, !dbg !1072, !noalias !1073, !noundef !18
  br label %114, !dbg !1074

114:                                              ; preds = %110, %106, %105, %96
  %115 = phi i64 [ %113, %110 ], [ %104, %105 ], [ undef, %96 ], [ undef, %106 ]
  %116 = phi i64 [ 1, %110 ], [ 1, %105 ], [ 0, %96 ], [ 0, %106 ], !dbg !1075
  store i64 %116, ptr %4, align 8, !dbg !1076, !alias.scope !1020, !noalias !1035
  store i64 %115, ptr %34, align 8, !dbg !1076, !alias.scope !1020, !noalias !1035
  %117 = load i64, ptr %68, align 8, !dbg !1077, !range !1040, !alias.scope !1025, !noalias !1033, !noundef !18
  %118 = getelementptr inbounds i8, ptr %68, i64 8, !dbg !1077
  %119 = load i64, ptr %118, align 8, !dbg !1077, !alias.scope !1025, !noalias !1033
  call void @llvm.experimental.noalias.scope.decl(metadata !1078), !dbg !1077
  switch i64 %117, label %default.unreachable12 [
    i64 0, label %120
    i64 1, label %121
    i64 2, label %129
  ], !dbg !1081

120:                                              ; preds = %114
  br label %129, !dbg !1083

121:                                              ; preds = %114
  %122 = getelementptr inbounds { ptr, ptr }, ptr %33, i64 %119, i32 1, !dbg !1084
  %123 = load ptr, ptr %122, align 8, !dbg !1084, !alias.scope !1086, !noalias !1055, !nonnull !18, !noundef !18
  %124 = icmp eq ptr %123, @_ZN4core3ops8function6FnOnce9call_once17h327a852a215e42d7E, !dbg !1084
  br i1 %124, label %125, label %129, !dbg !1084

125:                                              ; preds = %121
  %126 = getelementptr inbounds { ptr, ptr }, ptr %33, i64 %119, !dbg !1087
  %127 = load ptr, ptr %126, align 8, !dbg !1091, !alias.scope !1086, !noalias !1055, !nonnull !18, !align !31, !noundef !18
  %128 = load i64, ptr %127, align 8, !dbg !1092, !noalias !1093, !noundef !18
  br label %129, !dbg !1094

129:                                              ; preds = %125, %121, %120, %114
  %130 = phi i64 [ %128, %125 ], [ %119, %120 ], [ undef, %114 ], [ undef, %121 ]
  %131 = phi i64 [ 1, %125 ], [ 1, %120 ], [ 0, %114 ], [ 0, %121 ], !dbg !1095
  store i64 %131, ptr %7, align 8, !dbg !1096, !alias.scope !1020, !noalias !1035
  store i64 %130, ptr %35, align 8, !dbg !1096, !alias.scope !1020, !noalias !1035
  %132 = getelementptr inbounds { { i64, i64 }, { i64, i64 }, i64, i32, i32, i8, [7 x i8] }, ptr %68, i64 0, i32 2, !dbg !1097
  %133 = load i64, ptr %132, align 8, !dbg !1097, !alias.scope !1025, !noalias !1033, !noundef !18
  %134 = getelementptr inbounds { ptr, ptr }, ptr %33, i64 %133, !dbg !1099
  %135 = getelementptr inbounds { ptr, ptr }, ptr %33, i64 %133, i32 1, !dbg !1113
  %136 = load ptr, ptr %135, align 8, !dbg !1113, !alias.scope !1027, !noalias !1055, !nonnull !18, !noundef !18
  %137 = load ptr, ptr %134, align 8, !dbg !1118, !alias.scope !1027, !noalias !1055, !nonnull !18, !align !31, !noundef !18
  %138 = call noundef zeroext i1 %136(ptr noundef nonnull align 1 %137, ptr noalias noundef nonnull align 8 dereferenceable(64) %4), !dbg !1113, !noalias !1035
  br i1 %138, label %.loopexit, label %139, !dbg !1119

139:                                              ; preds = %129
  %140 = icmp eq ptr %69, %28, !dbg !913
  br i1 %140, label %.loopexit8, label %66, !dbg !925
}

; Function Attrs: mustprogress nocallback nofree nosync nounwind speculatable willreturn memory(none)
declare i64 @llvm.ctlz.i64(i64, i1 immarg) #15

; Function Attrs: nofree norecurse nosync nounwind uwtable
define internal fastcc noundef nonnull align 8 dereferenceable(168) ptr @_ZN4core3num7flt2dec8strategy6dragon9mul_pow1017ha21a5468f4a74b5fE(ptr noalias noundef returned align 8 dereferenceable(168) %0, i64 noundef %1) unnamed_addr #20 !dbg !1120 {
  %3 = and i64 %1, 7, !dbg !1125
  %4 = icmp eq i64 %3, 0, !dbg !1125
  br i1 %4, label %5, label %8, !dbg !1125

5:                                                ; preds = %38, %2
  %6 = and i64 %1, 8, !dbg !1126
  %7 = icmp eq i64 %6, 0, !dbg !1126
  br i1 %7, label %67, label %40, !dbg !1126

8:                                                ; preds = %2
  %9 = getelementptr inbounds [10 x i32], ptr @anon.81eb2ca617e7b492be846be889fa0cc1.97, i64 0, i64 %3, !dbg !1127
  %10 = load i32, ptr %9, align 4, !dbg !1127, !noundef !18
  %11 = getelementptr inbounds { [40 x i32], i64 }, ptr %0, i64 0, i32 1, !dbg !1128
  %12 = load i64, ptr %11, align 8, !dbg !1128, !alias.scope !1134, !noundef !18
  %13 = icmp ugt i64 %12, 40, !dbg !1137
  br i1 %13, label %14, label %15, !dbg !1137

14:                                               ; preds = %8
  tail call fastcc void @_ZN4core5slice5index24slice_end_index_len_fail17hfdbe95b016e4b961E() #29, !dbg !1154
  unreachable, !dbg !1154

15:                                               ; preds = %8
  %16 = getelementptr inbounds i32, ptr %0, i64 %12, !dbg !1155
  %17 = icmp eq i64 %12, 0, !dbg !1175
  br i1 %17, label %38, label %18, !dbg !1186

18:                                               ; preds = %15
  %19 = zext i32 %10 to i64
  br label %23, !dbg !1186

20:                                               ; preds = %23
  %21 = trunc i64 %32 to i32, !dbg !1187
  %22 = icmp eq i32 %21, 0, !dbg !1193
  br i1 %22, label %38, label %34, !dbg !1193

23:                                               ; preds = %23, %18
  %24 = phi i64 [ 0, %18 ], [ %32, %23 ]
  %25 = phi ptr [ %0, %18 ], [ %26, %23 ]
  %26 = getelementptr inbounds i32, ptr %25, i64 1, !dbg !1194
  %27 = load i32, ptr %25, align 4, !dbg !1210, !alias.scope !1134, !noundef !18
  %28 = zext i32 %27 to i64, !dbg !1211
  %29 = mul nuw i64 %28, %19, !dbg !1213
  %30 = add nuw i64 %29, %24, !dbg !1220
  %31 = trunc i64 %30 to i32, !dbg !1187
  %32 = lshr i64 %30, 32, !dbg !1187
  store i32 %31, ptr %25, align 4, !dbg !1226, !alias.scope !1134
  %33 = icmp eq ptr %26, %16, !dbg !1175
  br i1 %33, label %20, label %23, !dbg !1186

34:                                               ; preds = %20
  %.not = icmp eq i64 %12, 40, !dbg !1228
  br i1 %.not, label %37, label %35, !dbg !1228, !prof !441

35:                                               ; preds = %34
  store i32 %21, ptr %16, align 4, !dbg !1228, !alias.scope !1134
  %36 = add nuw nsw i64 %12, 1, !dbg !1229
  br label %38, !dbg !1230

37:                                               ; preds = %34
  tail call fastcc void @_ZN4core5slice5index24slice_end_index_len_fail17hfdbe95b016e4b961E() #29, !dbg !1228
  unreachable, !dbg !1228

38:                                               ; preds = %35, %20, %15
  %39 = phi i64 [ %36, %35 ], [ %12, %20 ], [ 0, %15 ], !dbg !1231
  store i64 %39, ptr %11, align 8, !dbg !1232, !alias.scope !1134
  br label %5, !dbg !1233

40:                                               ; preds = %5
  %41 = getelementptr inbounds { [40 x i32], i64 }, ptr %0, i64 0, i32 1, !dbg !1234
  %42 = load i64, ptr %41, align 8, !dbg !1234, !alias.scope !1236, !noundef !18
  %43 = icmp ugt i64 %42, 40, !dbg !1239
  br i1 %43, label %44, label %45, !dbg !1239

44:                                               ; preds = %40
  tail call fastcc void @_ZN4core5slice5index24slice_end_index_len_fail17hfdbe95b016e4b961E() #29, !dbg !1244
  unreachable, !dbg !1244

45:                                               ; preds = %40
  %46 = getelementptr inbounds i32, ptr %0, i64 %42, !dbg !1245
  %47 = icmp eq i64 %42, 0, !dbg !1250
  br i1 %47, label %65, label %.preheader, !dbg !1253

48:                                               ; preds = %.preheader
  %49 = trunc i64 %59 to i32, !dbg !1254
  %50 = icmp eq i32 %49, 0, !dbg !1256
  br i1 %50, label %65, label %61, !dbg !1256

.preheader:                                       ; preds = %45, %.preheader
  %51 = phi i64 [ %59, %.preheader ], [ 0, %45 ]
  %52 = phi ptr [ %53, %.preheader ], [ %0, %45 ]
  %53 = getelementptr inbounds i32, ptr %52, i64 1, !dbg !1257
  %54 = load i32, ptr %52, align 4, !dbg !1261, !alias.scope !1236, !noundef !18
  %55 = zext i32 %54 to i64, !dbg !1262
  %56 = mul nuw nsw i64 %55, 100000000, !dbg !1263
  %57 = add nuw nsw i64 %56, %51, !dbg !1265
  %58 = trunc i64 %57 to i32, !dbg !1254
  %59 = lshr i64 %57, 32, !dbg !1254
  store i32 %58, ptr %52, align 4, !dbg !1267, !alias.scope !1236
  %60 = icmp eq ptr %53, %46, !dbg !1250
  br i1 %60, label %48, label %.preheader, !dbg !1253

61:                                               ; preds = %48
  %.not8 = icmp eq i64 %42, 40, !dbg !1268
  br i1 %.not8, label %64, label %62, !dbg !1268, !prof !441

62:                                               ; preds = %61
  store i32 %49, ptr %46, align 4, !dbg !1268, !alias.scope !1236
  %63 = add nuw nsw i64 %42, 1, !dbg !1269
  br label %65, !dbg !1270

64:                                               ; preds = %61
  tail call fastcc void @_ZN4core5slice5index24slice_end_index_len_fail17hfdbe95b016e4b961E() #29, !dbg !1268
  unreachable, !dbg !1268

65:                                               ; preds = %62, %48, %45
  %66 = phi i64 [ %63, %62 ], [ %42, %48 ], [ 0, %45 ], !dbg !1271
  store i64 %66, ptr %41, align 8, !dbg !1272, !alias.scope !1236
  br label %67, !dbg !1273

67:                                               ; preds = %65, %5
  %68 = and i64 %1, 16, !dbg !1274
  %69 = icmp eq i64 %68, 0, !dbg !1274
  br i1 %69, label %72, label %70, !dbg !1274

70:                                               ; preds = %67
  %71 = tail call fastcc noundef align 8 dereferenceable(168) ptr @_ZN4core3num6bignum8Big32x4010mul_digits17h26c02d67354ca13eE(ptr noalias noundef nonnull align 8 dereferenceable(168) %0, ptr noalias noundef nonnull readonly align 4 @_ZN4core3num7flt2dec8strategy6dragon9POW10TO1617h63d2c5acc16b0626E, i64 noundef 2), !dbg !1275
  br label %72, !dbg !1276

72:                                               ; preds = %70, %67
  %73 = and i64 %1, 32, !dbg !1277
  %74 = icmp eq i64 %73, 0, !dbg !1277
  br i1 %74, label %77, label %75, !dbg !1277

75:                                               ; preds = %72
  %76 = tail call fastcc noundef align 8 dereferenceable(168) ptr @_ZN4core3num6bignum8Big32x4010mul_digits17h26c02d67354ca13eE(ptr noalias noundef nonnull align 8 dereferenceable(168) %0, ptr noalias noundef nonnull readonly align 4 @_ZN4core3num7flt2dec8strategy6dragon9POW10TO3217h5db851f6d9e44384E, i64 noundef 4), !dbg !1278
  br label %77, !dbg !1279

77:                                               ; preds = %75, %72
  %78 = and i64 %1, 64, !dbg !1280
  %79 = icmp eq i64 %78, 0, !dbg !1280
  br i1 %79, label %82, label %80, !dbg !1280

80:                                               ; preds = %77
  %81 = tail call fastcc noundef align 8 dereferenceable(168) ptr @_ZN4core3num6bignum8Big32x4010mul_digits17h26c02d67354ca13eE(ptr noalias noundef nonnull align 8 dereferenceable(168) %0, ptr noalias noundef nonnull readonly align 4 @_ZN4core3num7flt2dec8strategy6dragon9POW10TO6417h6dc31d966e6bc033E, i64 noundef 7), !dbg !1281
  br label %82, !dbg !1282

82:                                               ; preds = %80, %77
  %83 = and i64 %1, 128, !dbg !1283
  %84 = icmp eq i64 %83, 0, !dbg !1283
  br i1 %84, label %87, label %85, !dbg !1283

85:                                               ; preds = %82
  %86 = tail call fastcc noundef align 8 dereferenceable(168) ptr @_ZN4core3num6bignum8Big32x4010mul_digits17h26c02d67354ca13eE(ptr noalias noundef nonnull align 8 dereferenceable(168) %0, ptr noalias noundef nonnull readonly align 4 @_ZN4core3num7flt2dec8strategy6dragon10POW10TO12817ha3eb925412edb8d4E, i64 noundef 14), !dbg !1284
  br label %87, !dbg !1285

87:                                               ; preds = %85, %82
  %88 = and i64 %1, 256, !dbg !1286
  %89 = icmp eq i64 %88, 0, !dbg !1286
  br i1 %89, label %92, label %90, !dbg !1286

90:                                               ; preds = %87
  %91 = tail call fastcc noundef align 8 dereferenceable(168) ptr @_ZN4core3num6bignum8Big32x4010mul_digits17h26c02d67354ca13eE(ptr noalias noundef nonnull align 8 dereferenceable(168) %0, ptr noalias noundef nonnull readonly align 4 @_ZN4core3num7flt2dec8strategy6dragon10POW10TO25617h9162a07aef2cbe14E, i64 noundef 27), !dbg !1287
  br label %92, !dbg !1288

92:                                               ; preds = %90, %87
  ret ptr %0, !dbg !1289
}

; Function Attrs: nofree norecurse nosync nounwind memory(read, argmem: readwrite, inaccessiblemem: readwrite) uwtable
define internal fastcc noundef nonnull align 8 dereferenceable(168) ptr @_ZN4core3num6bignum8Big32x4010mul_digits17h26c02d67354ca13eE(ptr noalias noundef returned align 8 dereferenceable(168) %0, ptr noalias noundef nonnull readonly align 4 %1, i64 noundef %2) unnamed_addr #21 personality ptr @rust_eh_personality !dbg !1290 {
  %4 = alloca [40 x i32], align 4
  call void @llvm.lifetime.start.p0(i64 160, ptr nonnull %4), !dbg !1291
  call void @llvm.memset.p0.i64(ptr noundef nonnull align 4 dereferenceable(160) %4, i8 0, i64 160, i1 false), !dbg !1292
  %5 = getelementptr inbounds { [40 x i32], i64 }, ptr %0, i64 0, i32 1, !dbg !1293
  %6 = load i64, ptr %5, align 8, !dbg !1293, !noundef !18
  %7 = icmp ult i64 %6, %2, !dbg !1293
  %8 = icmp ugt i64 %6, 40, !dbg !1295
  br i1 %7, label %64, label %9, !dbg !1293

9:                                                ; preds = %3
  br i1 %8, label %10, label %11, !dbg !1309

10:                                               ; preds = %9
  tail call fastcc void @_ZN4core5slice5index24slice_end_index_len_fail17hfdbe95b016e4b961E() #29, !dbg !1315
  unreachable, !dbg !1315

11:                                               ; preds = %9
  tail call void @llvm.experimental.noalias.scope.decl(metadata !1316), !dbg !1319
  tail call void @llvm.experimental.noalias.scope.decl(metadata !1320), !dbg !1319
  tail call void @llvm.experimental.noalias.scope.decl(metadata !1322), !dbg !1319
  %12 = getelementptr inbounds i32, ptr %1, i64 %2, !dbg !1324
  %13 = getelementptr inbounds i32, ptr %0, i64 %6
  %14 = add nuw nsw i64 %6, 1
  br label %15

15:                                               ; preds = %42, %11
  %16 = phi i64 [ %25, %42 ], [ 0, %11 ]
  %17 = phi ptr [ %24, %42 ], [ %1, %11 ]
  %18 = phi i64 [ %45, %42 ], [ 0, %11 ]
  br label %19, !dbg !1342

19:                                               ; preds = %23, %15
  %20 = phi i64 [ %25, %23 ], [ %16, %15 ], !dbg !1350
  %21 = phi ptr [ %24, %23 ], [ %17, %15 ], !dbg !1350
  %22 = icmp eq ptr %21, %12, !dbg !1351
  br i1 %22, label %.loopexit, label %23, !dbg !1342

23:                                               ; preds = %19
  %24 = getelementptr inbounds i32, ptr %21, i64 1, !dbg !1356
  %25 = add i64 %20, 1, !dbg !1372
  %26 = load i32, ptr %21, align 4, !dbg !1375, !alias.scope !1320, !noalias !1376, !noundef !18
  %27 = icmp eq i32 %26, 0, !dbg !1377
  br i1 %27, label %19, label %28, !dbg !1377

28:                                               ; preds = %23
  %29 = zext i32 %26 to i64
  br label %33, !dbg !1379

30:                                               ; preds = %49
  %31 = trunc i64 %60 to i32
  %32 = icmp eq i32 %31, 0, !dbg !1385
  br i1 %32, label %42, label %39, !dbg !1385

33:                                               ; preds = %49, %28
  %34 = phi i64 [ 0, %28 ], [ %60, %49 ]
  %35 = phi i64 [ 0, %28 ], [ %50, %49 ]
  %36 = phi ptr [ %0, %28 ], [ %51, %49 ]
  %37 = add nuw nsw i64 %35, %20, !dbg !1386
  %38 = icmp ult i64 %37, 40, !dbg !1388
  br i1 %38, label %49, label %63, !dbg !1388, !prof !457

39:                                               ; preds = %30
  %40 = add i64 %20, %6, !dbg !1389
  %41 = icmp ult i64 %40, 40, !dbg !1390
  br i1 %41, label %46, label %48, !dbg !1390, !prof !457

42:                                               ; preds = %46, %30
  %43 = phi i64 [ %14, %46 ], [ %6, %30 ], !dbg !1391
  %44 = add i64 %43, %20, !dbg !1392
  %45 = tail call i64 @llvm.umax.i64(i64 %18, i64 %44), !dbg !1393
  br label %15, !dbg !1394

46:                                               ; preds = %39
  %47 = getelementptr inbounds [40 x i32], ptr %4, i64 0, i64 %40, !dbg !1390
  store i32 %31, ptr %47, align 4, !dbg !1390, !alias.scope !1316, !noalias !1395
  br label %42, !dbg !1396

48:                                               ; preds = %39
  tail call fastcc void @_ZN4core5slice5index24slice_end_index_len_fail17hfdbe95b016e4b961E() #29, !dbg !1390
  unreachable, !dbg !1390

49:                                               ; preds = %33
  %50 = add nuw nsw i64 %35, 1, !dbg !1397
  %51 = getelementptr inbounds i32, ptr %36, i64 1, !dbg !1398
  %52 = load i32, ptr %36, align 4, !dbg !1402, !alias.scope !1322, !noalias !1403, !noundef !18
  %53 = getelementptr inbounds [40 x i32], ptr %4, i64 0, i64 %37, !dbg !1388
  %54 = load i32, ptr %53, align 4, !dbg !1388, !alias.scope !1316, !noalias !1395, !noundef !18
  %55 = zext i32 %52 to i64, !dbg !1404
  %56 = mul nuw i64 %55, %29, !dbg !1408
  %57 = zext i32 %54 to i64, !dbg !1409
  %58 = add nuw nsw i64 %34, %57, !dbg !1408
  %59 = add nuw i64 %58, %56, !dbg !1408
  %60 = lshr i64 %59, 32, !dbg !1410
  %61 = trunc i64 %59 to i32, !dbg !1412
  store i32 %61, ptr %53, align 4, !dbg !1413, !alias.scope !1316, !noalias !1395
  %62 = icmp eq ptr %51, %13, !dbg !1415
  br i1 %62, label %30, label %33, !dbg !1379

63:                                               ; preds = %33
  tail call fastcc void @_ZN4core5slice5index24slice_end_index_len_fail17hfdbe95b016e4b961E() #29, !dbg !1388
  unreachable, !dbg !1388

64:                                               ; preds = %3
  br i1 %8, label %65, label %66, !dbg !1417

65:                                               ; preds = %64
  tail call fastcc void @_ZN4core5slice5index24slice_end_index_len_fail17hfdbe95b016e4b961E() #29, !dbg !1423
  unreachable, !dbg !1423

66:                                               ; preds = %64
  tail call void @llvm.experimental.noalias.scope.decl(metadata !1424), !dbg !1427
  tail call void @llvm.experimental.noalias.scope.decl(metadata !1428), !dbg !1427
  tail call void @llvm.experimental.noalias.scope.decl(metadata !1430), !dbg !1427
  %67 = getelementptr inbounds i32, ptr %0, i64 %6, !dbg !1432
  %68 = getelementptr inbounds i32, ptr %1, i64 %2
  %69 = add nuw nsw i64 %2, 1
  br label %70, !dbg !1437

70:                                               ; preds = %97, %66
  %71 = phi i64 [ %80, %97 ], [ 0, %66 ]
  %72 = phi ptr [ %79, %97 ], [ %0, %66 ]
  %73 = phi i64 [ %100, %97 ], [ 0, %66 ]
  br label %74, !dbg !1440

74:                                               ; preds = %78, %70
  %75 = phi i64 [ %80, %78 ], [ %71, %70 ], !dbg !1443
  %76 = phi ptr [ %79, %78 ], [ %72, %70 ], !dbg !1443
  %77 = icmp eq ptr %76, %67, !dbg !1444
  br i1 %77, label %.loopexit, label %78, !dbg !1440

78:                                               ; preds = %74
  %79 = getelementptr inbounds i32, ptr %76, i64 1, !dbg !1446
  %80 = add i64 %75, 1, !dbg !1450
  %81 = load i32, ptr %76, align 4, !dbg !1451, !alias.scope !1428, !noalias !1452, !noundef !18
  %82 = icmp eq i32 %81, 0, !dbg !1453
  br i1 %82, label %74, label %83, !dbg !1453

83:                                               ; preds = %78
  %84 = zext i32 %81 to i64
  br label %88, !dbg !1437

85:                                               ; preds = %104
  %86 = trunc i64 %115 to i32
  %87 = icmp eq i32 %86, 0, !dbg !1454
  br i1 %87, label %97, label %94, !dbg !1454

88:                                               ; preds = %104, %83
  %89 = phi i64 [ 0, %83 ], [ %115, %104 ]
  %90 = phi i64 [ 0, %83 ], [ %105, %104 ]
  %91 = phi ptr [ %1, %83 ], [ %106, %104 ]
  %92 = add nuw nsw i64 %90, %75, !dbg !1455
  %93 = icmp ult i64 %92, 40, !dbg !1456
  br i1 %93, label %104, label %118, !dbg !1456, !prof !457

94:                                               ; preds = %85
  %95 = add i64 %75, %2, !dbg !1457
  %96 = icmp ult i64 %95, 40, !dbg !1458
  br i1 %96, label %101, label %103, !dbg !1458, !prof !457

97:                                               ; preds = %101, %85
  %98 = phi i64 [ %69, %101 ], [ %2, %85 ], !dbg !1459
  %99 = add i64 %98, %75, !dbg !1460
  %100 = tail call i64 @llvm.umax.i64(i64 %73, i64 %99), !dbg !1461
  br label %70, !dbg !1462

101:                                              ; preds = %94
  %102 = getelementptr inbounds [40 x i32], ptr %4, i64 0, i64 %95, !dbg !1458
  store i32 %86, ptr %102, align 4, !dbg !1458, !alias.scope !1424, !noalias !1463
  br label %97, !dbg !1464

103:                                              ; preds = %94
  tail call fastcc void @_ZN4core5slice5index24slice_end_index_len_fail17hfdbe95b016e4b961E() #29, !dbg !1458
  unreachable, !dbg !1458

104:                                              ; preds = %88
  %105 = add nuw nsw i64 %90, 1, !dbg !1465
  %106 = getelementptr inbounds i32, ptr %91, i64 1, !dbg !1466
  %107 = load i32, ptr %91, align 4, !dbg !1470, !alias.scope !1430, !noalias !1471, !noundef !18
  %108 = getelementptr inbounds [40 x i32], ptr %4, i64 0, i64 %92, !dbg !1456
  %109 = load i32, ptr %108, align 4, !dbg !1456, !alias.scope !1424, !noalias !1463, !noundef !18
  %110 = zext i32 %107 to i64, !dbg !1472
  %111 = mul nuw i64 %110, %84, !dbg !1474
  %112 = zext i32 %109 to i64, !dbg !1475
  %113 = add nuw nsw i64 %89, %112, !dbg !1474
  %114 = add nuw i64 %113, %111, !dbg !1474
  %115 = lshr i64 %114, 32, !dbg !1476
  %116 = trunc i64 %114 to i32, !dbg !1477
  store i32 %116, ptr %108, align 4, !dbg !1478, !alias.scope !1424, !noalias !1463
  %117 = icmp eq ptr %106, %68, !dbg !1479
  br i1 %117, label %85, label %88, !dbg !1437

118:                                              ; preds = %88
  tail call fastcc void @_ZN4core5slice5index24slice_end_index_len_fail17hfdbe95b016e4b961E() #29, !dbg !1456
  unreachable, !dbg !1456

.loopexit:                                        ; preds = %19, %74
  %119 = phi i64 [ %73, %74 ], [ %18, %19 ], !dbg !1308
  call void @llvm.memcpy.p0.p0.i64(ptr noundef nonnull align 8 dereferenceable(160) %0, ptr noundef nonnull align 4 dereferenceable(160) %4, i64 160, i1 false), !dbg !1481
  store i64 %119, ptr %5, align 8, !dbg !1483
  call void @llvm.lifetime.end.p0(i64 160, ptr nonnull %4), !dbg !1484
  ret ptr %0, !dbg !1485
}

; Function Attrs: mustprogress nocallback nofree nosync nounwind speculatable willreturn memory(none)
declare i64 @llvm.umax.i64(i64, i64) #15

; Function Attrs: nofree norecurse nosync nounwind memory(argmem: readwrite) uwtable
define internal fastcc noundef nonnull align 8 dereferenceable(168) ptr @_ZN4core3num6bignum8Big32x408mul_pow217hb09feeffb1279cefE(ptr noalias noundef returned align 8 dereferenceable(168) %0, i64 noundef %1) unnamed_addr #19 !dbg !1486 {
  %3 = lshr i64 %1, 5, !dbg !1487
  %4 = and i64 %1, 31, !dbg !1489
  %5 = icmp ult i64 %1, 1280, !dbg !1491
  br i1 %5, label %7, label %6, !dbg !1491

6:                                                ; preds = %2
  tail call fastcc void @_ZN4core9panicking5panic17hca9af9b940213a79E() #29, !dbg !1493
  unreachable, !dbg !1493

7:                                                ; preds = %2
  %8 = getelementptr inbounds { [40 x i32], i64 }, ptr %0, i64 0, i32 1, !dbg !1494
  %9 = load i64, ptr %8, align 8, !dbg !1494, !noundef !18
  %10 = icmp eq i64 %9, 0, !dbg !1495
  br i1 %10, label %.loopexit11, label %11, !dbg !1511

11:                                               ; preds = %7
  %12 = icmp ult i64 %9, 41, !dbg !1512
  br i1 %12, label %.split.us, label %.split, !dbg !1512, !prof !457

.split.us:                                        ; preds = %11, %17
  %13 = phi i64 [ %14, %17 ], [ %9, %11 ]
  %14 = add i64 %13, -1, !dbg !1514
  %15 = add nuw nsw i64 %14, %3, !dbg !1524
  %16 = icmp ult i64 %15, 40, !dbg !1525
  br i1 %16, label %17, label %.split16.us, !dbg !1525, !prof !457

17:                                               ; preds = %.split.us
  %18 = getelementptr inbounds [40 x i32], ptr %0, i64 0, i64 %14, !dbg !1512
  %19 = load i32, ptr %18, align 4, !dbg !1512, !noundef !18
  %20 = getelementptr inbounds [40 x i32], ptr %0, i64 0, i64 %15, !dbg !1525
  store i32 %19, ptr %20, align 4, !dbg !1525
  %21 = icmp eq i64 %14, 0, !dbg !1495
  br i1 %21, label %.loopexit11, label %.split.us, !dbg !1511

.loopexit11:                                      ; preds = %17, %7
  %22 = icmp ult i64 %1, 32, !dbg !1526
  br i1 %22, label %26, label %23, !dbg !1529

23:                                               ; preds = %.loopexit11
  %24 = tail call i64 @llvm.umax.i64(i64 %3, i64 1), !dbg !1529
  %25 = shl nuw nsw i64 %24, 2, !dbg !1529
  tail call void @llvm.memset.p0.i64(ptr noundef nonnull align 8 dereferenceable(1) %0, i8 0, i64 %25, i1 false), !dbg !1537
  br label %26, !dbg !1539

.split:                                           ; preds = %11
  tail call fastcc void @_ZN4core5slice5index24slice_end_index_len_fail17hfdbe95b016e4b961E() #29, !dbg !1512
  unreachable, !dbg !1512

26:                                               ; preds = %23, %.loopexit11
  %27 = load i64, ptr %8, align 8, !dbg !1539, !noundef !18
  %28 = add i64 %27, %3, !dbg !1539
  %29 = icmp eq i64 %4, 0, !dbg !1540
  br i1 %29, label %30, label %32, !dbg !1540

30:                                               ; preds = %.loopexit, %26
  %31 = phi i64 [ %45, %.loopexit ], [ %28, %26 ], !dbg !1542
  store i64 %31, ptr %8, align 8, !dbg !1543
  ret ptr %0, !dbg !1544

32:                                               ; preds = %26
  %33 = add i64 %28, -1, !dbg !1545
  %34 = icmp ult i64 %33, 40, !dbg !1547
  br i1 %34, label %35, label %43, !dbg !1547, !prof !457

35:                                               ; preds = %32
  %36 = getelementptr inbounds [40 x i32], ptr %0, i64 0, i64 %33, !dbg !1547
  %37 = load i32, ptr %36, align 4, !dbg !1547, !noundef !18
  %38 = trunc i64 %1 to i32, !dbg !1547
  %39 = sub nsw i32 0, %38, !dbg !1547
  %40 = and i32 %39, 31, !dbg !1547
  %41 = lshr i32 %37, %40, !dbg !1547
  %42 = icmp eq i32 %41, 0, !dbg !1548
  br i1 %42, label %44, label %49, !dbg !1548

43:                                               ; preds = %32
  tail call fastcc void @_ZN4core5slice5index24slice_end_index_len_fail17hfdbe95b016e4b961E() #29, !dbg !1547
  unreachable, !dbg !1547

44:                                               ; preds = %51, %35
  %45 = phi i64 [ %53, %51 ], [ %28, %35 ], !dbg !1542
  %46 = add nuw nsw i64 %3, 1, !dbg !1550
  %47 = icmp ult i64 %46, %28, !dbg !1551
  %48 = and i32 %38, 31
  br i1 %47, label %.preheader, label %.loopexit, !dbg !1559

49:                                               ; preds = %35
  %50 = icmp ult i64 %28, 40, !dbg !1560
  br i1 %50, label %51, label %54, !dbg !1560, !prof !457

51:                                               ; preds = %49
  %52 = getelementptr inbounds [40 x i32], ptr %0, i64 0, i64 %28, !dbg !1560
  store i32 %41, ptr %52, align 4, !dbg !1560
  %53 = add nuw nsw i64 %28, 1, !dbg !1561
  br label %44, !dbg !1562

54:                                               ; preds = %49
  tail call fastcc void @_ZN4core5slice5index24slice_end_index_len_fail17hfdbe95b016e4b961E() #29, !dbg !1560
  unreachable, !dbg !1560

.loopexit:                                        ; preds = %63, %44
  %55 = getelementptr inbounds [40 x i32], ptr %0, i64 0, i64 %3, !dbg !1563
  %56 = load i32, ptr %55, align 4, !dbg !1563, !noundef !18
  %57 = shl i32 %56, %48, !dbg !1563
  store i32 %57, ptr %55, align 4, !dbg !1563
  br label %30, !dbg !1564

.preheader:                                       ; preds = %44, %63
  %58 = phi i32 [ %68, %63 ], [ %37, %44 ]
  %59 = phi i64 [ %64, %63 ], [ %28, %44 ]
  %60 = add nsw i64 %59, -2, !dbg !1565
  %61 = icmp ult i64 %60, 40, !dbg !1567
  br i1 %61, label %63, label %62, !dbg !1567, !prof !457

62:                                               ; preds = %.preheader
  tail call fastcc void @_ZN4core5slice5index24slice_end_index_len_fail17hfdbe95b016e4b961E() #29, !dbg !1567
  unreachable, !dbg !1567

63:                                               ; preds = %.preheader
  %64 = add nsw i64 %59, -1, !dbg !1568
  %65 = getelementptr inbounds [40 x i32], ptr %0, i64 0, i64 %64, !dbg !1571
  %66 = shl i32 %58, %48, !dbg !1572
  %67 = getelementptr inbounds [40 x i32], ptr %0, i64 0, i64 %60, !dbg !1567
  %68 = load i32, ptr %67, align 4, !dbg !1567, !noundef !18
  %69 = lshr i32 %68, %40, !dbg !1573
  %70 = or i32 %69, %66, !dbg !1574
  store i32 %70, ptr %65, align 4, !dbg !1574
  %71 = icmp ult i64 %46, %64, !dbg !1551
  br i1 %71, label %.preheader, label %.loopexit, !dbg !1559

.split16.us:                                      ; preds = %.split.us
  tail call fastcc void @_ZN4core5slice5index24slice_end_index_len_fail17hfdbe95b016e4b961E() #29, !dbg !1525
  unreachable, !dbg !1525
}

; Function Attrs: mustprogress nocallback nofree nosync nounwind speculatable willreturn memory(none)
declare { i32, i1 } @llvm.uadd.with.overflow.i32(i32, i32) #15

; Function Attrs: nofree norecurse nosync nounwind memory(read, argmem: readwrite, inaccessiblemem: write) uwtable
define internal fastcc void @_ZN4core3num7flt2dec8strategy5grisu16format_exact_opt14possibly_round17h9b4c5367b48ecb63E(ptr noalias nocapture noundef writeonly align 8 dereferenceable(24) %0, ptr noalias noundef nonnull align 1 %1, i64 noundef %2, i64 noundef %3, i16 noundef %4, i16 noundef %5, i64 noundef %6, i64 noundef %7, i64 noundef %8) unnamed_addr #22 personality ptr @rust_eh_personality !dbg !1575 {
  %10 = icmp ult i64 %8, %7, !dbg !1579
  br i1 %10, label %11, label %14, !dbg !1579

11:                                               ; preds = %9
  %12 = sub i64 %7, %8, !dbg !1580
  %13 = icmp ugt i64 %12, %8, !dbg !1580
  br i1 %13, label %15, label %18, !dbg !1580

14:                                               ; preds = %9
  store ptr null, ptr %0, align 8, !dbg !1581
  br label %68, !dbg !1582

15:                                               ; preds = %11
  %16 = sub i64 %7, %6, !dbg !1584
  %17 = icmp ugt i64 %16, %6, !dbg !1584
  br i1 %17, label %19, label %24, !dbg !1584

18:                                               ; preds = %11
  store ptr null, ptr %0, align 8, !dbg !1585
  br label %68, !dbg !1582

19:                                               ; preds = %15
  %20 = shl i64 %6, 1, !dbg !1586
  %21 = sub i64 %7, %20, !dbg !1587
  %22 = shl i64 %8, 1, !dbg !1588
  %23 = icmp ult i64 %21, %22, !dbg !1587
  br i1 %23, label %24, label %26, !dbg !1587

24:                                               ; preds = %19, %15
  %25 = icmp ugt i64 %6, %8, !dbg !1589
  br i1 %25, label %33, label %32, !dbg !1589

26:                                               ; preds = %19
  %27 = icmp ugt i64 %3, %2, !dbg !1590
  br i1 %27, label %28, label %29, !dbg !1590

28:                                               ; preds = %26
  tail call fastcc void @_ZN4core5slice5index24slice_end_index_len_fail17hfdbe95b016e4b961E() #29, !dbg !1600
  unreachable, !dbg !1600

29:                                               ; preds = %26
  store ptr %1, ptr %0, align 8, !dbg !1601
  %30 = getelementptr inbounds i8, ptr %0, i64 8, !dbg !1601
  store i64 %3, ptr %30, align 8, !dbg !1601
  %31 = getelementptr inbounds i8, ptr %0, i64 16, !dbg !1601
  store i16 %4, ptr %31, align 8, !dbg !1601
  br label %68, !dbg !1582

32:                                               ; preds = %33, %24
  store ptr null, ptr %0, align 8, !dbg !1602
  br label %68, !dbg !1603

33:                                               ; preds = %24
  %34 = sub i64 %6, %8, !dbg !1604
  %35 = sub i64 %7, %34, !dbg !1605
  %36 = icmp ugt i64 %35, %34, !dbg !1605
  br i1 %36, label %32, label %37, !dbg !1605

37:                                               ; preds = %33
  %38 = icmp ugt i64 %3, %2, !dbg !1606
  br i1 %38, label %39, label %40, !dbg !1606

39:                                               ; preds = %37
  tail call fastcc void @_ZN4core5slice5index24slice_end_index_len_fail17hfdbe95b016e4b961E() #29, !dbg !1617
  unreachable, !dbg !1617

40:                                               ; preds = %37
  %41 = getelementptr inbounds i8, ptr %1, i64 %3, !dbg !1618
  br label %42, !dbg !1634

42:                                               ; preds = %47, %40
  %43 = phi i64 [ %52, %47 ], [ 0, %40 ]
  %44 = phi ptr [ %48, %47 ], [ %41, %40 ]
  %45 = phi i64 [ %49, %47 ], [ %3, %40 ], !dbg !1639
  %46 = icmp eq ptr %44, %1, !dbg !1640
  br i1 %46, label %53, label %47, !dbg !1651

47:                                               ; preds = %42
  %48 = getelementptr inbounds i8, ptr %44, i64 -1, !dbg !1652
  %49 = add i64 %45, -1, !dbg !1670
  %50 = load i8, ptr %48, align 1, !dbg !1671, !alias.scope !1672, !noalias !1675, !noundef !18
  %51 = icmp eq i8 %50, 57, !dbg !1678
  %52 = add i64 %43, 1, !dbg !1671
  br i1 %51, label %42, label %55, !dbg !1671

53:                                               ; preds = %42
  %54 = icmp eq i64 %3, 0, !dbg !1683
  br i1 %54, label %69, label %63, !dbg !1683

55:                                               ; preds = %47
  %56 = icmp ult i64 %49, %3, !dbg !1684
  tail call void @llvm.assume(i1 %56), !dbg !1686
  %57 = getelementptr inbounds [0 x i8], ptr %1, i64 0, i64 %49, !dbg !1687
  %58 = load i8, ptr %57, align 1, !dbg !1687, !alias.scope !1672, !noundef !18
  %59 = add i8 %58, 1, !dbg !1687
  store i8 %59, ptr %57, align 1, !dbg !1687, !alias.scope !1672
  %60 = icmp ult i64 %45, %3, !dbg !1689
  br i1 %60, label %61, label %75, !dbg !1700

61:                                               ; preds = %55
  %62 = getelementptr i8, ptr %1, i64 %45, !dbg !1700
  tail call void @llvm.memset.p0.i64(ptr align 1 %62, i8 48, i64 %43, i1 false), !dbg !1701, !alias.scope !1672
  br label %75, !dbg !1703

63:                                               ; preds = %53
  store i8 49, ptr %1, align 1, !dbg !1704, !alias.scope !1672
  %64 = icmp eq i64 %3, 1, !dbg !1705
  br i1 %64, label %69, label %65, !dbg !1713

65:                                               ; preds = %63
  %66 = getelementptr i8, ptr %1, i64 1, !dbg !1713
  %67 = add nsw i64 %3, -1, !dbg !1713
  tail call void @llvm.memset.p0.i64(ptr align 1 %66, i8 48, i64 %67, i1 false), !dbg !1714, !alias.scope !1672
  br label %69, !dbg !1703

68:                                               ; preds = %80, %32, %29, %18, %14
  ret void, !dbg !1603

69:                                               ; preds = %65, %63, %53
  %70 = phi i8 [ 48, %65 ], [ 48, %63 ], [ 49, %53 ]
  %71 = add i16 %4, 1, !dbg !1716
  %72 = icmp sgt i16 %71, %5, !dbg !1717
  %73 = icmp ult i64 %3, %2
  %74 = and i1 %73, %72, !dbg !1717
  br i1 %74, label %83, label %75, !dbg !1717

75:                                               ; preds = %83, %69, %61, %55
  %76 = phi i16 [ %71, %83 ], [ %71, %69 ], [ %4, %55 ], [ %4, %61 ]
  %77 = phi i64 [ %84, %83 ], [ %3, %69 ], [ %3, %55 ], [ %3, %61 ]
  %78 = icmp ugt i64 %77, %2, !dbg !1718
  br i1 %78, label %79, label %80, !dbg !1718

79:                                               ; preds = %75
  tail call fastcc void @_ZN4core5slice5index24slice_end_index_len_fail17hfdbe95b016e4b961E() #29, !dbg !1725
  unreachable, !dbg !1725

80:                                               ; preds = %75
  store ptr %1, ptr %0, align 8, !dbg !1726
  %81 = getelementptr inbounds i8, ptr %0, i64 8, !dbg !1726
  store i64 %77, ptr %81, align 8, !dbg !1726
  %82 = getelementptr inbounds i8, ptr %0, i64 16, !dbg !1726
  store i16 %76, ptr %82, align 8, !dbg !1726
  br label %68, !dbg !1582

83:                                               ; preds = %69
  store i8 %70, ptr %41, align 1, !dbg !1727
  %84 = add nuw nsw i64 %3, 1, !dbg !1728
  br label %75, !dbg !1729
}

; Function Attrs: nofree norecurse nosync nounwind memory(argmem: readwrite) uwtable
define internal fastcc { ptr, i64 } @_ZN4core3num7flt2dec17digits_to_dec_str17hc891497339572ed1E(ptr noalias noundef nonnull readonly align 1 %0, i64 noundef %1, i16 noundef %2, i64 noundef %3, ptr noalias noundef nonnull align 8 %4) unnamed_addr #19 !dbg !1730 {
  %6 = icmp eq i64 %1, 0, !dbg !1731
  br i1 %6, label %7, label %8, !dbg !1731

7:                                                ; preds = %5
  tail call fastcc void @_ZN4core9panicking5panic17hca9af9b940213a79E() #29, !dbg !1732
  unreachable, !dbg !1732

8:                                                ; preds = %5
  %9 = load i8, ptr %0, align 1, !dbg !1733, !noundef !18
  %10 = icmp ugt i8 %9, 48, !dbg !1733
  br i1 %10, label %12, label %11, !dbg !1733

11:                                               ; preds = %8
  tail call fastcc void @_ZN4core9panicking5panic17hca9af9b940213a79E() #29, !dbg !1734
  unreachable, !dbg !1734

12:                                               ; preds = %8
  %13 = icmp slt i16 %2, 1, !dbg !1735
  br i1 %13, label %19, label %14, !dbg !1735

14:                                               ; preds = %12
  %15 = zext nneg i16 %2 to i64
  %16 = icmp ult i64 %15, %1, !dbg !1736
  %17 = getelementptr inbounds i8, ptr %4, i64 8, !dbg !1738
  %18 = getelementptr inbounds i8, ptr %4, i64 16, !dbg !1738
  store i16 2, ptr %4, align 8, !dbg !1738
  store ptr %0, ptr %17, align 8, !dbg !1738
  br i1 %16, label %38, label %33, !dbg !1736

19:                                               ; preds = %12
  %20 = sext i16 %2 to i64, !dbg !1739
  %21 = sub nsw i64 0, %20, !dbg !1740
  store i16 2, ptr %4, align 8, !dbg !1741
  %22 = getelementptr inbounds i8, ptr %4, i64 8, !dbg !1741
  store ptr @anon.81eb2ca617e7b492be846be889fa0cc1.111, ptr %22, align 8, !dbg !1741
  %23 = getelementptr inbounds i8, ptr %4, i64 16, !dbg !1741
  store i64 2, ptr %23, align 8, !dbg !1741
  %24 = getelementptr inbounds [0 x { [3 x i64] }], ptr %4, i64 0, i64 1, !dbg !1743
  store i16 0, ptr %24, align 8, !dbg !1743
  %25 = getelementptr inbounds [0 x { [3 x i64] }], ptr %4, i64 0, i64 1, i32 0, i64 1, !dbg !1743
  store i64 %21, ptr %25, align 8, !dbg !1743
  %26 = getelementptr inbounds [0 x { [3 x i64] }], ptr %4, i64 0, i64 2, !dbg !1744
  store i16 2, ptr %26, align 8, !dbg !1744
  %27 = getelementptr inbounds [0 x { [3 x i64] }], ptr %4, i64 0, i64 2, i32 0, i64 1, !dbg !1744
  store ptr %0, ptr %27, align 8, !dbg !1744
  %28 = getelementptr inbounds [0 x { [3 x i64] }], ptr %4, i64 0, i64 2, i32 0, i64 2, !dbg !1744
  store i64 %1, ptr %28, align 8, !dbg !1744
  %29 = icmp ugt i64 %3, %1, !dbg !1745
  %30 = sub i64 %3, %1
  %31 = icmp ugt i64 %30, %21
  %32 = and i1 %29, %31, !dbg !1745
  br i1 %32, label %62, label %58, !dbg !1745

33:                                               ; preds = %14
  store i64 %1, ptr %18, align 8, !dbg !1746
  %34 = sub nsw i64 %15, %1, !dbg !1747
  %35 = getelementptr inbounds [0 x { [3 x i64] }], ptr %4, i64 0, i64 1, !dbg !1748
  store i16 0, ptr %35, align 8, !dbg !1748
  %36 = getelementptr inbounds [0 x { [3 x i64] }], ptr %4, i64 0, i64 1, i32 0, i64 1, !dbg !1748
  store i64 %34, ptr %36, align 8, !dbg !1748
  %37 = icmp eq i64 %3, 0, !dbg !1749
  br i1 %37, label %58, label %48, !dbg !1749

38:                                               ; preds = %14
  store i64 %15, ptr %18, align 8, !dbg !1750
  %39 = getelementptr inbounds [0 x { [3 x i64] }], ptr %4, i64 0, i64 1, !dbg !1751
  store i16 2, ptr %39, align 8, !dbg !1751
  %40 = getelementptr inbounds [0 x { [3 x i64] }], ptr %4, i64 0, i64 1, i32 0, i64 1, !dbg !1751
  store ptr @anon.81eb2ca617e7b492be846be889fa0cc1.110, ptr %40, align 8, !dbg !1751
  %41 = getelementptr inbounds [0 x { [3 x i64] }], ptr %4, i64 0, i64 1, i32 0, i64 2, !dbg !1751
  store i64 1, ptr %41, align 8, !dbg !1751
  %42 = sub i64 %1, %15, !dbg !1752
  %43 = getelementptr inbounds i8, ptr %0, i64 %15, !dbg !1769
  %44 = getelementptr inbounds [0 x { [3 x i64] }], ptr %4, i64 0, i64 2, !dbg !1775
  store i16 2, ptr %44, align 8, !dbg !1775
  %45 = getelementptr inbounds [0 x { [3 x i64] }], ptr %4, i64 0, i64 2, i32 0, i64 1, !dbg !1775
  store ptr %43, ptr %45, align 8, !dbg !1775
  %46 = getelementptr inbounds [0 x { [3 x i64] }], ptr %4, i64 0, i64 2, i32 0, i64 2, !dbg !1775
  store i64 %42, ptr %46, align 8, !dbg !1775
  %47 = icmp ult i64 %42, %3, !dbg !1776
  br i1 %47, label %52, label %58, !dbg !1776

48:                                               ; preds = %33
  %49 = getelementptr inbounds [0 x { [3 x i64] }], ptr %4, i64 0, i64 2, !dbg !1777
  store i16 2, ptr %49, align 8, !dbg !1777
  %50 = getelementptr inbounds [0 x { [3 x i64] }], ptr %4, i64 0, i64 2, i32 0, i64 1, !dbg !1777
  store ptr @anon.81eb2ca617e7b492be846be889fa0cc1.110, ptr %50, align 8, !dbg !1777
  %51 = getelementptr inbounds [0 x { [3 x i64] }], ptr %4, i64 0, i64 2, i32 0, i64 2, !dbg !1777
  store i64 1, ptr %51, align 8, !dbg !1777
  br label %54, !dbg !1778

52:                                               ; preds = %38
  %53 = sub i64 %3, %42, !dbg !1779
  br label %54, !dbg !1780

54:                                               ; preds = %62, %52, %48
  %55 = phi i64 [ %63, %62 ], [ %53, %52 ], [ %3, %48 ]
  %56 = getelementptr inbounds [0 x { [3 x i64] }], ptr %4, i64 0, i64 3, !dbg !1781
  store i16 0, ptr %56, align 8, !dbg !1781
  %57 = getelementptr inbounds [0 x { [3 x i64] }], ptr %4, i64 0, i64 3, i32 0, i64 1, !dbg !1781
  store i64 %55, ptr %57, align 8, !dbg !1781
  br label %58, !dbg !1782

58:                                               ; preds = %54, %38, %33, %19
  %59 = phi i64 [ 2, %33 ], [ 3, %38 ], [ 3, %19 ], [ 4, %54 ]
  %60 = insertvalue { ptr, i64 } undef, ptr %4, 0, !dbg !1782
  %61 = insertvalue { ptr, i64 } %60, i64 %59, 1, !dbg !1782
  ret { ptr, i64 } %61, !dbg !1788

62:                                               ; preds = %19
  %63 = add i64 %30, %20, !dbg !1789
  br label %54, !dbg !1790
}

; Function Attrs: mustprogress nocallback nofree nosync nounwind speculatable willreturn memory(none)
declare i8 @llvm.umin.i8(i8, i8) #15

; Function Attrs: nofree norecurse nosync nounwind memory(argmem: readwrite, inaccessiblemem: readwrite) uwtable
define internal fastcc void @_ZN4core3ffi5c_str4CStr6to_str17h9b0c460b7d7bc8d5E(ptr noalias nocapture noundef writeonly align 8 dereferenceable(24) %0, ptr noalias noundef nonnull readonly align 1 %1, i64 noundef %2) unnamed_addr #14 !dbg !1791 {
  %4 = add i64 %2, -1, !dbg !1796
  tail call void @llvm.experimental.noalias.scope.decl(metadata !1802), !dbg !1805
  tail call void @llvm.experimental.noalias.scope.decl(metadata !1806), !dbg !1805
  tail call void @llvm.experimental.noalias.scope.decl(metadata !1808), !dbg !1811
  %5 = tail call i64 @llvm.usub.sat.i64(i64 %4, i64 15), !dbg !1816
  %6 = ptrtoint ptr %1 to i64, !dbg !1823
  %7 = add i64 %6, 7, !dbg !1832
  %8 = and i64 %7, -8, !dbg !1832
  %9 = sub i64 %8, %6, !dbg !1836
  %10 = icmp ult i64 %9, 8, !dbg !1838
  tail call void @llvm.assume(i1 %10), !dbg !1841
  %11 = icmp eq i64 %4, 0, !dbg !1842
  br i1 %11, label %.loopexit1, label %.preheader4, !dbg !1842

.preheader4:                                      ; preds = %3, %.loopexit
  %12 = phi i64 [ %44, %.loopexit ], [ 0, %3 ]
  %13 = getelementptr inbounds [0 x i8], ptr %1, i64 0, i64 %12, !dbg !1844
  %14 = load i8, ptr %13, align 1, !dbg !1844, !alias.scope !1846, !noalias !1847, !noundef !18
  %15 = icmp slt i8 %14, 0, !dbg !1849
  br i1 %15, label %46, label %16, !dbg !1849

16:                                               ; preds = %.preheader4
  %17 = sub i64 %9, %12, !dbg !1851
  %18 = and i64 %17, 7, !dbg !1856
  %19 = icmp eq i64 %18, 0, !dbg !1856
  br i1 %19, label %20, label %22, !dbg !1856

20:                                               ; preds = %16
  %21 = icmp ult i64 %12, %5, !dbg !1857
  br i1 %21, label %.preheader2, label %.loopexit3, !dbg !1857

22:                                               ; preds = %16
  %23 = add nuw i64 %12, 1, !dbg !1859
  br label %.loopexit, !dbg !1860

.preheader2:                                      ; preds = %20, %34
  %24 = phi i64 [ %35, %34 ], [ %12, %20 ]
  %25 = getelementptr inbounds i8, ptr %1, i64 %24, !dbg !1861
  %26 = load i64, ptr %25, align 8, !dbg !1867, !alias.scope !1846, !noalias !1847, !noundef !18
  %27 = getelementptr inbounds i64, ptr %25, i64 1, !dbg !1869
  %28 = load i64, ptr %27, align 8, !dbg !1875, !alias.scope !1846, !noalias !1847, !noundef !18
  %29 = or i64 %28, %26, !dbg !1876
  %30 = and i64 %29, -9187201950435737472, !dbg !1876
  %31 = icmp eq i64 %30, 0, !dbg !1876
  br i1 %31, label %34, label %.loopexit3, !dbg !1876

.loopexit3:                                       ; preds = %34, %.preheader2, %20
  %32 = phi i64 [ %12, %20 ], [ %24, %.preheader2 ], [ %35, %34 ], !dbg !1878
  %33 = icmp ult i64 %32, %4, !dbg !1879
  br i1 %33, label %.preheader, label %.loopexit, !dbg !1879

34:                                               ; preds = %.preheader2
  %35 = add nuw i64 %24, 16, !dbg !1880
  %36 = icmp ult i64 %35, %5, !dbg !1857
  br i1 %36, label %.preheader2, label %.loopexit3, !dbg !1857

.preheader:                                       ; preds = %.loopexit3, %41
  %37 = phi i64 [ %42, %41 ], [ %32, %.loopexit3 ]
  %38 = getelementptr inbounds [0 x i8], ptr %1, i64 0, i64 %37, !dbg !1881
  %39 = load i8, ptr %38, align 1, !dbg !1881, !alias.scope !1846, !noalias !1847, !noundef !18
  %40 = icmp sgt i8 %39, -1, !dbg !1881
  br i1 %40, label %41, label %.loopexit, !dbg !1881

41:                                               ; preds = %.preheader
  %42 = add i64 %37, 1, !dbg !1882
  %43 = icmp eq i64 %42, %4, !dbg !1879
  br i1 %43, label %.loopexit1, label %.preheader, !dbg !1879

.loopexit:                                        ; preds = %.preheader, %63, %.loopexit3, %22
  %44 = phi i64 [ %65, %63 ], [ %23, %22 ], [ %32, %.loopexit3 ], [ %37, %.preheader ], !dbg !1878
  %45 = icmp ult i64 %44, %4, !dbg !1842
  br i1 %45, label %.preheader4, label %.loopexit1, !dbg !1842

46:                                               ; preds = %.preheader4
  %47 = zext i8 %14 to i64, !dbg !1883
  %48 = getelementptr inbounds [256 x i8], ptr @anon.81eb2ca617e7b492be846be889fa0cc1.392, i64 0, i64 %47, !dbg !1887
  %49 = load i8, ptr %48, align 1, !dbg !1887, !noalias !1888, !noundef !18
  switch i8 %49, label %120 [
    i8 2, label %50
    i8 3, label %53
    i8 4, label %56
  ], !dbg !1889

50:                                               ; preds = %46
  %51 = add nuw i64 %12, 1, !dbg !1891
  %52 = icmp ult i64 %51, %4, !dbg !1891
  br i1 %52, label %59, label %120, !dbg !1891

53:                                               ; preds = %46
  %54 = add nuw i64 %12, 1, !dbg !1892
  %55 = icmp ult i64 %54, %4, !dbg !1892
  br i1 %55, label %66, label %120, !dbg !1892

56:                                               ; preds = %46
  %57 = add nuw i64 %12, 1, !dbg !1893
  %58 = icmp ult i64 %57, %4, !dbg !1893
  br i1 %58, label %91, label %120, !dbg !1893

59:                                               ; preds = %50
  %60 = getelementptr inbounds [0 x i8], ptr %1, i64 0, i64 %51, !dbg !1891
  %61 = load i8, ptr %60, align 1, !dbg !1891, !alias.scope !1846, !noalias !1847, !noundef !18
  %62 = icmp sgt i8 %61, -65, !dbg !1891
  br i1 %62, label %120, label %63, !dbg !1891

63:                                               ; preds = %114, %87, %59
  %64 = phi i64 [ %112, %114 ], [ %78, %87 ], [ %51, %59 ], !dbg !1894
  %65 = add nuw i64 %64, 1, !dbg !1895
  br label %.loopexit, !dbg !1896

66:                                               ; preds = %53
  %67 = getelementptr inbounds [0 x i8], ptr %1, i64 0, i64 %54, !dbg !1892
  %68 = load i8, ptr %67, align 1, !dbg !1892, !alias.scope !1846, !noalias !1847, !noundef !18
  switch i8 %14, label %69 [
    i8 -32, label %72
    i8 -19, label %75
  ], !dbg !1897

69:                                               ; preds = %66
  %70 = add nsw i8 %14, 31, !dbg !1898
  %71 = icmp ult i8 %70, 12, !dbg !1898
  br i1 %71, label %85, label %80, !dbg !1898

72:                                               ; preds = %66
  %73 = and i8 %68, -32, !dbg !1899
  %74 = icmp eq i8 %73, -96, !dbg !1899
  br i1 %74, label %77, label %120, !dbg !1899

75:                                               ; preds = %66
  %76 = icmp slt i8 %68, -96, !dbg !1900
  br i1 %76, label %77, label %120, !dbg !1900

77:                                               ; preds = %85, %80, %75, %72
  %78 = add nuw i64 %12, 2, !dbg !1901
  %79 = icmp ult i64 %78, %4, !dbg !1901
  br i1 %79, label %87, label %120, !dbg !1901

80:                                               ; preds = %69
  %81 = and i8 %14, -2, !dbg !1902
  %82 = icmp eq i8 %81, -18, !dbg !1902
  %83 = icmp slt i8 %68, -64, !dbg !1902
  %84 = and i1 %82, %83, !dbg !1902
  br i1 %84, label %77, label %120, !dbg !1902

85:                                               ; preds = %69
  %86 = icmp slt i8 %68, -64, !dbg !1903
  br i1 %86, label %77, label %120, !dbg !1903

87:                                               ; preds = %77
  %88 = getelementptr inbounds [0 x i8], ptr %1, i64 0, i64 %78, !dbg !1901
  %89 = load i8, ptr %88, align 1, !dbg !1901, !alias.scope !1846, !noalias !1847, !noundef !18
  %90 = icmp sgt i8 %89, -65, !dbg !1901
  br i1 %90, label %120, label %63, !dbg !1901

91:                                               ; preds = %56
  %92 = getelementptr inbounds [0 x i8], ptr %1, i64 0, i64 %57, !dbg !1893
  %93 = load i8, ptr %92, align 1, !dbg !1893, !alias.scope !1846, !noalias !1847, !noundef !18
  switch i8 %14, label %94 [
    i8 -16, label %99
    i8 -12, label %102
  ], !dbg !1904

94:                                               ; preds = %91
  %95 = add nsw i8 %14, 15, !dbg !1905
  %96 = icmp ult i8 %95, 3, !dbg !1905
  %97 = icmp slt i8 %93, -64, !dbg !1905
  %98 = and i1 %96, %97, !dbg !1905
  br i1 %98, label %104, label %120, !dbg !1905

99:                                               ; preds = %91
  %100 = add i8 %93, 112, !dbg !1906
  %101 = icmp ult i8 %100, 48, !dbg !1906
  br i1 %101, label %104, label %120, !dbg !1906

102:                                              ; preds = %91
  %103 = icmp slt i8 %93, -112, !dbg !1907
  br i1 %103, label %104, label %120, !dbg !1907

104:                                              ; preds = %102, %99, %94
  %105 = add nuw i64 %12, 2, !dbg !1908
  %106 = icmp ult i64 %105, %4, !dbg !1908
  br i1 %106, label %107, label %120, !dbg !1908

107:                                              ; preds = %104
  %108 = getelementptr inbounds [0 x i8], ptr %1, i64 0, i64 %105, !dbg !1908
  %109 = load i8, ptr %108, align 1, !dbg !1908, !alias.scope !1846, !noalias !1847, !noundef !18
  %110 = icmp sgt i8 %109, -65, !dbg !1908
  br i1 %110, label %120, label %111, !dbg !1908

111:                                              ; preds = %107
  %112 = add nuw i64 %12, 3, !dbg !1909
  %113 = icmp ult i64 %112, %4, !dbg !1909
  br i1 %113, label %114, label %120, !dbg !1909

114:                                              ; preds = %111
  %115 = getelementptr inbounds [0 x i8], ptr %1, i64 0, i64 %112, !dbg !1909
  %116 = load i8, ptr %115, align 1, !dbg !1909, !alias.scope !1846, !noalias !1847, !noundef !18
  %117 = icmp sgt i8 %116, -65, !dbg !1909
  br i1 %117, label %120, label %63, !dbg !1909

.loopexit1:                                       ; preds = %.loopexit, %41, %3
  %118 = getelementptr inbounds { [1 x i64], { ptr, i64 } }, ptr %0, i64 0, i32 1, !dbg !1910
  store ptr %1, ptr %118, align 8, !dbg !1910, !alias.scope !1802, !noalias !1806
  %119 = getelementptr inbounds { [1 x i64], { ptr, i64 } }, ptr %0, i64 0, i32 1, i32 1, !dbg !1910
  store i64 %4, ptr %119, align 8, !dbg !1910, !alias.scope !1802, !noalias !1806
  br label %_ZN4core3str8converts9from_utf817hb78c2f0fffca55d0E.exit, !dbg !1911

120:                                              ; preds = %114, %111, %107, %104, %102, %99, %94, %87, %85, %80, %77, %75, %72, %59, %56, %53, %50, %46
  %121 = phi i8 [ 3, %114 ], [ undef, %111 ], [ 2, %107 ], [ undef, %104 ], [ 1, %94 ], [ 1, %99 ], [ 1, %102 ], [ undef, %56 ], [ 2, %87 ], [ undef, %77 ], [ 1, %72 ], [ 1, %75 ], [ 1, %80 ], [ 1, %85 ], [ undef, %53 ], [ 1, %59 ], [ undef, %50 ], [ 1, %46 ]
  %122 = phi i8 [ 1, %114 ], [ 0, %111 ], [ 1, %107 ], [ 0, %104 ], [ 1, %94 ], [ 1, %99 ], [ 1, %102 ], [ 0, %56 ], [ 1, %87 ], [ 0, %77 ], [ 1, %72 ], [ 1, %75 ], [ 1, %80 ], [ 1, %85 ], [ 0, %53 ], [ 1, %59 ], [ 0, %50 ], [ 1, %46 ]
  %123 = getelementptr inbounds { [1 x i64], { i64, { i8, i8 }, [6 x i8] } }, ptr %0, i64 0, i32 1, !dbg !1912
  store i64 %12, ptr %123, align 8, !dbg !1912, !alias.scope !1802, !noalias !1806
  %124 = getelementptr inbounds { [1 x i64], { i64, { i8, i8 }, [6 x i8] } }, ptr %0, i64 0, i32 1, i32 1, !dbg !1912
  store i8 %122, ptr %124, align 8, !dbg !1912, !alias.scope !1802, !noalias !1806
  %125 = getelementptr inbounds { [1 x i64], { i64, { i8, i8 }, [6 x i8] } }, ptr %0, i64 0, i32 1, i32 1, i32 1, !dbg !1912
  store i8 %121, ptr %125, align 1, !dbg !1912, !alias.scope !1802, !noalias !1806
  br label %_ZN4core3str8converts9from_utf817hb78c2f0fffca55d0E.exit, !dbg !1914

_ZN4core3str8converts9from_utf817hb78c2f0fffca55d0E.exit: ; preds = %120, %.loopexit1
  %126 = phi i64 [ 1, %120 ], [ 0, %.loopexit1 ], !dbg !1915
  store i64 %126, ptr %0, align 8, !dbg !1915, !alias.scope !1802, !noalias !1806
  ret void, !dbg !1916
}

; Function Attrs: cold nofree noinline norecurse noreturn nosync nounwind memory(none) uwtable
define internal fastcc void @_ZN4core6result13unwrap_failed17h16d42dbc22454d03E() unnamed_addr #12 !dbg !1917 {
  tail call fastcc void @_ZN4core9panicking9panic_fmt17h10bd3bfe5bb30d67E() #29, !dbg !1920
  unreachable, !dbg !1920
}

; Function Attrs: mustprogress nocallback nofree nosync nounwind speculatable willreturn memory(none)
declare { i64, i1 } @llvm.umul.with.overflow.i64(i64, i64) #15

; Function Attrs: mustprogress nocallback nofree nosync nounwind speculatable willreturn memory(none)
declare i64 @llvm.abs.i64(i64, i1 immarg) #15

; Function Attrs: mustprogress nocallback nofree nosync nounwind speculatable willreturn memory(none)
declare i32 @llvm.umin.i32(i32, i32) #15

; Function Attrs: nofree noinline norecurse nosync nounwind memory(read, argmem: readwrite, inaccessiblemem: readwrite) uwtable
define internal fastcc void @"_ZN4core3num7dec2flt60_$LT$impl$u20$core..str..traits..FromStr$u20$for$u20$f64$GT$8from_str17h6e816cefcb5fb04dE"(ptr noalias nocapture noundef writeonly align 8 dereferenceable(16) %0, ptr noalias noundef nonnull readonly align 1 %1, i64 noundef %2) unnamed_addr #23 personality ptr @rust_eh_personality !dbg !1921 {
  %4 = alloca { i64, [768 x i8], i32, i8, [3 x i8] }, align 8
  %5 = alloca { i64, [768 x i8], i32, i8, [3 x i8] }, align 8
  tail call void @llvm.experimental.noalias.scope.decl(metadata !1924), !dbg !1927
  tail call void @llvm.experimental.noalias.scope.decl(metadata !1928), !dbg !1927
  %6 = icmp eq i64 %2, 0, !dbg !1930
  br i1 %6, label %10, label %7, !dbg !1939

7:                                                ; preds = %3
  %8 = load i8, ptr %1, align 1, !dbg !1940, !alias.scope !1928, !noalias !1924, !noundef !18
  %9 = icmp eq i8 %8, 45, !dbg !1941
  switch i8 %8, label %18 [
    i8 45, label %12
    i8 43, label %12
  ], !dbg !1943

10:                                               ; preds = %3
  %11 = getelementptr inbounds { [1 x i8], i8 }, ptr %0, i64 0, i32 1, !dbg !1945
  store i8 0, ptr %11, align 1, !dbg !1945, !alias.scope !1924, !noalias !1928
  br label %748, !dbg !1946

12:                                               ; preds = %7, %7
  %13 = add i64 %2, -1, !dbg !1948
  %14 = getelementptr inbounds i8, ptr %1, i64 1, !dbg !1965
  %15 = icmp eq i64 %13, 0, !dbg !1971
  br i1 %15, label %16, label %18, !dbg !1971

16:                                               ; preds = %12
  %17 = getelementptr inbounds { [1 x i8], i8 }, ptr %0, i64 0, i32 1, !dbg !1972
  store i8 1, ptr %17, align 1, !dbg !1972, !alias.scope !1924, !noalias !1928
  br label %748, !dbg !1973

18:                                               ; preds = %12, %7
  %19 = phi ptr [ %14, %12 ], [ %1, %7 ]
  %20 = phi i64 [ %13, %12 ], [ %2, %7 ]
  %21 = icmp ugt i64 %20, 7, !dbg !1975
  br i1 %21, label %.preheader69, label %.thread, !dbg !1975

.preheader69:                                     ; preds = %18, %51
  %22 = phi ptr [ %65, %51 ], [ %19, %18 ]
  %23 = phi i64 [ %64, %51 ], [ %20, %18 ]
  %24 = phi i64 [ %63, %51 ], [ 0, %18 ]
  %25 = load i64, ptr %22, align 1, !dbg !1987, !alias.scope !2004, !noalias !2014
  %26 = add i64 %25, 5063812098665367110, !dbg !2019
  %27 = add i64 %25, -3472328296227680304, !dbg !2027
  %28 = or i64 %26, %27, !dbg !2033
  %29 = and i64 %28, -9187201950435737472, !dbg !2033
  %30 = icmp eq i64 %29, 0, !dbg !2033
  br i1 %30, label %51, label %.thread, !dbg !2035

31:                                               ; preds = %51
  %32 = icmp eq i64 %64, 0, !dbg !2036
  br i1 %32, label %81, label %.thread, !dbg !2036

.thread:                                          ; preds = %.preheader69, %31, %18
  %33 = phi i64 [ %63, %31 ], [ 0, %18 ], [ %24, %.preheader69 ]
  %34 = phi i64 [ %64, %31 ], [ %20, %18 ], [ %23, %.preheader69 ]
  %35 = phi ptr [ %65, %31 ], [ %19, %18 ], [ %22, %.preheader69 ]
  %36 = getelementptr i8, ptr %35, i64 %34, !dbg !2041
  br label %37, !dbg !2041

37:                                               ; preds = %44, %.thread
  %38 = phi i64 [ %33, %.thread ], [ %49, %44 ]
  %39 = phi ptr [ %35, %.thread ], [ %46, %44 ]
  %40 = phi i64 [ %34, %.thread ], [ %45, %44 ]
  %41 = load i8, ptr %39, align 1, !dbg !2043, !alias.scope !2044, !noalias !2045, !noundef !18
  %42 = add i8 %41, -48, !dbg !2046
  %43 = icmp ult i8 %42, 10, !dbg !2041
  br i1 %43, label %44, label %67, !dbg !2041

44:                                               ; preds = %37
  %45 = add i64 %40, -1, !dbg !2052
  %46 = getelementptr inbounds [0 x i8], ptr %39, i64 0, i64 1, !dbg !2052
  %47 = mul i64 %38, 10, !dbg !2053
  %48 = zext nneg i8 %42 to i64, !dbg !2061
  %49 = add i64 %47, %48, !dbg !2062
  %50 = icmp eq i64 %45, 0, !dbg !2036
  br i1 %50, label %79, label %37, !dbg !2036

51:                                               ; preds = %.preheader69
  %52 = mul i64 %24, 100000000, !dbg !2067
  %53 = mul i64 %27, 10, !dbg !2072
  %54 = lshr i64 %27, 8, !dbg !2075
  %55 = add i64 %53, %54, !dbg !2076
  %56 = and i64 %55, 1095216660735, !dbg !2077
  %57 = mul i64 %56, 4294967296000100, !dbg !2078
  %58 = lshr i64 %55, 16, !dbg !2083
  %59 = and i64 %58, 1095216660735, !dbg !2085
  %60 = mul i64 %59, 42949672960001, !dbg !2086
  %61 = add i64 %60, %57, !dbg !2090
  %62 = lshr i64 %61, 32, !dbg !2096
  %63 = add i64 %62, %52, !dbg !2097
  %64 = add i64 %23, -8, !dbg !2102
  %65 = getelementptr inbounds i8, ptr %22, i64 8, !dbg !2119
  %66 = icmp ugt i64 %64, 7, !dbg !1975
  br i1 %66, label %.preheader69, label %31, !dbg !1975

67:                                               ; preds = %37
  %68 = sub i64 %20, %40, !dbg !2125
  %69 = add i64 %40, -1, !dbg !2130
  %70 = icmp eq i8 %41, 46, !dbg !2140
  br i1 %70, label %84, label %71, !dbg !2140

71:                                               ; preds = %.loopexit62, %67
  %72 = phi i64 [ %134, %.loopexit62 ], [ %38, %67 ], !dbg !2141
  %73 = phi i64 [ %135, %.loopexit62 ], [ %40, %67 ], !dbg !2141
  %74 = phi ptr [ %136, %.loopexit62 ], [ %39, %67 ], !dbg !2141
  %75 = phi i64 [ %139, %.loopexit62 ], [ 0, %67 ], !dbg !2142
  %76 = phi i64 [ %138, %.loopexit62 ], [ 0, %67 ], !dbg !2143
  %77 = add i64 %76, %68, !dbg !2144
  %78 = icmp eq i64 %77, 0, !dbg !2145
  br i1 %78, label %275, label %140, !dbg !2145

79:                                               ; preds = %44
  %80 = icmp ne ptr %36, null
  br label %81

81:                                               ; preds = %79, %31
  %82 = phi i64 [ %63, %31 ], [ %49, %79 ]
  %83 = phi i1 [ true, %31 ], [ %80, %79 ]
  tail call void @llvm.assume(i1 %83), !noalias !1924
  br label %146

84:                                               ; preds = %67
  %85 = getelementptr inbounds [0 x i8], ptr %39, i64 0, i64 1, !dbg !2130
  %86 = icmp ugt i64 %69, 7, !dbg !2146
  br i1 %86, label %.preheader66, label %.loopexit68, !dbg !2146

.preheader66:                                     ; preds = %84, %118
  %87 = phi ptr [ %132, %118 ], [ %85, %84 ]
  %88 = phi i64 [ %131, %118 ], [ %69, %84 ]
  %89 = phi i64 [ %130, %118 ], [ %38, %84 ]
  %90 = load i64, ptr %87, align 1, !dbg !2149, !alias.scope !2153, !noalias !2159
  %91 = add i64 %90, 5063812098665367110, !dbg !2162
  %92 = add i64 %90, -3472328296227680304, !dbg !2165
  %93 = or i64 %91, %92, !dbg !2167
  %94 = and i64 %93, -9187201950435737472, !dbg !2167
  %95 = icmp eq i64 %94, 0, !dbg !2167
  br i1 %95, label %118, label %.loopexit67, !dbg !2168

.loopexit68:                                      ; preds = %118, %84
  %96 = phi i64 [ %38, %84 ], [ %130, %118 ]
  %97 = phi i64 [ %69, %84 ], [ %131, %118 ]
  %98 = phi ptr [ %85, %84 ], [ %132, %118 ]
  %99 = icmp eq i64 %97, 0, !dbg !2169
  br i1 %99, label %.loopexit62, label %.loopexit67, !dbg !2169

.loopexit67:                                      ; preds = %.preheader66, %.loopexit68
  %100 = phi i64 [ %96, %.loopexit68 ], [ %89, %.preheader66 ]
  %101 = phi i64 [ %97, %.loopexit68 ], [ %88, %.preheader66 ]
  %102 = phi ptr [ %98, %.loopexit68 ], [ %87, %.preheader66 ]
  %103 = getelementptr i8, ptr %102, i64 %101, !dbg !2171
  br label %104, !dbg !2171

104:                                              ; preds = %111, %.loopexit67
  %105 = phi i64 [ %100, %.loopexit67 ], [ %116, %111 ]
  %106 = phi ptr [ %102, %.loopexit67 ], [ %113, %111 ]
  %107 = phi i64 [ %101, %.loopexit67 ], [ %112, %111 ]
  %108 = load i8, ptr %106, align 1, !dbg !2172, !alias.scope !2173, !noalias !2176, !noundef !18
  %109 = add i8 %108, -48, !dbg !2178
  %110 = icmp ult i8 %109, 10, !dbg !2171
  br i1 %110, label %111, label %.loopexit62, !dbg !2171

111:                                              ; preds = %104
  %112 = add i64 %107, -1, !dbg !2180
  %113 = getelementptr inbounds [0 x i8], ptr %106, i64 0, i64 1, !dbg !2180
  %114 = mul i64 %105, 10, !dbg !2181
  %115 = zext nneg i8 %109 to i64, !dbg !2184
  %116 = add i64 %114, %115, !dbg !2185
  %117 = icmp eq i64 %112, 0, !dbg !2169
  br i1 %117, label %.loopexit62, label %104, !dbg !2169

118:                                              ; preds = %.preheader66
  %119 = mul i64 %89, 100000000, !dbg !2187
  %120 = mul i64 %92, 10, !dbg !2189
  %121 = lshr i64 %92, 8, !dbg !2191
  %122 = add i64 %120, %121, !dbg !2192
  %123 = and i64 %122, 1095216660735, !dbg !2193
  %124 = mul i64 %123, 4294967296000100, !dbg !2194
  %125 = lshr i64 %122, 16, !dbg !2196
  %126 = and i64 %125, 1095216660735, !dbg !2197
  %127 = mul i64 %126, 42949672960001, !dbg !2198
  %128 = add i64 %127, %124, !dbg !2200
  %129 = lshr i64 %128, 32, !dbg !2202
  %130 = add i64 %129, %119, !dbg !2203
  %131 = add i64 %88, -8, !dbg !2205
  %132 = getelementptr inbounds i8, ptr %87, i64 8, !dbg !2210
  %133 = icmp ugt i64 %131, 7, !dbg !2146
  br i1 %133, label %.preheader66, label %.loopexit68, !dbg !2146

.loopexit62:                                      ; preds = %111, %104, %.loopexit68
  %134 = phi i64 [ %96, %.loopexit68 ], [ %116, %111 ], [ %105, %104 ]
  %135 = phi i64 [ 0, %.loopexit68 ], [ 0, %111 ], [ %107, %104 ], !dbg !2212
  %136 = phi ptr [ %98, %.loopexit68 ], [ %103, %111 ], [ %106, %104 ], !dbg !2212
  %137 = icmp ne ptr %136, null
  tail call void @llvm.assume(i1 %137), !noalias !1924
  %138 = sub i64 %69, %135, !dbg !2213
  %139 = sub i64 0, %138, !dbg !2217
  br label %71, !dbg !2218

140:                                              ; preds = %71
  %141 = icmp eq i64 %73, 0, !dbg !2219
  %142 = getelementptr inbounds [0 x i8], ptr %74, i64 0, i64 1, !dbg !2219
  %143 = add i64 %73, -1, !dbg !2219
  br i1 %141, label %146, label %144, !dbg !2225

144:                                              ; preds = %140
  %145 = load i8, ptr %74, align 1, !dbg !2226, !alias.scope !2044, !noalias !2045, !noundef !18
  switch i8 %145, label %146 [
    i8 101, label %154
    i8 69, label %154
  ], !dbg !2227

146:                                              ; preds = %188, %144, %140, %81
  %147 = phi i64 [ %40, %140 ], [ %40, %144 ], [ %40, %188 ], [ 0, %81 ]
  %148 = phi i64 [ %72, %140 ], [ %72, %144 ], [ %72, %188 ], [ %82, %81 ]
  %149 = phi i64 [ %77, %140 ], [ %77, %144 ], [ %77, %188 ], [ %20, %81 ]
  %150 = phi i64 [ 0, %140 ], [ 1, %144 ], [ %190, %188 ], [ 0, %81 ], !dbg !2141
  %151 = phi i64 [ 0, %140 ], [ 0, %144 ], [ %192, %188 ], [ 0, %81 ], !dbg !2228
  %152 = phi i64 [ %75, %140 ], [ %75, %144 ], [ %193, %188 ], [ 0, %81 ], !dbg !2228
  %153 = icmp slt i64 %149, 20, !dbg !2229
  br i1 %153, label %270, label %194, !dbg !2229

154:                                              ; preds = %144, %144
  %155 = icmp eq i64 %143, 0, !dbg !2231
  %156 = getelementptr inbounds [0 x i8], ptr %74, i64 0, i64 2, !dbg !2231
  %157 = add i64 %73, -2, !dbg !2231
  br i1 %155, label %275, label %158, !dbg !2242

158:                                              ; preds = %154
  %159 = load i8, ptr %142, align 1, !dbg !2243, !alias.scope !2044, !noalias !2244, !noundef !18
  %160 = icmp eq i8 %159, 45, !dbg !2247
  switch i8 %159, label %165 [
    i8 45, label %161
    i8 43, label %161
  ], !dbg !2248

161:                                              ; preds = %158, %158
  %162 = icmp eq i64 %157, 0, !dbg !2249
  br i1 %162, label %275, label %163, !dbg !2254

163:                                              ; preds = %161
  %164 = load i8, ptr %156, align 1, !dbg !2255, !alias.scope !2044, !noalias !2244
  br label %165, !dbg !2254

165:                                              ; preds = %163, %158
  %166 = phi i8 [ %164, %163 ], [ %159, %158 ], !dbg !2255
  %167 = phi ptr [ %156, %163 ], [ %142, %158 ]
  %168 = phi i64 [ %157, %163 ], [ %143, %158 ]
  %169 = add i8 %166, -48, !dbg !2255
  %170 = icmp ult i8 %169, 10, !dbg !2255
  br i1 %170, label %.preheader61, label %275, !dbg !2259

.preheader61:                                     ; preds = %165, %178
  %171 = phi i64 [ %185, %178 ], [ 0, %165 ], !dbg !2260
  %172 = phi ptr [ %180, %178 ], [ %167, %165 ]
  %173 = phi i64 [ %179, %178 ], [ %168, %165 ]
  %174 = phi i64 [ %186, %178 ], [ 0, %165 ]
  %175 = load i8, ptr %172, align 1, !dbg !2261, !alias.scope !2266, !noalias !2269, !noundef !18
  %176 = add i8 %175, -48, !dbg !2271
  %177 = icmp ult i8 %176, 10, !dbg !2276
  br i1 %177, label %178, label %188, !dbg !2276

178:                                              ; preds = %.preheader61
  %179 = add i64 %173, -1, !dbg !2278
  %180 = getelementptr inbounds [0 x i8], ptr %172, i64 0, i64 1, !dbg !2278
  %181 = icmp slt i64 %174, 65536, !dbg !2279
  %182 = mul i64 %174, 10, !dbg !2279
  %183 = zext nneg i8 %176 to i64, !dbg !2279
  %184 = add i64 %182, %183, !dbg !2279
  %185 = select i1 %181, i64 %184, i64 %171, !dbg !2279
  %186 = select i1 %181, i64 %184, i64 %174, !dbg !2279
  %187 = icmp eq i64 %179, 0, !dbg !2283
  br i1 %187, label %188, label %.preheader61, !dbg !2283

188:                                              ; preds = %178, %.preheader61
  %189 = phi i64 [ %185, %178 ], [ %171, %.preheader61 ], !dbg !2260
  %190 = phi i64 [ 0, %178 ], [ %173, %.preheader61 ], !dbg !2284
  %191 = sub i64 0, %189
  %192 = select i1 %160, i64 %191, i64 %189, !dbg !2285
  %193 = add i64 %192, %75, !dbg !2286
  br label %146, !dbg !2287

194:                                              ; preds = %146
  %195 = add nsw i64 %149, -19, !dbg !2288
  %196 = getelementptr inbounds [0 x i8], ptr %19, i64 0, i64 1, !dbg !2289
  br label %197, !dbg !2296

197:                                              ; preds = %206, %194
  %198 = phi i64 [ %207, %206 ], [ %20, %194 ]
  %199 = phi ptr [ %213, %206 ], [ %196, %194 ]
  %200 = phi i64 [ %210, %206 ], [ %195, %194 ]
  %201 = phi ptr [ %199, %206 ], [ %19, %194 ]
  %202 = load i8, ptr %201, align 1, !dbg !2297, !alias.scope !2044, !noalias !2045, !noundef !18
  switch i8 %202, label %203 [
    i8 46, label %206
    i8 48, label %206
  ], !dbg !2296

203:                                              ; preds = %206, %197
  %204 = phi i64 [ %210, %206 ], [ %200, %197 ], !dbg !2298
  %205 = icmp sgt i64 %204, 0, !dbg !2299
  br i1 %205, label %.preheader59, label %232, !dbg !2299

206:                                              ; preds = %197, %197
  %207 = add i64 %198, -1, !dbg !2289
  %208 = tail call i8 @llvm.usub.sat.i8(i8 %202, i8 47), !dbg !2300
  %209 = zext nneg i8 %208 to i64, !dbg !2305
  %210 = sub i64 %200, %209, !dbg !2306
  %211 = icmp eq i64 %207, 0, !dbg !2289
  %212 = getelementptr inbounds [0 x i8], ptr %199, i64 0, i64 1, !dbg !2289
  %213 = select i1 %211, ptr %199, ptr %212, !dbg !2289
  %214 = icmp eq ptr %199, null, !dbg !2307
  %215 = select i1 %211, i1 true, i1 %214, !dbg !2307
  br i1 %215, label %203, label %197, !dbg !2307

.preheader59:                                     ; preds = %203, %222
  %216 = phi i64 [ %227, %222 ], [ 0, %203 ], !dbg !2308
  %217 = phi ptr [ %224, %222 ], [ %19, %203 ]
  %218 = phi i64 [ %223, %222 ], [ %20, %203 ]
  %219 = load i8, ptr %217, align 1, !dbg !2309, !alias.scope !2044, !noalias !2315, !noundef !18
  %220 = add i8 %219, -48, !dbg !2319
  %221 = icmp ult i8 %220, 10, !dbg !2324
  br i1 %221, label %222, label %.loopexit60, !dbg !2324

222:                                              ; preds = %.preheader59
  %223 = add i64 %218, -1, !dbg !2326
  %224 = getelementptr inbounds [0 x i8], ptr %217, i64 0, i64 1, !dbg !2326
  %225 = mul nuw i64 %216, 10, !dbg !2327
  %226 = zext nneg i8 %220 to i64, !dbg !2328
  %227 = add nuw i64 %225, %226, !dbg !2329
  %228 = icmp ugt i64 %227, 999999999999999999, !dbg !2330
  %229 = icmp eq i64 %223, 0
  %230 = select i1 %228, i1 true, i1 %229, !dbg !2330
  br i1 %230, label %231, label %.preheader59, !dbg !2330

231:                                              ; preds = %222
  br i1 %228, label %237, label %236, !dbg !2331

232:                                              ; preds = %266, %203
  %233 = phi i64 [ %267, %266 ], [ %148, %203 ], !dbg !2141
  %234 = phi i64 [ %269, %266 ], [ %152, %203 ], !dbg !2228
  %235 = zext i1 %205 to i8, !dbg !2332
  br label %270, !dbg !2333

236:                                              ; preds = %231
  br i1 %229, label %265, label %.loopexit60, !dbg !2334

237:                                              ; preds = %231
  %238 = sub i64 %223, %147, !dbg !2341
  br label %266, !dbg !2344

.loopexit60:                                      ; preds = %.preheader59, %236
  %239 = phi i64 [ %227, %236 ], [ %216, %.preheader59 ]
  %240 = phi i64 [ %223, %236 ], [ %218, %.preheader59 ]
  %241 = phi ptr [ %224, %236 ], [ %217, %.preheader59 ]
  %242 = add i64 %240, -1, !dbg !2345
  %243 = icmp eq i64 %242, 0
  br i1 %243, label %.loopexit56, label %244, !dbg !2356

244:                                              ; preds = %.loopexit60
  %245 = getelementptr inbounds i8, ptr %241, i64 1, !dbg !2359
  br label %246, !dbg !2365

246:                                              ; preds = %253, %244
  %247 = phi i64 [ %258, %253 ], [ %239, %244 ], !dbg !2308
  %248 = phi ptr [ %255, %253 ], [ %245, %244 ]
  %249 = phi i64 [ %254, %253 ], [ %242, %244 ]
  %250 = load i8, ptr %248, align 1, !dbg !2366, !alias.scope !2044, !noalias !2367, !noundef !18
  %251 = add i8 %250, -48, !dbg !2371
  %252 = icmp ult i8 %251, 10, !dbg !2365
  br i1 %252, label %253, label %.loopexit56, !dbg !2365

253:                                              ; preds = %246
  %254 = add i64 %249, -1, !dbg !2373
  %255 = getelementptr inbounds [0 x i8], ptr %248, i64 0, i64 1, !dbg !2373
  %256 = mul nuw i64 %247, 10, !dbg !2374
  %257 = zext nneg i8 %251 to i64, !dbg !2375
  %258 = add nuw i64 %256, %257, !dbg !2376
  %259 = icmp ugt i64 %258, 999999999999999999, !dbg !2356
  %260 = icmp eq i64 %254, 0
  %261 = select i1 %259, i1 true, i1 %260, !dbg !2356
  br i1 %261, label %.loopexit56, label %246, !dbg !2356

.loopexit56:                                      ; preds = %253, %246, %.loopexit60
  %262 = phi i64 [ %239, %.loopexit60 ], [ %247, %246 ], [ %258, %253 ], !dbg !2308
  %263 = phi i64 [ 0, %.loopexit60 ], [ %249, %246 ], [ %254, %253 ], !dbg !2377
  %264 = sub i64 %263, %242, !dbg !2378
  br label %266, !dbg !2344

265:                                              ; preds = %236
  tail call fastcc void @_ZN4core5slice5index24slice_end_index_len_fail17hfdbe95b016e4b961E() #29, !dbg !2381
  unreachable, !dbg !2381

266:                                              ; preds = %.loopexit56, %237
  %267 = phi i64 [ %227, %237 ], [ %262, %.loopexit56 ], !dbg !2382
  %268 = phi i64 [ %238, %237 ], [ %264, %.loopexit56 ], !dbg !2383
  %269 = add i64 %268, %151, !dbg !2384
  br label %232, !dbg !2385

270:                                              ; preds = %232, %146
  %271 = phi i8 [ %235, %232 ], [ 0, %146 ], !dbg !2228
  %272 = phi i64 [ %233, %232 ], [ %148, %146 ]
  %273 = phi i64 [ %234, %232 ], [ %152, %146 ]
  %274 = icmp eq i64 %150, 0, !dbg !2386
  br i1 %274, label %_ZN4core3num7dec2flt5parse12parse_number17h1b9b0326bc1edc5eE.exit, label %275, !dbg !2386

275:                                              ; preds = %270, %165, %161, %154, %71
  switch i64 %20, label %337 [
    i64 8, label %276
    i64 3, label %281
  ], !dbg !2387

276:                                              ; preds = %275
  %277 = load i64, ptr %19, align 1, !dbg !2392, !alias.scope !2399, !noalias !2405
  br label %278, !dbg !2407

278:                                              ; preds = %281, %276
  %279 = phi i64 [ %293, %281 ], [ %277, %276 ], !dbg !2408
  %280 = and i64 %279, -2314885530818453537, !dbg !2409
  switch i64 %280, label %337 [
    i64 4607561, label %294
    i64 6436850368004902473, label %296
    i64 5128526, label %298
  ], !dbg !2410

281:                                              ; preds = %275
  %282 = load i8, ptr %19, align 1, !dbg !2411, !alias.scope !2412, !noalias !1924, !noundef !18
  %283 = zext i8 %282 to i64, !dbg !2411
  %284 = getelementptr inbounds [0 x i8], ptr %19, i64 0, i64 1, !dbg !2413
  %285 = load i8, ptr %284, align 1, !dbg !2413, !alias.scope !2412, !noalias !1924, !noundef !18
  %286 = zext i8 %285 to i64, !dbg !2413
  %287 = getelementptr inbounds [0 x i8], ptr %19, i64 0, i64 2, !dbg !2415
  %288 = load i8, ptr %287, align 1, !dbg !2415, !alias.scope !2412, !noalias !1924, !noundef !18
  %289 = zext i8 %288 to i64, !dbg !2415
  %290 = shl nuw nsw i64 %289, 16, !dbg !2417
  %291 = shl nuw nsw i64 %286, 8, !dbg !2419
  %292 = or disjoint i64 %291, %283, !dbg !2417
  %293 = or disjoint i64 %292, %290, !dbg !2420
  br label %278, !dbg !2407

294:                                              ; preds = %278
  %295 = icmp eq i64 %20, 3, !dbg !2410
  br i1 %295, label %332, label %337, !dbg !2410

296:                                              ; preds = %278
  %297 = icmp eq i64 %20, 8, !dbg !2410
  br i1 %297, label %332, label %337, !dbg !2410

298:                                              ; preds = %278
  %299 = icmp eq i64 %20, 3, !dbg !2410
  br i1 %299, label %332, label %337, !dbg !2410

_ZN4core3num7dec2flt5parse12parse_number17h1b9b0326bc1edc5eE.exit: ; preds = %270
  %300 = add i64 %273, 22, !dbg !2421
  %301 = icmp ult i64 %300, 60, !dbg !2421
  %302 = icmp ult i64 %272, 9007199254740993
  %303 = select i1 %301, i1 %302, i1 false, !dbg !2421
  %304 = icmp eq i8 %271, 0
  %305 = and i1 %304, %303, !dbg !2421
  br i1 %305, label %306, label %344, !dbg !2421

306:                                              ; preds = %_ZN4core3num7dec2flt5parse12parse_number17h1b9b0326bc1edc5eE.exit
  %307 = icmp slt i64 %273, 23, !dbg !2433
  br i1 %307, label %308, label %311, !dbg !2433

308:                                              ; preds = %306
  %309 = uitofp i64 %272 to double, !dbg !2434
  %310 = icmp slt i64 %273, 0, !dbg !2440
  br i1 %310, label %327, label %323, !dbg !2440

311:                                              ; preds = %306
  %312 = add nsw i64 %273, -22, !dbg !2442
  %313 = getelementptr inbounds [16 x i64], ptr @anon.81eb2ca617e7b492be846be889fa0cc1.43, i64 0, i64 %312, !dbg !2443
  %314 = load i64, ptr %313, align 8, !dbg !2443, !noalias !2445, !noundef !18
  %315 = tail call { i64, i1 } @llvm.umul.with.overflow.i64(i64 %272, i64 %314), !dbg !2448
  %316 = extractvalue { i64, i1 } %315, 0, !dbg !2448
  %317 = extractvalue { i64, i1 } %315, 1, !dbg !2448
  %318 = icmp ugt i64 %316, 9007199254740992
  %319 = or i1 %317, %318, !dbg !2456
  br i1 %319, label %344, label %320, !dbg !2456

320:                                              ; preds = %311
  %321 = uitofp i64 %316 to double, !dbg !2457
  %322 = fmul double %321, 1.000000e+22, !dbg !2460
  br label %339, !dbg !2464

323:                                              ; preds = %308
  %324 = getelementptr inbounds [32 x double], ptr @anon.81eb2ca617e7b492be846be889fa0cc1.40, i64 0, i64 %273, !dbg !2465
  %325 = load double, ptr %324, align 8, !dbg !2465, !noalias !2445, !noundef !18
  %326 = fmul double %325, %309, !dbg !2468
  br label %339, !dbg !2470

327:                                              ; preds = %308
  %328 = sub nsw i64 0, %273, !dbg !2471
  %329 = getelementptr inbounds [32 x double], ptr @anon.81eb2ca617e7b492be846be889fa0cc1.40, i64 0, i64 %328, !dbg !2472
  %330 = load double, ptr %329, align 8, !dbg !2472, !noalias !2445, !noundef !18
  %331 = fdiv double %309, %330, !dbg !2474
  br label %339, !dbg !2470

332:                                              ; preds = %298, %296, %294
  %333 = phi double [ 0x7FF0000000000000, %294 ], [ 0x7FF0000000000000, %296 ], [ 0x7FF8000000000000, %298 ], !dbg !2408
  %334 = fneg double %333
  %335 = select i1 %9, double %334, double %333, !dbg !2478
  %336 = getelementptr inbounds { [1 x i64], double }, ptr %0, i64 0, i32 1, !dbg !2480
  store double %335, ptr %336, align 8, !dbg !2480, !alias.scope !1924, !noalias !1928
  br label %748, !dbg !1973

337:                                              ; preds = %298, %296, %294, %278, %275
  %338 = getelementptr inbounds { [1 x i8], i8 }, ptr %0, i64 0, i32 1, !dbg !2481
  store i8 1, ptr %338, align 1, !dbg !2481, !alias.scope !1924, !noalias !1928
  br label %748, !dbg !2482

339:                                              ; preds = %327, %323, %320
  %340 = phi double [ %331, %327 ], [ %326, %323 ], [ %322, %320 ], !dbg !2483
  %341 = fneg double %340
  %342 = select i1 %9, double %341, double %340, !dbg !2484
  %343 = getelementptr inbounds { [1 x i64], double }, ptr %0, i64 0, i32 1, !dbg !2486
  store double %342, ptr %343, align 8, !dbg !2486, !alias.scope !1924, !noalias !1928
  br label %748, !dbg !2487

344:                                              ; preds = %311, %_ZN4core3num7dec2flt5parse12parse_number17h1b9b0326bc1edc5eE.exit
  %345 = tail call fastcc { i64, i32 } @_ZN4core3num7dec2flt6lemire13compute_float17hf7d98aff52ffa4e0E(i64 noundef %273, i64 noundef %272), !dbg !2489
  %346 = extractvalue { i64, i32 } %345, 0, !dbg !2489
  %347 = extractvalue { i64, i32 } %345, 1, !dbg !2489
  %348 = icmp ne i8 %271, 0, !dbg !2490
  %349 = icmp sgt i32 %347, -1
  %350 = select i1 %348, i1 %349, i1 false, !dbg !2490
  br i1 %350, label %353, label %351, !dbg !2490

351:                                              ; preds = %344
  %352 = icmp slt i32 %347, 0, !dbg !2492
  br i1 %352, label %361, label %738, !dbg !2492

353:                                              ; preds = %344
  %354 = add i64 %272, 1, !dbg !2493
  %355 = tail call fastcc { i64, i32 } @_ZN4core3num7dec2flt6lemire13compute_float17hf7d98aff52ffa4e0E(i64 noundef %273, i64 noundef %354), !dbg !2494
  %356 = extractvalue { i64, i32 } %355, 0, !dbg !2494
  %357 = icmp ne i64 %346, %356, !dbg !2495
  %358 = extractvalue { i64, i32 } %355, 1, !dbg !2495
  %359 = icmp ne i32 %347, %358, !dbg !2495
  %360 = select i1 %357, i1 true, i1 %359, !dbg !2495
  br i1 %360, label %361, label %738, !dbg !2504

361:                                              ; preds = %353, %351
  call void @llvm.lifetime.start.p0(i64 784, ptr nonnull %5), !dbg !2505, !noalias !2513
  tail call void @llvm.experimental.noalias.scope.decl(metadata !2516), !dbg !2519
  call void @llvm.lifetime.start.p0(i64 784, ptr nonnull %4), !dbg !2520, !noalias !2523
  call void @llvm.memset.p0.i64(ptr noundef nonnull align 8 dereferenceable(781) %4, i8 0, i64 781, i1 false), !dbg !2525, !alias.scope !2529, !noalias !2523
  %362 = getelementptr i8, ptr %19, i64 %20, !dbg !2532
  br label %363, !dbg !2532

363:                                              ; preds = %367, %361
  %364 = phi i64 [ %20, %361 ], [ %369, %367 ]
  %365 = phi ptr [ %19, %361 ], [ %368, %367 ]
  %366 = icmp eq i64 %364, 0, !dbg !2535
  br i1 %366, label %.loopexit55, label %367, !dbg !2541

367:                                              ; preds = %363
  %368 = getelementptr inbounds [0 x i8], ptr %365, i64 0, i64 1, !dbg !2535
  %369 = add i64 %364, -1, !dbg !2535
  %370 = load i8, ptr %365, align 1, !dbg !2541, !alias.scope !2516, !noalias !2542, !noundef !18
  %371 = icmp eq i8 %370, 48, !dbg !2541
  br i1 %371, label %363, label %372, !dbg !2541

372:                                              ; preds = %367
  %373 = add i8 %370, -48, !dbg !2543
  %374 = icmp ult i8 %373, 10, !dbg !2552
  br i1 %374, label %.preheader52, label %.loopexit54.thread, !dbg !2552

375:                                              ; preds = %389
  %376 = load i8, ptr %383, align 1, !dbg !2554, !alias.scope !2516, !noalias !2542
  %377 = getelementptr inbounds [0 x i8], ptr %383, i64 0, i64 1, !dbg !2555
  %378 = add i64 %382, -1, !dbg !2555
  %379 = add i8 %376, -48, !dbg !2543
  %380 = icmp ult i8 %379, 10, !dbg !2552
  br i1 %380, label %.preheader52, label %.loopexit54, !dbg !2552

.preheader52:                                     ; preds = %372, %375
  %381 = phi i8 [ %379, %375 ], [ %373, %372 ]
  %382 = phi i64 [ %378, %375 ], [ %369, %372 ]
  %383 = phi ptr [ %377, %375 ], [ %368, %372 ]
  %384 = phi i64 [ %391, %375 ], [ 0, %372 ]
  %385 = icmp ult i64 %384, 768, !dbg !2556
  br i1 %385, label %386, label %389, !dbg !2556

386:                                              ; preds = %.preheader52
  %387 = getelementptr inbounds { i64, [768 x i8], i32, i8, [3 x i8] }, ptr %4, i64 0, i32 1, i64 %384, !dbg !2562
  store i8 %381, ptr %387, align 1, !dbg !2562, !alias.scope !2563, !noalias !2568
  %388 = load i64, ptr %4, align 8, !dbg !2570, !alias.scope !2563, !noalias !2568
  br label %389, !dbg !2571

389:                                              ; preds = %386, %.preheader52
  %390 = phi i64 [ %384, %.preheader52 ], [ %388, %386 ], !dbg !2570
  %391 = add i64 %390, 1, !dbg !2570
  store i64 %391, ptr %4, align 8, !dbg !2570, !alias.scope !2563, !noalias !2568
  %392 = icmp eq i64 %382, 0, !dbg !2572
  br i1 %392, label %.loopexit53, label %375, !dbg !2572

.loopexit54:                                      ; preds = %375
  %393 = icmp eq i8 %376, 46, !dbg !2573
  br i1 %393, label %399, label %.loopexit53, !dbg !2573

.loopexit54.thread:                               ; preds = %372
  %394 = icmp eq i8 %370, 46, !dbg !2573
  br i1 %394, label %.preheader49.preheader, label %.thread311, !dbg !2573

.loopexit53:                                      ; preds = %389, %.loopexit43, %.loopexit54
  %395 = phi i64 [ %391, %.loopexit54 ], [ %446, %.loopexit43 ], [ %391, %389 ], !dbg !2575
  %396 = phi i64 [ %382, %.loopexit54 ], [ %447, %.loopexit43 ], [ 0, %389 ], !dbg !2576
  %397 = phi ptr [ %383, %.loopexit54 ], [ %448, %.loopexit43 ], [ %383, %389 ], !dbg !2576
  %398 = icmp eq i64 %395, 0, !dbg !2575
  br i1 %398, label %478, label %470, !dbg !2575

399:                                              ; preds = %.loopexit54
  %400 = icmp eq i64 %391, 0, !dbg !2577
  br i1 %400, label %.preheader49.preheader, label %.loopexit51, !dbg !2577

.preheader49.preheader:                           ; preds = %399, %.loopexit54.thread
  %401 = phi ptr [ %377, %399 ], [ %368, %.loopexit54.thread ]
  %402 = phi i64 [ %378, %399 ], [ %369, %.loopexit54.thread ]
  br label %.preheader49, !dbg !2579

.preheader49:                                     ; preds = %406, %.preheader49.preheader
  %403 = phi i64 [ %407, %406 ], [ %402, %.preheader49.preheader ], !dbg !2581
  %404 = phi ptr [ %408, %406 ], [ %401, %.preheader49.preheader ], !dbg !2581
  %405 = icmp eq i64 %403, 0, !dbg !2582
  br i1 %405, label %.loopexit43, label %406, !dbg !2579

406:                                              ; preds = %.preheader49
  %407 = add i64 %403, -1, !dbg !2582
  %408 = getelementptr inbounds [0 x i8], ptr %404, i64 0, i64 1, !dbg !2582
  %409 = load i8, ptr %404, align 1, !dbg !2579, !alias.scope !2516, !noalias !2542, !noundef !18
  %410 = icmp eq i8 %409, 48, !dbg !2579
  br i1 %410, label %.preheader49, label %.loopexit51, !dbg !2579

.loopexit51:                                      ; preds = %406, %399
  %411 = phi i64 [ %391, %399 ], [ 0, %406 ]
  %412 = phi i64 [ %378, %399 ], [ %402, %406 ]
  %413 = phi i64 [ %378, %399 ], [ %403, %406 ]
  %414 = phi ptr [ %377, %399 ], [ %404, %406 ]
  %415 = icmp ugt i64 %413, 7, !dbg !2586
  br i1 %415, label %416, label %.loopexit48, !dbg !2586

416:                                              ; preds = %.loopexit51
  %417 = getelementptr inbounds { i64, [768 x i8], i32, i8, [3 x i8] }, ptr %4, i64 0, i32 1
  br label %418, !dbg !2586

418:                                              ; preds = %463, %416
  %419 = phi i64 [ %411, %416 ], [ %466, %463 ], !dbg !2587
  %420 = phi ptr [ %414, %416 ], [ %468, %463 ]
  %421 = phi i64 [ %413, %416 ], [ %467, %463 ]
  %422 = add i64 %419, 8, !dbg !2587
  %423 = icmp ult i64 %422, 768, !dbg !2587
  br i1 %423, label %453, label %.loopexit47.preheader, !dbg !2587

.loopexit48:                                      ; preds = %463, %.loopexit51
  %424 = phi i64 [ %411, %.loopexit51 ], [ %466, %463 ]
  %425 = phi i64 [ %413, %.loopexit51 ], [ %467, %463 ], !dbg !2581
  %426 = phi ptr [ %414, %.loopexit51 ], [ %468, %463 ], !dbg !2581
  %427 = icmp eq i64 %425, 0, !dbg !2588
  br i1 %427, label %.loopexit43, label %.loopexit47.preheader, !dbg !2588

.loopexit47.preheader:                            ; preds = %453, %418, %.loopexit48
  %.ph453 = phi i64 [ %424, %.loopexit48 ], [ %419, %418 ], [ %419, %453 ]
  %.ph454 = phi ptr [ %426, %.loopexit48 ], [ %420, %418 ], [ %420, %453 ]
  %.ph455 = phi i64 [ %425, %.loopexit48 ], [ %421, %418 ], [ %421, %453 ]
  br label %.loopexit47, !dbg !2593

.loopexit47:                                      ; preds = %.loopexit47.preheader, %441
  %428 = phi i64 [ %443, %441 ], [ %.ph453, %.loopexit47.preheader ]
  %429 = phi ptr [ %431, %441 ], [ %.ph454, %.loopexit47.preheader ]
  %430 = phi i64 [ %432, %441 ], [ %.ph455, %.loopexit47.preheader ]
  %431 = getelementptr inbounds [0 x i8], ptr %429, i64 0, i64 1, !dbg !2595
  %432 = add i64 %430, -1, !dbg !2595
  %433 = load i8, ptr %429, align 1, !dbg !2596, !alias.scope !2516, !noalias !2542, !noundef !18
  %434 = add i8 %433, -48, !dbg !2597
  %435 = icmp ult i8 %434, 10, !dbg !2593
  br i1 %435, label %436, label %.loopexit43, !dbg !2593

436:                                              ; preds = %.loopexit47
  %437 = icmp ult i64 %428, 768, !dbg !2602
  br i1 %437, label %438, label %441, !dbg !2602

438:                                              ; preds = %436
  %439 = getelementptr inbounds { i64, [768 x i8], i32, i8, [3 x i8] }, ptr %4, i64 0, i32 1, i64 %428, !dbg !2606
  store i8 %434, ptr %439, align 1, !dbg !2606, !alias.scope !2607, !noalias !2612
  %440 = load i64, ptr %4, align 8, !dbg !2614, !alias.scope !2607, !noalias !2612
  br label %441, !dbg !2615

441:                                              ; preds = %438, %436
  %442 = phi i64 [ %428, %436 ], [ %440, %438 ], !dbg !2614
  %443 = add i64 %442, 1, !dbg !2614
  store i64 %443, ptr %4, align 8, !dbg !2614, !alias.scope !2607, !noalias !2612
  %444 = icmp eq i64 %432, 0, !dbg !2588
  br i1 %444, label %.loopexit43, label %.loopexit47, !dbg !2588

.loopexit43:                                      ; preds = %.preheader49, %441, %.loopexit47, %.loopexit48
  %445 = phi i64 [ %412, %.loopexit48 ], [ %412, %.loopexit47 ], [ %412, %441 ], [ %402, %.preheader49 ]
  %446 = phi i64 [ %424, %.loopexit48 ], [ %443, %441 ], [ %428, %.loopexit47 ], [ 0, %.preheader49 ]
  %447 = phi i64 [ 0, %.loopexit48 ], [ 0, %441 ], [ %430, %.loopexit47 ], [ 0, %.preheader49 ], !dbg !2616
  %448 = phi ptr [ %426, %.loopexit48 ], [ %431, %441 ], [ %429, %.loopexit47 ], [ %362, %.preheader49 ], !dbg !2616
  %449 = trunc i64 %447 to i32, !dbg !2617
  %450 = trunc i64 %445 to i32, !dbg !2618
  %451 = getelementptr inbounds { i64, [768 x i8], i32, i8, [3 x i8] }, ptr %4, i64 0, i32 2, !dbg !2619
  %452 = sub i32 %449, %450, !dbg !2619
  store i32 %452, ptr %451, align 8, !dbg !2619, !noalias !2523
  br label %.loopexit53, !dbg !2620

453:                                              ; preds = %418
  %454 = load i64, ptr %420, align 1, !dbg !2621, !alias.scope !2628, !noalias !2632
  %455 = add i64 %454, 5063812098665367110, !dbg !2634
  %456 = add i64 %454, -3472328296227680304, !dbg !2638
  %457 = or i64 %455, %456, !dbg !2640
  %458 = and i64 %457, -9187201950435737472, !dbg !2640
  %459 = icmp eq i64 %458, 0, !dbg !2640
  br i1 %459, label %460, label %.loopexit47.preheader, !dbg !2641

460:                                              ; preds = %453
  %461 = icmp ugt i64 %419, 768, !dbg !2642
  br i1 %461, label %462, label %463, !dbg !2642

462:                                              ; preds = %460
  tail call fastcc void @_ZN4core5slice5index24slice_end_index_len_fail17hfdbe95b016e4b961E() #29, !dbg !2651
  unreachable, !dbg !2651

463:                                              ; preds = %460
  %464 = getelementptr inbounds i8, ptr %417, i64 %419, !dbg !2652
  store i64 %456, ptr %464, align 1, !dbg !2668, !noalias !2523
  %465 = load i64, ptr %4, align 8, !dbg !2674, !noalias !2523, !noundef !18
  %466 = add i64 %465, 8, !dbg !2674
  store i64 %466, ptr %4, align 8, !dbg !2674, !noalias !2523
  %467 = add i64 %421, -8, !dbg !2675
  %468 = getelementptr inbounds i8, ptr %420, i64 8, !dbg !2692
  %469 = icmp ugt i64 %467, 7, !dbg !2586
  br i1 %469, label %418, label %.loopexit48, !dbg !2586

470:                                              ; preds = %.loopexit53
  %471 = sub i64 %20, %396, !dbg !2698
  %472 = icmp ugt i64 %396, %20, !dbg !2700
  br i1 %472, label %473, label %474, !dbg !2700

473:                                              ; preds = %470
  tail call fastcc void @_ZN4core5slice5index24slice_end_index_len_fail17hfdbe95b016e4b961E() #29, !dbg !2709
  unreachable, !dbg !2709

474:                                              ; preds = %470
  %475 = icmp eq i64 %396, %20, !dbg !2710
  br i1 %475, label %.loopexit41, label %476, !dbg !2717

476:                                              ; preds = %474
  %477 = getelementptr inbounds i8, ptr %19, i64 %471, !dbg !2718
  br label %492, !dbg !2730

478:                                              ; preds = %502, %.loopexit41, %.loopexit53
  %479 = phi i64 [ 768, %502 ], [ %488, %.loopexit41 ], [ 0, %.loopexit53 ]
  %480 = icmp eq i64 %396, 0, !dbg !2732
  br i1 %480, label %510, label %..thread311_crit_edge, !dbg !2737

..thread311_crit_edge:                            ; preds = %478
  %481 = add i64 %396, -1, !dbg !2732
  %482 = getelementptr inbounds [0 x i8], ptr %397, i64 0, i64 1, !dbg !2732
  %.pre = load i8, ptr %397, align 1, !dbg !2738, !alias.scope !2516, !noalias !2542
  br label %.thread311, !dbg !2737

.loopexit41:                                      ; preds = %499, %492, %474
  %483 = phi i64 [ 0, %474 ], [ %493, %492 ], [ %500, %499 ], !dbg !2739
  %484 = trunc i64 %483 to i32, !dbg !2740
  %485 = getelementptr inbounds { i64, [768 x i8], i32, i8, [3 x i8] }, ptr %4, i64 0, i32 2, !dbg !2741
  %486 = load i32, ptr %485, align 8, !dbg !2741, !noalias !2523, !noundef !18
  %487 = add i32 %486, %484, !dbg !2741
  %488 = sub i64 %395, %483, !dbg !2742
  store i64 %488, ptr %4, align 8, !dbg !2742, !noalias !2523
  %489 = trunc i64 %488 to i32, !dbg !2743
  %490 = add i32 %487, %489, !dbg !2744
  store i32 %490, ptr %485, align 8, !dbg !2744, !noalias !2523
  %491 = icmp ugt i64 %488, 768, !dbg !2745
  br i1 %491, label %502, label %478, !dbg !2745

492:                                              ; preds = %499, %476
  %493 = phi i64 [ %500, %499 ], [ 0, %476 ]
  %494 = phi ptr [ %495, %499 ], [ %477, %476 ]
  %495 = getelementptr inbounds i8, ptr %494, i64 -1, !dbg !2746
  %496 = load i8, ptr %495, align 1, !dbg !2751, !alias.scope !2516, !noalias !2542, !noundef !18
  switch i8 %496, label %.loopexit41 [
    i8 48, label %497
    i8 46, label %499
  ], !dbg !2730

497:                                              ; preds = %492
  %498 = add i64 %493, 1, !dbg !2752
  br label %499, !dbg !2753

499:                                              ; preds = %497, %492
  %500 = phi i64 [ %493, %492 ], [ %498, %497 ], !dbg !2576
  %501 = icmp eq ptr %495, %19, !dbg !2710
  br i1 %501, label %.loopexit41, label %492, !dbg !2717

502:                                              ; preds = %.loopexit41
  %503 = getelementptr inbounds { i64, [768 x i8], i32, i8, [3 x i8] }, ptr %4, i64 0, i32 3, !dbg !2754
  store i8 1, ptr %503, align 4, !dbg !2754, !noalias !2523
  store i64 768, ptr %4, align 8, !dbg !2755, !noalias !2523
  br label %478, !dbg !2756

.thread311:                                       ; preds = %..thread311_crit_edge, %.loopexit54.thread
  %504 = phi i8 [ %.pre, %..thread311_crit_edge ], [ %370, %.loopexit54.thread ], !dbg !2738
  %505 = phi i64 [ %481, %..thread311_crit_edge ], [ %369, %.loopexit54.thread ]
  %506 = phi ptr [ %482, %..thread311_crit_edge ], [ %368, %.loopexit54.thread ]
  %507 = phi i64 [ %479, %..thread311_crit_edge ], [ 0, %.loopexit54.thread ]
  %508 = phi i64 [ %396, %..thread311_crit_edge ], [ %364, %.loopexit54.thread ]
  %509 = phi ptr [ %397, %..thread311_crit_edge ], [ %365, %.loopexit54.thread ]
  switch i8 %504, label %510 [
    i8 101, label %517
    i8 69, label %517
  ], !dbg !2757

510:                                              ; preds = %546, %.thread311, %478
  %511 = phi i64 [ %507, %546 ], [ %507, %.thread311 ], [ %479, %478 ]
  %512 = icmp ult i64 %511, 19, !dbg !2758
  br i1 %512, label %.loopexit55, label %_ZN4core3num7dec2flt7decimal13parse_decimal17haaefc1683bb30175E.exit, !dbg !2769

.loopexit55:                                      ; preds = %363, %510
  %513 = phi i64 [ %511, %510 ], [ 0, %363 ]
  %514 = getelementptr i8, ptr %4, i64 %513, !dbg !2769
  %515 = getelementptr i8, ptr %514, i64 8, !dbg !2769
  %516 = sub nuw nsw i64 19, %513, !dbg !2769
  call void @llvm.memset.p0.i64(ptr align 1 %515, i8 0, i64 %516, i1 false), !dbg !2770, !noalias !2523
  br label %_ZN4core3num7dec2flt7decimal13parse_decimal17haaefc1683bb30175E.exit, !dbg !2772

517:                                              ; preds = %.thread311, %.thread311
  %518 = icmp eq i64 %505, 0, !dbg !2773
  %519 = getelementptr inbounds [0 x i8], ptr %509, i64 0, i64 2, !dbg !2773
  %520 = add i64 %508, -2, !dbg !2773
  br i1 %518, label %546, label %521, !dbg !2779

521:                                              ; preds = %517
  %522 = load i8, ptr %506, align 1, !dbg !2780, !alias.scope !2516, !noalias !2542, !noundef !18
  %523 = icmp eq i8 %522, 45, !dbg !2781
  switch i8 %522, label %.preheader216.preheader [
    i8 45, label %524
    i8 43, label %524
  ], !dbg !2782

524:                                              ; preds = %521, %521
  %525 = icmp eq i64 %520, 0, !dbg !2783
  br i1 %525, label %.loopexit40, label %.preheader216.preheader, !dbg !2783

.preheader216.preheader:                          ; preds = %524, %521
  %.ph = phi ptr [ %506, %521 ], [ %519, %524 ]
  %.ph450 = phi i64 [ %505, %521 ], [ %520, %524 ]
  br label %.preheader216, !dbg !2789

.preheader216:                                    ; preds = %.preheader216.preheader, %533
  %526 = phi i32 [ %540, %533 ], [ 0, %.preheader216.preheader ], !dbg !2791
  %527 = phi ptr [ %535, %533 ], [ %.ph, %.preheader216.preheader ]
  %528 = phi i64 [ %534, %533 ], [ %.ph450, %.preheader216.preheader ]
  %529 = phi i32 [ %541, %533 ], [ 0, %.preheader216.preheader ]
  %530 = load i8, ptr %527, align 1, !dbg !2792, !alias.scope !2793, !noalias !2796, !noundef !18
  %531 = add i8 %530, -48, !dbg !2798
  %532 = icmp ult i8 %531, 10, !dbg !2789
  br i1 %532, label %533, label %.loopexit40, !dbg !2789

533:                                              ; preds = %.preheader216
  %534 = add i64 %528, -1, !dbg !2803
  %535 = getelementptr inbounds [0 x i8], ptr %527, i64 0, i64 1, !dbg !2803
  %536 = icmp slt i32 %529, 65536, !dbg !2804
  %537 = mul i32 %529, 10, !dbg !2804
  %538 = zext nneg i8 %531 to i32, !dbg !2804
  %539 = add i32 %537, %538, !dbg !2804
  %540 = select i1 %536, i32 %539, i32 %526, !dbg !2804
  %541 = select i1 %536, i32 %539, i32 %529, !dbg !2804
  %542 = icmp eq i64 %534, 0, !dbg !2783
  br i1 %542, label %.loopexit40, label %.preheader216, !dbg !2783

.loopexit40:                                      ; preds = %533, %.preheader216, %524
  %543 = phi i32 [ 0, %524 ], [ %540, %533 ], [ %526, %.preheader216 ], !dbg !2791
  %544 = sub i32 0, %543
  %545 = select i1 %523, i32 %544, i32 %543, !dbg !2807
  br label %546, !dbg !2807

546:                                              ; preds = %.loopexit40, %517
  %547 = phi i32 [ %545, %.loopexit40 ], [ 0, %517 ], !dbg !2808
  %548 = getelementptr inbounds { i64, [768 x i8], i32, i8, [3 x i8] }, ptr %4, i64 0, i32 2, !dbg !2809
  %549 = load i32, ptr %548, align 8, !dbg !2809, !noalias !2523, !noundef !18
  %550 = add i32 %549, %547, !dbg !2809
  store i32 %550, ptr %548, align 8, !dbg !2809, !noalias !2523
  br label %510, !dbg !2810

_ZN4core3num7dec2flt7decimal13parse_decimal17haaefc1683bb30175E.exit: ; preds = %.loopexit55, %510
  call void @llvm.memcpy.p0.p0.i64(ptr noundef nonnull align 8 dereferenceable(784) %5, ptr noundef nonnull align 8 dereferenceable(784) %4, i64 784, i1 false), !dbg !2772, !noalias !2811
  call void @llvm.lifetime.end.p0(i64 784, ptr nonnull %4), !dbg !2812, !noalias !2523
  %551 = load i64, ptr %5, align 8, !dbg !2813, !noalias !2513, !noundef !18
  %552 = icmp eq i64 %551, 0, !dbg !2813
  %553 = getelementptr inbounds { i64, [768 x i8], i32, i8, [3 x i8] }, ptr %5, i64 0, i32 2
  %554 = load i32, ptr %553, align 8, !noalias !2513
  %555 = icmp slt i32 %554, -324
  %556 = select i1 %552, i1 true, i1 %555, !dbg !2813
  br i1 %556, label %.loopexit36, label %557, !dbg !2813

557:                                              ; preds = %_ZN4core3num7dec2flt7decimal13parse_decimal17haaefc1683bb30175E.exit
  %558 = icmp sgt i32 %554, 309, !dbg !2815
  br i1 %558, label %.loopexit36, label %559, !dbg !2815

559:                                              ; preds = %557
  %560 = icmp sgt i32 %554, 0, !dbg !2816
  br i1 %560, label %.preheader37, label %.loopexit39, !dbg !2816

561:                                              ; preds = %573
  %562 = trunc i64 %574 to i32, !dbg !2818
  %563 = add i32 %565, %562, !dbg !2821
  %564 = icmp sgt i32 %575, 0, !dbg !2816
  br i1 %564, label %.preheader37, label %.loopexit39, !dbg !2816

.preheader37:                                     ; preds = %559, %561
  %565 = phi i32 [ %563, %561 ], [ 0, %559 ]
  %566 = phi i32 [ %575, %561 ], [ %554, %559 ]
  %567 = icmp ult i32 %566, 19, !dbg !2822
  br i1 %567, label %568, label %573, !dbg !2822

568:                                              ; preds = %.preheader37
  %569 = zext nneg i32 %566 to i64
  %570 = getelementptr inbounds [19 x i8], ptr @anon.81eb2ca617e7b492be846be889fa0cc1.38, i64 0, i64 %569, !dbg !2826
  %571 = load i8, ptr %570, align 1, !dbg !2826, !noalias !2513, !noundef !18
  %572 = zext i8 %571 to i64, !dbg !2826
  br label %573, !dbg !2827

573:                                              ; preds = %568, %.preheader37
  %574 = phi i64 [ %572, %568 ], [ 60, %.preheader37 ], !dbg !2828
  call fastcc void @_ZN4core3num7dec2flt7decimal7Decimal11right_shift17h9c89549016994516E(ptr noalias noundef nonnull align 8 dereferenceable(784) %5, i64 noundef %574), !dbg !2829, !noalias !1924
  %575 = load i32, ptr %553, align 8, !dbg !2830, !noalias !2513, !noundef !18
  %576 = icmp slt i32 %575, -2047, !dbg !2830
  br i1 %576, label %.loopexit36, label %561, !dbg !2830

.loopexit39:                                      ; preds = %561, %559
  %577 = phi i32 [ %554, %559 ], [ %575, %561 ], !dbg !2831
  %578 = phi i32 [ 0, %559 ], [ %563, %561 ], !dbg !2832
  %579 = getelementptr inbounds { i64, [768 x i8], i32, i8, [3 x i8] }, ptr %5, i64 0, i32 1
  br label %580, !dbg !2831

580:                                              ; preds = %733, %.loopexit39
  %581 = phi i32 [ %578, %.loopexit39 ], [ %735, %733 ]
  %582 = phi i32 [ %577, %.loopexit39 ], [ %604, %733 ]
  %583 = icmp eq i32 %582, 0, !dbg !2833
  br i1 %583, label %588, label %591, !dbg !2833

584:                                              ; preds = %733, %588
  %585 = phi i32 [ %735, %733 ], [ %581, %588 ]
  %586 = add i32 %585, -1, !dbg !2834
  %587 = icmp slt i32 %586, -1022, !dbg !2835
  br i1 %587, label %.preheader34, label %.loopexit35, !dbg !2835

588:                                              ; preds = %580
  %589 = load i8, ptr %579, align 8, !dbg !2836, !noalias !2513, !noundef !18
  %590 = icmp ugt i8 %589, 4, !dbg !2836
  br i1 %590, label %584, label %599, !dbg !2836

591:                                              ; preds = %580
  %592 = sub i32 0, %582, !dbg !2837
  %593 = icmp ult i32 %592, 19, !dbg !2838
  br i1 %593, label %594, label %602, !dbg !2838

594:                                              ; preds = %591
  %595 = zext nneg i32 %592 to i64, !dbg !2837
  %596 = getelementptr inbounds [19 x i8], ptr @anon.81eb2ca617e7b492be846be889fa0cc1.38, i64 0, i64 %595, !dbg !2840
  %597 = load i8, ptr %596, align 1, !dbg !2840, !noalias !2513, !noundef !18
  %598 = zext i8 %597 to i64, !dbg !2840
  br label %602, !dbg !2841

599:                                              ; preds = %588
  %600 = icmp ult i8 %589, 2, !dbg !2842
  %601 = select i1 %600, i64 2, i64 1, !dbg !2843
  br label %602, !dbg !2843

602:                                              ; preds = %599, %594, %591
  %603 = phi i64 [ %601, %599 ], [ %598, %594 ], [ 60, %591 ], !dbg !2843
  call fastcc void @_ZN4core3num7dec2flt7decimal7Decimal10left_shift17hea3542b07885afffE(ptr noalias noundef nonnull align 8 dereferenceable(784) %5, i64 noundef %603), !dbg !2844, !noalias !1924
  %604 = load i32, ptr %553, align 8, !dbg !2846, !noalias !2513, !noundef !18
  %605 = icmp sgt i32 %604, 2047, !dbg !2846
  br i1 %605, label %.loopexit36, label %733, !dbg !2846

.loopexit35:                                      ; preds = %.preheader34, %584
  %606 = phi i32 [ %586, %584 ], [ %613, %.preheader34 ], !dbg !2843
  %607 = add i32 %606, 1023, !dbg !2847
  %608 = icmp sgt i32 %607, 2046, !dbg !2847
  br i1 %608, label %.loopexit36, label %615, !dbg !2847

.preheader34:                                     ; preds = %584, %.preheader34
  %609 = phi i32 [ %613, %.preheader34 ], [ %586, %584 ]
  %610 = sub nuw nsw i32 -1022, %609, !dbg !2848
  %611 = tail call i32 @llvm.umin.i32(i32 %610, i32 60), !dbg !2849
  %612 = zext nneg i32 %611 to i64, !dbg !2849
  call fastcc void @_ZN4core3num7dec2flt7decimal7Decimal11right_shift17h9c89549016994516E(ptr noalias noundef nonnull align 8 dereferenceable(784) %5, i64 noundef %612), !dbg !2851, !noalias !1924
  %613 = add nuw nsw i32 %611, %609, !dbg !2852
  %614 = icmp ult i32 %613, -1022, !dbg !2835
  br i1 %614, label %.preheader34, label %.loopexit35, !dbg !2835

615:                                              ; preds = %.loopexit35
  call fastcc void @_ZN4core3num7dec2flt7decimal7Decimal10left_shift17hea3542b07885afffE(ptr noalias noundef nonnull align 8 dereferenceable(784) %5, i64 noundef 53), !dbg !2853, !noalias !1924
  %616 = load i64, ptr %5, align 8, !dbg !2854, !alias.scope !2857, !noalias !2513, !noundef !18
  %617 = icmp eq i64 %616, 0, !dbg !2854
  %618 = load i32, ptr %553, align 8, !alias.scope !2857, !noalias !2513
  %619 = icmp slt i32 %618, 0
  %620 = select i1 %617, i1 true, i1 %619, !dbg !2854
  br i1 %620, label %725, label %621, !dbg !2854

621:                                              ; preds = %615
  %622 = icmp ugt i32 %618, 18, !dbg !2860
  br i1 %622, label %666, label %623, !dbg !2860

623:                                              ; preds = %621
  %624 = zext nneg i32 %618 to i64
  %625 = icmp eq i32 %618, 0, !dbg !2861
  br i1 %625, label %.loopexit33, label %.preheader32, !dbg !2874

.loopexit33:                                      ; preds = %660, %623
  %626 = phi i64 [ 0, %623 ], [ %661, %660 ], !dbg !2875
  %627 = icmp ugt i64 %616, %624, !dbg !2876
  br i1 %627, label %637, label %663, !dbg !2876

.preheader32:                                     ; preds = %623, %660
  %628 = phi i64 [ %661, %660 ], [ 0, %623 ]
  %629 = phi i64 [ %630, %660 ], [ 0, %623 ]
  %630 = add nuw nsw i64 %629, 1, !dbg !2878
  %631 = mul i64 %628, 10, !dbg !2883
  %632 = icmp ult i64 %629, %616, !dbg !2885
  br i1 %632, label %655, label %660, !dbg !2885

633:                                              ; preds = %637
  %634 = icmp ugt i8 %639, 4, !dbg !2886
  br i1 %634, label %635, label %663, !dbg !2887

635:                                              ; preds = %649, %644, %633
  %636 = add i64 %626, 1
  br label %663, !dbg !2887

637:                                              ; preds = %.loopexit33
  %638 = getelementptr inbounds { i64, [768 x i8], i32, i8, [3 x i8] }, ptr %5, i64 0, i32 1, i64 %624, !dbg !2888
  %639 = load i8, ptr %638, align 1, !dbg !2888, !alias.scope !2857, !noalias !2513, !noundef !18
  %640 = icmp eq i8 %639, 5, !dbg !2889
  %641 = add nuw nsw i64 %624, 1
  %642 = icmp eq i64 %641, %616
  %643 = select i1 %640, i1 %642, i1 false, !dbg !2889
  br i1 %643, label %644, label %633, !dbg !2889

644:                                              ; preds = %637
  %645 = getelementptr inbounds { i64, [768 x i8], i32, i8, [3 x i8] }, ptr %5, i64 0, i32 3, !dbg !2890
  %646 = load i8, ptr %645, align 4, !dbg !2890, !range !336, !alias.scope !2857, !noalias !2513, !noundef !18
  %647 = icmp eq i8 %646, 0, !dbg !2890
  br i1 %647, label %648, label %635, !dbg !2890

648:                                              ; preds = %644
  br i1 %625, label %663, label %649, !dbg !2891

649:                                              ; preds = %648
  %650 = add nsw i64 %624, -1, !dbg !2892
  %651 = getelementptr inbounds { i64, [768 x i8], i32, i8, [3 x i8] }, ptr %5, i64 0, i32 1, i64 %650, !dbg !2893
  %652 = load i8, ptr %651, align 1, !dbg !2893, !alias.scope !2857, !noalias !2513, !noundef !18
  %653 = and i8 %652, 1, !dbg !2894
  %654 = icmp eq i8 %653, 0, !dbg !2894
  br i1 %654, label %663, label %635, !dbg !2887

655:                                              ; preds = %.preheader32
  %656 = getelementptr inbounds { i64, [768 x i8], i32, i8, [3 x i8] }, ptr %5, i64 0, i32 1, i64 %629, !dbg !2895
  %657 = load i8, ptr %656, align 1, !dbg !2895, !alias.scope !2857, !noalias !2513, !noundef !18
  %658 = zext i8 %657 to i64, !dbg !2895
  %659 = add i64 %631, %658, !dbg !2896
  br label %660, !dbg !2897

660:                                              ; preds = %655, %.preheader32
  %661 = phi i64 [ %659, %655 ], [ %631, %.preheader32 ], !dbg !2898
  %662 = icmp eq i64 %630, %624, !dbg !2861
  br i1 %662, label %.loopexit33, label %.preheader32, !dbg !2874

663:                                              ; preds = %649, %648, %635, %633, %.loopexit33
  %664 = phi i64 [ %636, %635 ], [ %626, %633 ], [ %626, %649 ], [ %626, %.loopexit33 ], [ %626, %648 ], !dbg !2899
  %665 = icmp ugt i64 %664, 9007199254740991, !dbg !2900
  br i1 %665, label %666, label %719, !dbg !2900

666:                                              ; preds = %663, %621
  call fastcc void @_ZN4core3num7dec2flt7decimal7Decimal11right_shift17h9c89549016994516E(ptr noalias noundef nonnull align 8 dereferenceable(784) %5, i64 noundef 1), !dbg !2902, !noalias !1924
  %667 = add i32 %606, 1, !dbg !2903
  %668 = load i64, ptr %5, align 8, !dbg !2904, !alias.scope !2906, !noalias !2513, !noundef !18
  %669 = icmp eq i64 %668, 0, !dbg !2904
  %670 = load i32, ptr %553, align 8, !alias.scope !2906, !noalias !2513
  %671 = icmp slt i32 %670, 0
  %672 = select i1 %669, i1 true, i1 %671, !dbg !2904
  br i1 %672, label %715, label %673, !dbg !2904

673:                                              ; preds = %666
  %674 = icmp ugt i32 %670, 18, !dbg !2909
  br i1 %674, label %715, label %675, !dbg !2909

675:                                              ; preds = %673
  %676 = zext nneg i32 %670 to i64
  %677 = icmp eq i32 %670, 0, !dbg !2910
  br i1 %677, label %.loopexit, label %.preheader, !dbg !2914

.loopexit:                                        ; preds = %712, %675
  %678 = phi i64 [ 0, %675 ], [ %713, %712 ], !dbg !2915
  %679 = icmp ugt i64 %668, %676, !dbg !2916
  br i1 %679, label %689, label %715, !dbg !2916

.preheader:                                       ; preds = %675, %712
  %680 = phi i64 [ %713, %712 ], [ 0, %675 ]
  %681 = phi i64 [ %682, %712 ], [ 0, %675 ]
  %682 = add nuw nsw i64 %681, 1, !dbg !2917
  %683 = mul i64 %680, 10, !dbg !2920
  %684 = icmp ult i64 %681, %668, !dbg !2921
  br i1 %684, label %707, label %712, !dbg !2921

685:                                              ; preds = %689
  %686 = icmp ugt i8 %691, 4, !dbg !2922
  br i1 %686, label %687, label %715, !dbg !2923

687:                                              ; preds = %701, %696, %685
  %688 = add i64 %678, 1
  br label %715, !dbg !2923

689:                                              ; preds = %.loopexit
  %690 = getelementptr inbounds { i64, [768 x i8], i32, i8, [3 x i8] }, ptr %5, i64 0, i32 1, i64 %676, !dbg !2924
  %691 = load i8, ptr %690, align 1, !dbg !2924, !alias.scope !2906, !noalias !2513, !noundef !18
  %692 = icmp eq i8 %691, 5, !dbg !2925
  %693 = add nuw nsw i64 %676, 1
  %694 = icmp eq i64 %693, %668
  %695 = select i1 %692, i1 %694, i1 false, !dbg !2925
  br i1 %695, label %696, label %685, !dbg !2925

696:                                              ; preds = %689
  %697 = getelementptr inbounds { i64, [768 x i8], i32, i8, [3 x i8] }, ptr %5, i64 0, i32 3, !dbg !2926
  %698 = load i8, ptr %697, align 4, !dbg !2926, !range !336, !alias.scope !2906, !noalias !2513, !noundef !18
  %699 = icmp eq i8 %698, 0, !dbg !2926
  br i1 %699, label %700, label %687, !dbg !2926

700:                                              ; preds = %696
  br i1 %677, label %715, label %701, !dbg !2927

701:                                              ; preds = %700
  %702 = add nsw i64 %676, -1, !dbg !2928
  %703 = getelementptr inbounds { i64, [768 x i8], i32, i8, [3 x i8] }, ptr %5, i64 0, i32 1, i64 %702, !dbg !2929
  %704 = load i8, ptr %703, align 1, !dbg !2929, !alias.scope !2906, !noalias !2513, !noundef !18
  %705 = and i8 %704, 1, !dbg !2930
  %706 = icmp eq i8 %705, 0, !dbg !2930
  br i1 %706, label %715, label %687, !dbg !2923

707:                                              ; preds = %.preheader
  %708 = getelementptr inbounds { i64, [768 x i8], i32, i8, [3 x i8] }, ptr %5, i64 0, i32 1, i64 %681, !dbg !2931
  %709 = load i8, ptr %708, align 1, !dbg !2931, !alias.scope !2906, !noalias !2513, !noundef !18
  %710 = zext i8 %709 to i64, !dbg !2931
  %711 = add i64 %683, %710, !dbg !2932
  br label %712, !dbg !2933

712:                                              ; preds = %707, %.preheader
  %713 = phi i64 [ %711, %707 ], [ %683, %.preheader ], !dbg !2934
  %714 = icmp eq i64 %682, %676, !dbg !2910
  br i1 %714, label %.loopexit, label %.preheader, !dbg !2914

715:                                              ; preds = %701, %700, %687, %685, %.loopexit, %673, %666
  %716 = phi i64 [ 0, %666 ], [ -1, %673 ], [ %688, %687 ], [ %678, %685 ], [ %678, %701 ], [ %678, %.loopexit ], [ %678, %700 ], !dbg !2935
  %717 = add i32 %606, 1024, !dbg !2936
  %718 = icmp sgt i32 %717, 2046, !dbg !2936
  br i1 %718, label %.loopexit36, label %719, !dbg !2936

719:                                              ; preds = %715, %663
  %720 = phi i32 [ %607, %663 ], [ %717, %715 ], !dbg !2937
  %721 = phi i32 [ %606, %663 ], [ %667, %715 ], !dbg !2843
  %722 = phi i64 [ %664, %663 ], [ %716, %715 ], !dbg !2843
  %723 = freeze i64 %722, !dbg !2938
  %724 = icmp ult i64 %723, 4503599627370496, !dbg !2938
  br i1 %724, label %725, label %729, !dbg !2938

725:                                              ; preds = %719, %615
  %726 = phi i32 [ %721, %719 ], [ %606, %615 ]
  %727 = phi i64 [ %723, %719 ], [ 0, %615 ]
  %728 = add i32 %726, 1022
  br label %729, !dbg !2938

729:                                              ; preds = %725, %719
  %730 = phi i64 [ %727, %725 ], [ %723, %719 ]
  %731 = phi i32 [ %728, %725 ], [ %720, %719 ]
  %732 = and i64 %730, 4503599627370495, !dbg !2940
  call void @llvm.lifetime.end.p0(i64 784, ptr nonnull %5), !dbg !2941, !noalias !2513
  br label %738, !dbg !2942

733:                                              ; preds = %602
  %734 = trunc i64 %603 to i32, !dbg !2943
  %735 = sub i32 %581, %734, !dbg !2944
  %736 = icmp slt i32 %604, 1, !dbg !2831
  br i1 %736, label %580, label %584, !dbg !2831

.loopexit36:                                      ; preds = %573, %602, %715, %.loopexit35, %557, %_ZN4core3num7dec2flt7decimal13parse_decimal17haaefc1683bb30175E.exit
  %737 = phi i32 [ 0, %_ZN4core3num7dec2flt7decimal13parse_decimal17haaefc1683bb30175E.exit ], [ 2047, %557 ], [ 2047, %.loopexit35 ], [ 2047, %715 ], [ 2047, %602 ], [ 0, %573 ], !dbg !2832
  call void @llvm.lifetime.end.p0(i64 784, ptr nonnull %5), !dbg !2941, !noalias !2513
  br label %738, !dbg !2942

738:                                              ; preds = %.loopexit36, %729, %353, %351
  %739 = phi i64 [ %346, %351 ], [ %346, %353 ], [ 0, %.loopexit36 ], [ %732, %729 ], !dbg !2945
  %740 = phi i32 [ %347, %351 ], [ %347, %353 ], [ %737, %.loopexit36 ], [ %731, %729 ], !dbg !2946
  %741 = zext i32 %740 to i64, !dbg !2947
  %742 = shl i64 %741, 52, !dbg !2947
  %743 = or i64 %742, %739, !dbg !2952
  %744 = bitcast i64 %743 to double, !dbg !2953
  %745 = fneg double %744
  %746 = select i1 %9, double %745, double %744, !dbg !2968
  %747 = getelementptr inbounds { [1 x i64], double }, ptr %0, i64 0, i32 1, !dbg !2970
  store double %746, ptr %747, align 8, !dbg !2970, !alias.scope !1924, !noalias !1928
  br label %748, !dbg !2971

748:                                              ; preds = %738, %339, %337, %332, %16, %10
  %.sink = phi i8 [ 0, %738 ], [ 0, %339 ], [ 1, %16 ], [ 1, %10 ], [ 1, %337 ], [ 0, %332 ]
  store i8 %.sink, ptr %0, align 8, !dbg !2972, !alias.scope !1924, !noalias !1928
  ret void, !dbg !2973
}

; Function Attrs: mustprogress nofree norecurse nosync nounwind willreturn memory(none) uwtable
define internal fastcc { i64, i32 } @_ZN4core3num7dec2flt6lemire13compute_float17hf7d98aff52ffa4e0E(i64 noundef %0, i64 noundef %1) unnamed_addr #24 !dbg !2974 {
  %3 = icmp eq i64 %1, 0, !dbg !2977
  %4 = icmp slt i64 %0, -342
  %5 = or i1 %4, %3, !dbg !2977
  br i1 %5, label %78, label %6, !dbg !2977

6:                                                ; preds = %2
  %7 = icmp sgt i64 %0, 308, !dbg !2981
  br i1 %7, label %78, label %8, !dbg !2981

8:                                                ; preds = %6
  %9 = tail call i64 @llvm.ctlz.i64(i64 %1, i1 false), !dbg !2982, !range !2987
  %10 = trunc i64 %9 to i32, !dbg !2982
  %11 = shl i64 %1, %9, !dbg !2988
  %12 = add nsw i64 %0, 342, !dbg !2990
  %13 = getelementptr inbounds [651 x { i64, i64 }], ptr @_ZN4core3num7dec2flt5table17POWER_OF_FIVE_12817h1d640e41b0a2cf90E, i64 0, i64 %12, !dbg !2994
  %14 = load i64, ptr %13, align 8, !dbg !2994, !noundef !18
  %15 = zext i64 %11 to i128, !dbg !2996
  %16 = zext i64 %14 to i128, !dbg !3001
  %17 = mul nuw i128 %16, %15, !dbg !2996
  %18 = trunc i128 %17 to i64, !dbg !3002
  %19 = lshr i128 %17, 64, !dbg !3004
  %20 = trunc i128 %19 to i64, !dbg !3004
  %21 = and i64 %20, 511, !dbg !3005
  %22 = icmp eq i64 %21, 511, !dbg !3005
  br i1 %22, label %23, label %34, !dbg !3005

23:                                               ; preds = %8
  %24 = getelementptr inbounds [651 x { i64, i64 }], ptr @_ZN4core3num7dec2flt5table17POWER_OF_FIVE_12817h1d640e41b0a2cf90E, i64 0, i64 %12, i32 1, !dbg !3007
  %25 = load i64, ptr %24, align 8, !dbg !3007, !noundef !18
  %26 = zext i64 %25 to i128, !dbg !3008
  %27 = mul nuw i128 %26, %15, !dbg !3011
  %28 = lshr i128 %27, 64, !dbg !3012
  %29 = trunc i128 %28 to i64, !dbg !3012
  %30 = add i64 %29, %18, !dbg !3014
  %31 = icmp ult i64 %30, %29, !dbg !3020
  %32 = zext i1 %31 to i64, !dbg !3020
  %33 = add nuw i64 %32, %20, !dbg !3020
  br label %34, !dbg !3020

34:                                               ; preds = %23, %8
  %35 = phi i64 [ %18, %8 ], [ %30, %23 ], !dbg !3021
  %36 = phi i64 [ %20, %8 ], [ %33, %23 ], !dbg !3021
  %37 = icmp ne i64 %35, -1, !dbg !3022
  %38 = add nsw i64 %0, 27
  %39 = icmp ult i64 %38, 83
  %40 = or i1 %39, %37, !dbg !3022
  br i1 %40, label %41, label %78, !dbg !3022

41:                                               ; preds = %34
  %42 = lshr i64 %36, 63, !dbg !3024
  %43 = trunc i64 %42 to i32, !dbg !3024
  %44 = add nuw nsw i64 %42, 9, !dbg !3025
  %45 = lshr i64 %36, %44, !dbg !3027
  %46 = trunc i64 %0 to i32, !dbg !3028
  %47 = mul nsw i32 %46, 217706, !dbg !3030
  %48 = ashr i32 %47, 16, !dbg !3039
  %49 = add nsw i32 %48, 63, !dbg !3039
  %50 = sub nsw i32 %49, %10, !dbg !3038
  %51 = add nsw i32 %50, %43, !dbg !3038
  %52 = icmp slt i32 %51, -1022, !dbg !3040
  br i1 %52, label %72, label %53, !dbg !3040

53:                                               ; preds = %41
  %54 = icmp ult i64 %35, 2, !dbg !3042
  %55 = add nsw i64 %0, 4, !dbg !3042
  %56 = icmp ult i64 %55, 28, !dbg !3042
  %57 = and i1 %56, %54, !dbg !3042
  %58 = and i64 %45, 3
  %59 = icmp eq i64 %58, 1
  %60 = select i1 %57, i1 %59, i1 false, !dbg !3042
  %61 = shl i64 %45, %44
  %62 = icmp eq i64 %61, %36
  %63 = select i1 %60, i1 %62, i1 false, !dbg !3042
  %64 = and i64 %45, 72057594037927934
  %65 = select i1 %63, i64 %64, i64 %45, !dbg !3042
  %66 = and i64 %65, 1, !dbg !3043
  %67 = add nuw nsw i64 %66, %65, !dbg !3044
  %68 = icmp ugt i64 %67, 18014398509481983, !dbg !3045
  %69 = select i1 %68, i32 1024, i32 1023, !dbg !3045
  %70 = add nsw i32 %69, %51, !dbg !3045
  %71 = icmp ugt i32 %70, 2046, !dbg !3046
  br i1 %71, label %78, label %74, !dbg !3046

72:                                               ; preds = %41
  %73 = icmp ult i32 %51, -1085, !dbg !3047
  br i1 %73, label %78, label %83, !dbg !3047

74:                                               ; preds = %53
  %75 = lshr i64 %67, 1, !dbg !3048
  %76 = and i64 %75, 9218868437227405311, !dbg !3049
  %77 = select i1 %68, i64 0, i64 %76, !dbg !3049
  br label %78, !dbg !3050

78:                                               ; preds = %83, %74, %72, %53, %34, %6, %2
  %79 = phi i32 [ %70, %74 ], [ 0, %2 ], [ 2047, %6 ], [ %92, %83 ], [ 2047, %53 ], [ 0, %72 ], [ -1, %34 ], !dbg !3051
  %80 = phi i64 [ %77, %74 ], [ 0, %2 ], [ 0, %6 ], [ %90, %83 ], [ 0, %53 ], [ 0, %72 ], [ 0, %34 ], !dbg !3051
  %81 = insertvalue { i64, i32 } poison, i64 %80, 0, !dbg !3050
  %82 = insertvalue { i64, i32 } %81, i32 %79, 1, !dbg !3050
  ret { i64, i32 } %82, !dbg !3050

83:                                               ; preds = %72
  %84 = sub nsw i32 2, %51, !dbg !3047
  %85 = and i32 %84, 63, !dbg !3052
  %86 = zext nneg i32 %85 to i64, !dbg !3052
  %87 = lshr i64 %45, %86, !dbg !3052
  %88 = and i64 %87, 1, !dbg !3053
  %89 = add nuw nsw i64 %88, %87, !dbg !3054
  %90 = lshr i64 %89, 1, !dbg !3055
  %91 = icmp ugt i64 %89, 9007199254740991, !dbg !3056
  %92 = zext i1 %91 to i32, !dbg !3057
  br label %78, !dbg !3058
}

; Function Attrs: mustprogress nocallback nofree nosync nounwind speculatable willreturn memory(none)
declare { i64, i1 } @llvm.smul.with.overflow.i64(i64, i64) #15

; Function Attrs: mustprogress nocallback nofree nosync nounwind speculatable willreturn memory(none)
declare { i64, i1 } @llvm.ssub.with.overflow.i64(i64, i64) #15

; Function Attrs: mustprogress nocallback nofree nosync nounwind speculatable willreturn memory(none)
declare { i64, i1 } @llvm.sadd.with.overflow.i64(i64, i64) #15

; Function Attrs: uwtable
define internal fastcc noundef zeroext i1 @_ZN4core3fmt9Formatter19pad_formatted_parts17h4378ef63918461d4E(ptr noalias nocapture noundef align 8 dereferenceable(64) %0, ptr noalias nocapture noundef readonly align 8 dereferenceable(32) %1) unnamed_addr #16 !dbg !3059 {
  %3 = alloca { { ptr, i64 }, { ptr, i64 } }, align 8
  %4 = load i64, ptr %0, align 8, !dbg !3060, !range !25, !noundef !18
  %5 = icmp eq i64 %4, 0, !dbg !3060
  br i1 %5, label %27, label %6, !dbg !3060

6:                                                ; preds = %2
  %7 = getelementptr inbounds { i64, i64 }, ptr %0, i64 0, i32 1, !dbg !3062
  %8 = load i64, ptr %7, align 8, !dbg !3062, !noundef !18
  call void @llvm.lifetime.start.p0(i64 32, ptr nonnull %3), !dbg !3063
  %9 = load ptr, ptr %1, align 8, !dbg !3064, !nonnull !18, !align !31, !noundef !18
  %10 = getelementptr inbounds { ptr, i64 }, ptr %1, i64 0, i32 1, !dbg !3064
  %11 = load i64, ptr %10, align 8, !dbg !3064, !noundef !18
  %12 = getelementptr inbounds { { ptr, i64 }, { ptr, i64 } }, ptr %1, i64 0, i32 1, !dbg !3078
  %13 = load ptr, ptr %12, align 8, !dbg !3078, !nonnull !18, !align !871, !noundef !18
  %14 = getelementptr inbounds { { ptr, i64 }, { ptr, i64 } }, ptr %1, i64 0, i32 1, i32 1, !dbg !3078
  %15 = load i64, ptr %14, align 8, !dbg !3078, !noundef !18
  store ptr %9, ptr %3, align 8, !dbg !3082
  %16 = getelementptr inbounds { ptr, i64 }, ptr %3, i64 0, i32 1, !dbg !3082
  store i64 %11, ptr %16, align 8, !dbg !3082
  %17 = getelementptr inbounds { { ptr, i64 }, { ptr, i64 } }, ptr %3, i64 0, i32 1, !dbg !3082
  store ptr %13, ptr %17, align 8, !dbg !3082
  %18 = getelementptr inbounds { { ptr, i64 }, { ptr, i64 } }, ptr %3, i64 0, i32 1, i32 1, !dbg !3082
  store i64 %15, ptr %18, align 8, !dbg !3082
  %19 = getelementptr inbounds { { i64, i64 }, { i64, i64 }, { ptr, ptr }, i32, i32, i8, [7 x i8] }, ptr %0, i64 0, i32 3, !dbg !3083
  %20 = load i32, ptr %19, align 8, !dbg !3083, !range !649, !noundef !18
  %21 = getelementptr inbounds { { i64, i64 }, { i64, i64 }, { ptr, ptr }, i32, i32, i8, [7 x i8] }, ptr %0, i64 0, i32 5, !dbg !3085
  %22 = load i8, ptr %21, align 8, !dbg !3085, !range !641, !noundef !18
  %23 = getelementptr inbounds { { i64, i64 }, { i64, i64 }, { ptr, ptr }, i32, i32, i8, [7 x i8] }, ptr %0, i64 0, i32 4, !dbg !3087
  %24 = load i32, ptr %23, align 4, !dbg !3087, !alias.scope !3090, !noundef !18
  %25 = and i32 %24, 8, !dbg !3087
  %26 = icmp eq i32 %25, 0, !dbg !3087
  br i1 %26, label %41, label %33, !dbg !3093

27:                                               ; preds = %2
  %28 = getelementptr inbounds i8, ptr %0, i64 32, !dbg !3094
  %29 = load ptr, ptr %28, align 8, !dbg !3094
  %30 = getelementptr inbounds i8, ptr %0, i64 40, !dbg !3094
  %31 = load ptr, ptr %30, align 8, !dbg !3094
  %32 = tail call fastcc noundef zeroext i1 @_ZN4core3fmt9Formatter21write_formatted_parts17h181bc77043faab5bE(ptr %29, ptr %31, ptr noalias noundef nonnull readonly align 8 dereferenceable(32) %1), !dbg !3094
  br label %123, !dbg !3094

33:                                               ; preds = %6
  %34 = getelementptr inbounds { { i64, i64 }, { i64, i64 }, { ptr, ptr }, i32, i32, i8, [7 x i8] }, ptr %0, i64 0, i32 2, !dbg !3096
  %35 = load ptr, ptr %34, align 8, !dbg !3096, !nonnull !18, !align !31, !noundef !18
  %36 = getelementptr inbounds { { i64, i64 }, { i64, i64 }, { ptr, ptr }, i32, i32, i8, [7 x i8] }, ptr %0, i64 0, i32 2, i32 1, !dbg !3096
  %37 = load ptr, ptr %36, align 8, !dbg !3096, !nonnull !18, !align !871, !noundef !18
  %38 = getelementptr inbounds ptr, ptr %37, i64 3, !dbg !3096
  %39 = load ptr, ptr %38, align 8, !dbg !3096, !invariant.load !18, !nonnull !18
  %40 = tail call noundef zeroext i1 %39(ptr noundef nonnull align 1 %35, ptr noalias noundef nonnull readonly align 1 %9, i64 noundef %11), !dbg !3096
  br i1 %40, label %.loopexit, label %76, !dbg !3096

41:                                               ; preds = %76, %6
  %42 = phi i32 [ 48, %76 ], [ %20, %6 ]
  %43 = phi i8 [ 1, %76 ], [ %22, %6 ]
  %44 = phi i64 [ 0, %76 ], [ %11, %6 ], !dbg !3098
  %45 = phi i64 [ %77, %76 ], [ %8, %6 ], !dbg !3102
  %46 = getelementptr inbounds { i16, [11 x i16] }, ptr %13, i64 %15, !dbg !3103
  %47 = icmp eq i64 %15, 0, !dbg !3119
  br i1 %47, label %.loopexit8, label %.preheader, !dbg !3129

.preheader:                                       ; preds = %41, %70
  %48 = phi i64 [ %72, %70 ], [ %44, %41 ]
  %49 = phi ptr [ %50, %70 ], [ %13, %41 ]
  %50 = getelementptr inbounds { i16, [11 x i16] }, ptr %49, i64 1, !dbg !3130
  %51 = load i16, ptr %49, align 8, !dbg !3146, !range !3151, !alias.scope !3152, !noalias !3155, !noundef !18
  switch i16 %51, label %default.unreachable8 [
    i16 0, label %52
    i16 1, label %55
    i16 2, label %59
  ], !dbg !3158

default.unreachable8:                             ; preds = %.preheader, %78
  unreachable

52:                                               ; preds = %.preheader
