; ModuleID = '/Users/rtjoa/g/egg/eggcc/runtime/rt.bc'
source_filename = "runtime.ac2f7b2c5b2f831f-cgu.0"
target datalayout = "e-m:o-i64:64-i128:128-n32:64-S128"
target triple = "arm64-apple-macosx11.0.0"

%"core::fmt::Arguments<'_>" = type { { ptr, i64 }, { ptr, i64 }, { ptr, i64 } }
%"core::fmt::rt::Placeholder" = type { { i64, i64 }, { i64, i64 }, i64, i32, i32, i8, [7 x i8] }
%"core::str::error::Utf8Error" = type { i64, { i8, i8 }, [6 x i8] }
%"core::result::Result<&str, core::str::error::Utf8Error>" = type { i64, [2 x i64] }
%"core::result::Result<&str, core::str::error::Utf8Error>::Ok" = type { [1 x i64], { ptr, i64 } }
%"core::str::error::ParseBoolError" = type {}
%"core::result::Result<f64, core::num::dec2flt::ParseFloatError>" = type { i8, [15 x i8] }
%"core::result::Result<f64, core::num::dec2flt::ParseFloatError>::Ok" = type { [1 x i64], double }

@vtable.0 = private unnamed_addr constant <{ ptr, [16 x i8], ptr }> <{ ptr @"_ZN4core3ptr53drop_in_place$LT$core..str..error..ParseBoolError$GT$17h480800684d7119cdE", [16 x i8] c"\00\00\00\00\00\00\00\00\01\00\00\00\00\00\00\00", ptr @"_ZN69_$LT$core..str..error..ParseBoolError$u20$as$u20$core..fmt..Debug$GT$3fmt17h5c072e07532cd046E" }>, align 8
@vtable.1 = private unnamed_addr constant <{ ptr, [16 x i8], ptr }> <{ ptr @"_ZN4core3ptr48drop_in_place$LT$core..str..error..Utf8Error$GT$17h4c4b3d5c09d9d5b0E", [16 x i8] c"\10\00\00\00\00\00\00\00\08\00\00\00\00\00\00\00", ptr @"_ZN64_$LT$core..str..error..Utf8Error$u20$as$u20$core..fmt..Debug$GT$3fmt17he3f069c94aa737faE" }>, align 8
@vtable.2 = private unnamed_addr constant <{ ptr, [16 x i8], ptr }> <{ ptr @"_ZN4core3ptr52drop_in_place$LT$core..num..error..ParseIntError$GT$17hed91198495868282E", [16 x i8] c"\01\00\00\00\00\00\00\00\01\00\00\00\00\00\00\00", ptr @"_ZN68_$LT$core..num..error..ParseIntError$u20$as$u20$core..fmt..Debug$GT$3fmt17h379ba262d5110ef1E" }>, align 8
@vtable.3 = private unnamed_addr constant <{ ptr, [16 x i8], ptr }> <{ ptr @"_ZN4core3ptr52drop_in_place$LT$core..num..error..ParseIntError$GT$17hed91198495868282E", [16 x i8] c"\01\00\00\00\00\00\00\00\01\00\00\00\00\00\00\00", ptr @"_ZN72_$LT$core..num..dec2flt..ParseFloatError$u20$as$u20$core..fmt..Debug$GT$3fmt17h9fc7f4bbab5a3e80E" }>, align 8
@alloc_da967f6e9acf91e913e9d8172d81c5c3 = private unnamed_addr constant <{ [4 x i8] }> <{ [4 x i8] c"true" }>, align 1
@alloc_b81e52ca1a07489f49a3e5fe131c4b29 = private unnamed_addr constant <{ [5 x i8] }> <{ [5 x i8] c"false" }>, align 1
@vtable.4 = private unnamed_addr constant <{ ptr, [16 x i8], ptr, ptr, ptr }> <{ ptr @"_ZN4core3ptr45drop_in_place$LT$libc_print..__LibCWriter$GT$17h6ef617935bab3b09E", [16 x i8] c"\04\00\00\00\00\00\00\00\04\00\00\00\00\00\00\00", ptr @"_ZN61_$LT$libc_print..__LibCWriter$u20$as$u20$core..fmt..Write$GT$9write_str17hfeba44cb5b2df8dfE", ptr @_ZN4core3fmt5Write10write_char17hbd85cbc69ce05ffaE, ptr @_ZN4core3fmt5Write9write_fmt17hc588d76eadd81789E }>, align 8
@alloc_ffa3cdb3ae88e54a1cc225f31dd07672 = private unnamed_addr constant <{ ptr, [8 x i8] }> <{ ptr @anon.81eb2ca617e7b492be846be889fa0cc1.2, [8 x i8] zeroinitializer }>, align 8
@alloc_9f540273f3b79d2c726146bbd3f5074c = private unnamed_addr constant <{ ptr, [8 x i8] }> <{ ptr @alloc_b81e52ca1a07489f49a3e5fe131c4b29, [8 x i8] c"\05\00\00\00\00\00\00\00" }>, align 8
@alloc_de4c6128c1b30660c61eab3610f3a239 = private unnamed_addr constant <{ ptr, [8 x i8] }> <{ ptr @alloc_da967f6e9acf91e913e9d8172d81c5c3, [8 x i8] c"\04\00\00\00\00\00\00\00" }>, align 8
@alloc_bc552b7721126a64210d35ff65b32ae7 = private unnamed_addr constant <{ ptr, [8 x i8] }> <{ ptr @anon.81eb2ca617e7b492be846be889fa0cc1.122, [8 x i8] c"\03\00\00\00\00\00\00\00" }>, align 8
@alloc_2e8dd8b1c43f209e533ad466e2f062cd = private unnamed_addr constant <{ [8 x i8] }> <{ [8 x i8] c"Infinity" }>, align 1
@alloc_2076b882c852b27af7ff3b97a9b401a1 = private unnamed_addr constant <{ ptr, [8 x i8] }> <{ ptr @alloc_2e8dd8b1c43f209e533ad466e2f062cd, [8 x i8] c"\08\00\00\00\00\00\00\00" }>, align 8
@alloc_995e8bff70460e2365f6e5a3a99546cc = private unnamed_addr constant <{ [9 x i8] }> <{ [9 x i8] c"-Infinity" }>, align 1
@alloc_aafdf1a4a27a106112db52cc3b95de65 = private unnamed_addr constant <{ ptr, [8 x i8] }> <{ ptr @alloc_995e8bff70460e2365f6e5a3a99546cc, [8 x i8] c"\09\00\00\00\00\00\00\00" }>, align 8
@alloc_0242e8ee118de705af76c627590b82cc = private unnamed_addr constant <{ [1 x i8] }> <{ [1 x i8] c" " }>, align 1
@alloc_75c62af2e3495065b198d9bcb040c803 = private unnamed_addr constant <{ ptr, [8 x i8] }> <{ ptr @alloc_0242e8ee118de705af76c627590b82cc, [8 x i8] c"\01\00\00\00\00\00\00\00" }>, align 8
@alloc_49a1e817e911805af64bbc7efb390101 = private unnamed_addr constant <{ [1 x i8] }> <{ [1 x i8] c"\0A" }>, align 1
@anon.81eb2ca617e7b492be846be889fa0cc1.2 = private unnamed_addr constant <{}> zeroinitializer, align 8
@anon.81eb2ca617e7b492be846be889fa0cc1.34 = private unnamed_addr constant <{ [130 x i8] }> <{ [130 x i8] c"\00\00\00\08\01\08\03\08\06\10\09\10\0D\10\12\18\17\18\1D\18$ + 3 < F(P([(g0s0\800\8E8\9C8\AB8\BB8\CC@\DD@\EF@\02I\15I)I>QSQiQ\80Q\98Y\B0Y\C9Y\E3a\FDa\18b4jPjmj\8Bj\AAr\C9r\E9r\0A{+{M{p\83\93\83\B7\83\DC\83\02\8C(\8CO\8Cw\94\9F\94\C8\94\F2\9C\1C\05\1C\05\1C\05\1C\05" }>, align 2
@anon.81eb2ca617e7b492be846be889fa0cc1.35 = private unnamed_addr constant <{ [1308 x i8] }> <{ [1308 x i8] c"\05\02\05\01\02\05\06\02\05\03\01\02\05\01\05\06\02\05\07\08\01\02\05\03\09\00\06\02\05\01\09\05\03\01\02\05\09\07\06\05\06\02\05\04\08\08\02\08\01\02\05\02\04\04\01\04\00\06\02\05\01\02\02\00\07\00\03\01\02\05\06\01\00\03\05\01\05\06\02\05\03\00\05\01\07\05\07\08\01\02\05\01\05\02\05\08\07\08\09\00\06\02\05\07\06\02\09\03\09\04\05\03\01\02\05\03\08\01\04\06\09\07\02\06\05\06\02\05\01\09\00\07\03\04\08\06\03\02\08\01\02\05\09\05\03\06\07\04\03\01\06\04\00\06\02\05\04\07\06\08\03\07\01\05\08\02\00\03\01\02\05\02\03\08\04\01\08\05\07\09\01\00\01\05\06\02\05\01\01\09\02\00\09\02\08\09\05\05\00\07\08\01\02\05\05\09\06\00\04\06\04\04\07\07\05\03\09\00\06\02\05\02\09\08\00\02\03\02\02\03\08\07\06\09\05\03\01\02\05\01\04\09\00\01\01\06\01\01\09\03\08\04\07\06\05\06\02\05\07\04\05\00\05\08\00\05\09\06\09\02\03\08\02\08\01\02\05\03\07\02\05\02\09\00\02\09\08\04\06\01\09\01\04\00\06\02\05\01\08\06\02\06\04\05\01\04\09\02\03\00\09\05\07\00\03\01\02\05\09\03\01\03\02\02\05\07\04\06\01\05\04\07\08\05\01\05\06\02\05\04\06\05\06\06\01\02\08\07\03\00\07\07\03\09\02\05\07\08\01\02\05\02\03\02\08\03\00\06\04\03\06\05\03\08\06\09\06\02\08\09\00\06\02\05\01\01\06\04\01\05\03\02\01\08\02\06\09\03\04\08\01\04\04\05\03\01\02\05\05\08\02\00\07\06\06\00\09\01\03\04\06\07\04\00\07\02\02\06\05\06\02\05\02\09\01\00\03\08\03\00\04\05\06\07\03\03\07\00\03\06\01\03\02\08\01\02\05\01\04\05\05\01\09\01\05\02\02\08\03\06\06\08\05\01\08\00\06\06\04\00\06\02\05\07\02\07\05\09\05\07\06\01\04\01\08\03\04\02\05\09\00\03\03\02\00\03\01\02\05\03\06\03\07\09\07\08\08\00\07\00\09\01\07\01\02\09\05\01\06\06\00\01\05\06\02\05\01\08\01\08\09\08\09\04\00\03\05\04\05\08\05\06\04\07\05\08\03\00\00\07\08\01\02\05\09\00\09\04\09\04\07\00\01\07\07\02\09\02\08\02\03\07\09\01\05\00\03\09\00\06\02\05\04\05\04\07\04\07\03\05\00\08\08\06\04\06\04\01\01\08\09\05\07\05\01\09\05\03\01\02\05\02\02\07\03\07\03\06\07\05\04\04\03\02\03\02\00\05\09\04\07\08\07\05\09\07\06\05\06\02\05\01\01\03\06\08\06\08\03\07\07\02\01\06\01\06\00\02\09\07\03\09\03\07\09\08\08\02\08\01\02\05\05\06\08\04\03\04\01\08\08\06\00\08\00\08\00\01\04\08\06\09\06\08\09\09\04\01\04\00\06\02\05\02\08\04\02\01\07\00\09\04\03\00\04\00\04\00\00\07\04\03\04\08\04\04\09\07\00\07\00\03\01\02\05\01\04\02\01\00\08\05\04\07\01\05\02\00\02\00\00\03\07\01\07\04\02\02\04\08\05\03\05\01\05\06\02\05\07\01\00\05\04\02\07\03\05\07\06\00\01\00\00\01\08\05\08\07\01\01\02\04\02\06\07\05\07\08\01\02\05\03\05\05\02\07\01\03\06\07\08\08\00\00\05\00\00\09\02\09\03\05\05\06\02\01\03\03\07\08\09\00\06\02\05\01\07\07\06\03\05\06\08\03\09\04\00\00\02\05\00\04\06\04\06\07\07\08\01\00\06\06\08\09\04\05\03\01\02\05\08\08\08\01\07\08\04\01\09\07\00\00\01\02\05\02\03\02\03\03\08\09\00\05\03\03\04\04\07\02\06\05\06\02\05\04\04\04\00\08\09\02\00\09\08\05\00\00\06\02\06\01\06\01\06\09\04\05\02\06\06\07\02\03\06\03\02\08\01\02\05\02\02\02\00\04\04\06\00\04\09\02\05\00\03\01\03\00\08\00\08\04\07\02\06\03\03\03\06\01\08\01\06\04\00\06\02\05\01\01\01\00\02\02\03\00\02\04\06\02\05\01\05\06\05\04\00\04\02\03\06\03\01\06\06\08\00\09\00\08\02\00\03\01\02\05\05\05\05\01\01\01\05\01\02\03\01\02\05\07\08\02\07\00\02\01\01\08\01\05\08\03\04\00\04\05\04\01\00\01\05\06\02\05\02\07\07\05\05\05\07\05\06\01\05\06\02\08\09\01\03\05\01\00\05\09\00\07\09\01\07\00\02\02\07\00\05\00\07\08\01\02\05\01\03\08\07\07\07\08\07\08\00\07\08\01\04\04\05\06\07\05\05\02\09\05\03\09\05\08\05\01\01\03\05\02\05\03\09\00\06\02\05\06\09\03\08\08\09\03\09\00\03\09\00\07\02\02\08\03\07\07\06\04\07\06\09\07\09\02\05\05\06\07\06\02\06\09\05\03\01\02\05\03\04\06\09\04\04\06\09\05\01\09\05\03\06\01\04\01\08\08\08\02\03\08\04\08\09\06\02\07\08\03\08\01\03\04\07\06\05\06\02\05\01\07\03\04\07\02\03\04\07\05\09\07\06\08\00\07\00\09\04\04\01\01\09\02\04\04\08\01\03\09\01\09\00\06\07\03\08\02\08\01\02\05\08\06\07\03\06\01\07\03\07\09\08\08\04\00\03\05\04\07\02\00\05\09\06\02\02\04\00\06\09\05\09\05\03\03\06\09\01\04\00\06\02\05" }>, align 1
@anon.81eb2ca617e7b492be846be889fa0cc1.38 = private unnamed_addr constant <{ [19 x i8] }> <{ [19 x i8] c"\00\03\06\09\0D\10\13\17\1A\1D!$'+.158;" }>, align 1
@anon.81eb2ca617e7b492be846be889fa0cc1.40 = private unnamed_addr constant <{ [256 x i8] }> <{ [256 x i8] c"\00\00\00\00\00\00\F0?\00\00\00\00\00\00$@\00\00\00\00\00\00Y@\00\00\00\00\00@\8F@\00\00\00\00\00\88\C3@\00\00\00\00\00j\F8@\00\00\00\00\80\84.A\00\00\00\00\D0\12cA\00\00\00\00\84\D7\97A\00\00\00\00e\CD\CDA\00\00\00 _\A0\02B\00\00\00\E8vH7B\00\00\00\A2\94\1AmB\00\00@\E5\9C0\A2B\00\00\90\1E\C4\BC\D6B\00\004&\F5k\0CC\00\80\E07y\C3AC\00\A0\D8\85W4vC\00\C8Ngm\C1\ABC\00=\91`\E4X\E1C@\8C\B5x\1D\AF\15DP\EF\E2\D6\E4\1AKD\92\D5M\06\CF\F0\80D\00\00\00\00\00\00\00\00\00\00\00\00\00\00\00\00\00\00\00\00\00\00\00\00\00\00\00\00\00\00\00\00\00\00\00\00\00\00\00\00\00\00\00\00\00\00\00\00\00\00\00\00\00\00\00\00\00\00\00\00\00\00\00\00\00\00\00\00\00\00\00\00" }>, align 8
@anon.81eb2ca617e7b492be846be889fa0cc1.43 = private unnamed_addr constant <{ [128 x i8] }> <{ [128 x i8] c"\01\00\00\00\00\00\00\00\0A\00\00\00\00\00\00\00d\00\00\00\00\00\00\00\E8\03\00\00\00\00\00\00\10'\00\00\00\00\00\00\A0\86\01\00\00\00\00\00@B\0F\00\00\00\00\00\80\96\98\00\00\00\00\00\00\E1\F5\05\00\00\00\00\00\CA\9A;\00\00\00\00\00\E4\0BT\02\00\00\00\00\E8vH\17\00\00\00\00\10\A5\D4\E8\00\00\00\00\A0rN\18\09\00\00\00@z\10\F3Z\00\00\00\80\C6\A4~\8D\03\00" }>, align 8
@anon.81eb2ca617e7b492be846be889fa0cc1.48 = private unnamed_addr constant <{ [29 x i8] }> <{ [29 x i8] c"assertion failed: edelta >= 0" }>, align 1
@_ZN4core3num7flt2dec8strategy6dragon8TWOPOW1017h0f6441e5b6bf4178E = internal unnamed_addr constant <{ [40 x i8] }> <{ [40 x i8] c"\02\00\00\00\14\00\00\00\C8\00\00\00\D0\07\00\00 N\00\00@\0D\03\00\80\84\1E\00\00-1\01\00\C2\EB\0B\00\945w" }>, align 4
@_ZN4core3num7flt2dec8strategy6dragon9POW10TO1617h63d2c5acc16b0626E = internal constant <{ [8 x i8] }> <{ [8 x i8] c"\00\00\C1o\F2\86#\00" }>, align 4
@_ZN4core3num7flt2dec8strategy6dragon9POW10TO3217h5db851f6d9e44384E = internal constant <{ [16 x i8] }> <{ [16 x i8] c"\00\00\00\00\81\EF\AC\85[Am-\EE\04\00\00" }>, align 4
@_ZN4core3num7flt2dec8strategy6dragon9POW10TO6417h6dc31d966e6bc033E = internal constant <{ [28 x i8] }> <{ [28 x i8] c"\00\00\00\00\00\00\00\00\01\1Fj\BFd\ED8n\ED\97\A7\DA\F4\F9?\E9\03O\18\00" }>, align 4
@_ZN4core3num7flt2dec8strategy6dragon10POW10TO12817ha3eb925412edb8d4E = internal constant <{ [56 x i8] }> <{ [56 x i8] c"\00\00\00\00\00\00\00\00\00\00\00\00\00\00\00\00\01>\95.\09\99\DF\03\FD8\15\0F/\E4t#\EC\F5\CF\D3\08\DC\04\C4\DA\B0\CD\BC\19\7F3\A6\03&\1F\E9N\02\00\00" }>, align 4
@_ZN4core3num7flt2dec8strategy6dragon10POW10TO25617h9162a07aef2cbe14E = internal constant <{ [108 x i8] }> <{ [108 x i8] c"\00\00\00\00\00\00\00\00\00\00\00\00\00\00\00\00\00\00\00\00\00\00\00\00\00\00\00\00\00\00\00\00\01|.\98[\87\D3\BEr\9F\D9\D8\87/\15\12\C6P\DEkpnJ\CF\0F\D8\95\D5nq\B2&\B0f\C6\AD$6\15\1DZ\D3B<\0ET\FFc\C0sU\CC\17\EF\F9e\F2(\BCU\F7\C7\DC\80\DC\EDn\F4\CE\EF\DC_\F7S\05\00" }>, align 4
@anon.81eb2ca617e7b492be846be889fa0cc1.53 = private unnamed_addr constant <{ [28 x i8] }> <{ [28 x i8] c"assertion failed: d.mant > 0" }>, align 1
@_ZN4core3num7flt2dec8strategy5grisu12CACHED_POW1017hcf5f875a21b3d76aE = internal unnamed_addr constant <{ [1296 x i8] }> <{ [1296 x i8] c"\DFE\1A=\03\CF\1A\E6\C1\FB\CC\FE\00\00\00\00\CA\C6\9A\C7\17\FEp\AB\DC\FB\D4\FE\00\00\00\00O\DC\BC\BE\FC\B1w\FF\F6\FB\DC\FE\00\00\00\00\0C\D6kA\EF\91V\BE\11\FC\E4\FE\00\00\00\00<\FC\7F\90\AD\1F\D0\8D,\FC\EC\FE\00\00\00\00\83\9AU1(\\Q\D3F\FC\F4\FE\00\00\00\00\B5\C9\A6\AD\8F\ACq\9Da\FC\FC\FE\00\00\00\00\CB\8B\EE#w\22\9C\EA{\FC\04\FF\00\00\00\00mSx@\91I\CC\AE\96\FC\0C\FF\00\00\00\00W\CE\B6]y\12<\82\B1\FC\14\FF\00\00\00\007V\FBM6\94\10\C2\CB\FC\1C\FF\00\00\00\00O\98H8o\EA\96\90\E6\FC$\FF\00\00\00\00\C7:\82%\CB\85t\D7\00\FD,\FF\00\00\00\00\F4\97\BF\97\CD\CF\86\A0\1B\FD4\FF\00\00\00\00\E5\AC*\17\98\0A4\EF5\FD<\FF\00\00\00\00\8E\B25*\FBg8\B2P\FDD\FF\00\00\00\00;?\C6\D2\DF\D4\C8\84k\FDL\FF\00\00\00\00\BA\CD\D3\1A'D\DD\C5\85\FDT\FF\00\00\00\00\96\C9%\BB\CE\9Fk\93\A0\FD\\\FF\00\00\00\00\84\A5b}$l\AC\DB\BA\FDd\FF\00\00\00\00\F6\DA_\0DXf\AB\A3\D5\FDl\FF\00\00\00\00&\F1\C3\DE\93\F8\E2\F3\EF\FDt\FF\00\00\00\00\B8\80\FF\AA\A8\AD\B5\B5\0A\FE|\FF\00\00\00\00\8BJ|l\05_b\87%\FE\84\FF\00\00\00\00S0\C14`\FF\BC\C9?\FE\8C\FF\00\00\00\00U&\BA\91\8C\85N\96Z\FE\94\FF\00\00\00\00\BD~)p$w\F9\DFt\FE\9C\FF\00\00\00\00\8F\B8\E5\B8\9F\BD\DF\A6\8F\FE\A4\FF\00\00\00\00\94}t\88\CF_\A9\F8\A9\FE\AC\FF\00\00\00\00\CF\9B\A8\8F\93pD\B9\C4\FE\B4\FF\00\00\00\00k\15\0F\BF\F8\F0\08\8A\DF\FE\BC\FF\00\00\00\00\B611eU%\B0\CD\F9\FE\C4\FF\00\00\00\00\AC\7F{\D0\C6\E2?\99\14\FF\CC\FF\00\00\00\00\06;+*\C4\10\\\E4.\FF\D4\FF\00\00\00\00\D3\92si\99$$\AAI\FF\DC\FF\00\00\00\00\0E\CA\00\83\F2\B5\87\FDc\FF\E4\FF\00\00\00\00\EB\1A\11\92d\08\E5\BC~\FF\EC\FF\00\00\00\00\CC\88Po\09\CC\BC\8C\99\FF\F4\FF\00\00\00\00,e\19\E2X\17\B7\D1\B3\FF\FC\FF\00\00\00\00\00\00\00\00\00\00@\9C\CE\FF\04\00\00\00\00\00\00\00\00\00\10\A5\D4\E8\E8\FF\0C\00\00\00\00\00\00\00b\AC\C5\EBx\AD\03\00\14\00\00\00\00\00\84\09\94\F8x9?\81\1E\00\1C\00\00\00\00\00\B3\15\07\C9{\CE\97\C08\00$\00\00\00\00\00p\\\EA{\CE2~\8FS\00,\00\00\00\00\00h\80\E9\AB\A48\D2\D5m\004\00\00\00\00\00E\22\9A\17&'O\9F\88\00<\00\00\00\00\00'\FB\C4\D41\A2c\ED\A2\00D\00\00\00\00\00\A8\AD\C8\8C8e\DE\B0\BD\00L\00\00\00\00\00\DBe\AB\1A\8E\08\C7\83\D8\00T\00\00\00\00\00\9A\1DqB\F9\1D]\C4\F2\00\\\00\00\00\00\00X\E7\1B\A6,iM\92\0D\01d\00\00\00\00\00\EA\8Dp\1Ad\EE\01\DA'\01l\00\00\00\00\00Jw\EF\9A\99\A3m\A2B\01t\00\00\00\00\00\85k}\B4{x\09\F2\\\01|\00\00\00\00\00w\18\DDy\A1\E4T\B4w\01\84\00\00\00\00\00\C2\C5\9B[\92\86[\86\92\01\8C\00\00\00\00\00=]\96\C8\C5S5\C8\AC\01\94\00\00\00\00\00\B3\A0\97\FA\\\B4*\95\C7\01\9C\00\00\00\00\00\E3_\A0\99\BD\9FF\DE\E1\01\A4\00\00\00\00\00%\8C9\DB4\C2\9B\A5\FC\01\AC\00\00\00\00\00\\\9F\98\A3r\9A\C6\F6\16\02\B4\00\00\00\00\00\CE\BE\E9TS\BF\DC\B71\02\BC\00\00\00\00\00\E2A\22\F2\17\F3\FC\88L\02\C4\00\00\00\00\00\A5x\\\D3\9B\CE \CCf\02\CC\00\00\00\00\00\DFS!{\F3Z\16\98\81\02\D4\00\00\00\00\00:0\1F\97\DC\B5\A0\E2\9B\02\DC\00\00\00\00\00\96\B3\E3\\S\D1\D9\A8\B6\02\E4\00\00\00\00\00<D\A7\A4\D9|\9B\FB\D0\02\EC\00\00\00\00\00\10D\A4\A7LLv\BB\EB\02\F4\00\00\00\00\00\1A\9C@\B6\EF\8E\AB\8B\06\03\FC\00\00\00\00\00,\84W\A6\10\EF\1F\D0 \03\04\01\00\00\00\00)1\91\E9\E5\A4\10\9B;\03\0C\01\00\00\00\00\9D\0C\9C\A1\FB\9B\10\E7U\03\14\01\00\00\00\00)\F4;b\D9 (\ACp\03\1C\01\00\00\00\00\85\CF\A7z^KD\80\8B\03$\01\00\00\00\00-\DD\AC\03@\E4!\BF\A5\03,\01\00\00\00\00\8F\FFD^/\9Cg\8E\C0\034\01\00\00\00\00A\B8\8C\9C\9D\173\D4\DA\03<\01\00\00\00\00\A9\1B\E3\B4\92\DB\19\9E\F5\03D\01\00\00\00\00\D9w\DF\BAn\BF\96\EB\0F\04L\01\00\00\00\00" }>, align 8
@str.0 = internal constant [25 x i8] c"attempt to divide by zero"
@anon.81eb2ca617e7b492be846be889fa0cc1.91 = private unnamed_addr constant <{ [33 x i8] }> <{ [33 x i8] c"assertion failed: !buf.is_empty()" }>, align 1
@anon.81eb2ca617e7b492be846be889fa0cc1.97 = private unnamed_addr constant <{ [40 x i8] }> <{ [40 x i8] c"\01\00\00\00\0A\00\00\00d\00\00\00\E8\03\00\00\10'\00\00\A0\86\01\00@B\0F\00\80\96\98\00\00\E1\F5\05\00\CA\9A;" }>, align 4
@anon.81eb2ca617e7b492be846be889fa0cc1.106 = private unnamed_addr constant <{ [33 x i8] }> <{ [33 x i8] c"assertion failed: buf[0] > b\\'0\\'" }>, align 1
@anon.81eb2ca617e7b492be846be889fa0cc1.110 = private unnamed_addr constant <{ [1 x i8] }> <{ [1 x i8] c"." }>, align 1
@anon.81eb2ca617e7b492be846be889fa0cc1.111 = private unnamed_addr constant <{ [2 x i8] }> <{ [2 x i8] c"0." }>, align 1
@anon.81eb2ca617e7b492be846be889fa0cc1.120 = private unnamed_addr constant <{ [1 x i8] }> <{ [1 x i8] c"-" }>, align 1
@anon.81eb2ca617e7b492be846be889fa0cc1.121 = private unnamed_addr constant <{ [1 x i8] }> <{ [1 x i8] c"+" }>, align 1
@anon.81eb2ca617e7b492be846be889fa0cc1.122 = private unnamed_addr constant <{ [3 x i8] }> <{ [3 x i8] c"NaN" }>, align 1
@anon.81eb2ca617e7b492be846be889fa0cc1.123 = private unnamed_addr constant <{ [3 x i8] }> <{ [3 x i8] c"inf" }>, align 1
@anon.81eb2ca617e7b492be846be889fa0cc1.124 = private unnamed_addr constant <{ [1 x i8] }> <{ [1 x i8] c"0" }>, align 1
@anon.81eb2ca617e7b492be846be889fa0cc1.134 = private unnamed_addr constant <{ [37 x i8] }> <{ [37 x i8] c"assertion failed: buf.len() >= maxlen" }>, align 1
@anon.81eb2ca617e7b492be846be889fa0cc1.153 = private unnamed_addr constant <{ [1 x i8] }> <{ [1 x i8] c")" }>, align 1
@anon.81eb2ca617e7b492be846be889fa0cc1.284 = private unnamed_addr constant <{ [2 x i8] }> <{ [2 x i8] c": " }>, align 1
@anon.81eb2ca617e7b492be846be889fa0cc1.286 = private unnamed_addr constant <{ ptr, [16 x i8], ptr, ptr, ptr }> <{ ptr @"_ZN4core3ptr102drop_in_place$LT$$RF$core..iter..adapters..copied..Copied$LT$core..slice..iter..Iter$LT$u8$GT$$GT$$GT$17h92c8610c72cb1f0fE", [16 x i8] c"\18\00\00\00\00\00\00\00\08\00\00\00\00\00\00\00", ptr @"_ZN68_$LT$core..fmt..builders..PadAdapter$u20$as$u20$core..fmt..Write$GT$9write_str17h52fa64b82bb09df0E", ptr @"_ZN68_$LT$core..fmt..builders..PadAdapter$u20$as$u20$core..fmt..Write$GT$10write_char17h78e34fc9129e99e4E", ptr @_ZN4core3fmt5Write9write_fmt17h010f271c82c531e2E }>, align 8
@anon.81eb2ca617e7b492be846be889fa0cc1.287 = private unnamed_addr constant <{ [4 x i8] }> <{ [4 x i8] c"    " }>, align 1
@anon.81eb2ca617e7b492be846be889fa0cc1.288 = private unnamed_addr constant <{ [3 x i8] }> <{ [3 x i8] c" { " }>, align 1
@anon.81eb2ca617e7b492be846be889fa0cc1.289 = private unnamed_addr constant <{ [2 x i8] }> <{ [2 x i8] c", " }>, align 1
@anon.81eb2ca617e7b492be846be889fa0cc1.290 = private unnamed_addr constant <{ [3 x i8] }> <{ [3 x i8] c" {\0A" }>, align 1
@anon.81eb2ca617e7b492be846be889fa0cc1.291 = private unnamed_addr constant <{ [2 x i8] }> <{ [2 x i8] c",\0A" }>, align 1
@anon.81eb2ca617e7b492be846be889fa0cc1.295 = private unnamed_addr constant <{ [1 x i8] }> <{ [1 x i8] c"}" }>, align 1
@anon.81eb2ca617e7b492be846be889fa0cc1.296 = private unnamed_addr constant <{ [2 x i8] }> <{ [2 x i8] c" }" }>, align 1
@anon.81eb2ca617e7b492be846be889fa0cc1.297 = private unnamed_addr constant <{ [1 x i8] }> <{ [1 x i8] c"(" }>, align 1
@anon.81eb2ca617e7b492be846be889fa0cc1.298 = private unnamed_addr constant <{ [2 x i8] }> <{ [2 x i8] c"(\0A" }>, align 1
@anon.81eb2ca617e7b492be846be889fa0cc1.317 = private unnamed_addr constant <{ [2 x i8] }> <{ [2 x i8] c"0x" }>, align 1
@anon.81eb2ca617e7b492be846be889fa0cc1.322 = private unnamed_addr constant <{ [200 x i8] }> <{ [200 x i8] c"00010203040506070809101112131415161718192021222324252627282930313233343536373839404142434445464748495051525354555657585960616263646566676869707172737475767778798081828384858687888990919293949596979899" }>, align 1
@anon.81eb2ca617e7b492be846be889fa0cc1.325 = private unnamed_addr constant <{ [64 x i8] }> <{ [64 x i8] c"0000000000000000000000000000000000000000000000000000000000000000" }>, align 1
@anon.81eb2ca617e7b492be846be889fa0cc1.392 = private unnamed_addr constant <{ [256 x i8] }> <{ [256 x i8] c"\01\01\01\01\01\01\01\01\01\01\01\01\01\01\01\01\01\01\01\01\01\01\01\01\01\01\01\01\01\01\01\01\01\01\01\01\01\01\01\01\01\01\01\01\01\01\01\01\01\01\01\01\01\01\01\01\01\01\01\01\01\01\01\01\01\01\01\01\01\01\01\01\01\01\01\01\01\01\01\01\01\01\01\01\01\01\01\01\01\01\01\01\01\01\01\01\01\01\01\01\01\01\01\01\01\01\01\01\01\01\01\01\01\01\01\01\01\01\01\01\01\01\01\01\01\01\01\01\00\00\00\00\00\00\00\00\00\00\00\00\00\00\00\00\00\00\00\00\00\00\00\00\00\00\00\00\00\00\00\00\00\00\00\00\00\00\00\00\00\00\00\00\00\00\00\00\00\00\00\00\00\00\00\00\00\00\00\00\00\00\00\00\00\00\02\02\02\02\02\02\02\02\02\02\02\02\02\02\02\02\02\02\02\02\02\02\02\02\02\02\02\02\02\02\03\03\03\03\03\03\03\03\03\03\03\03\03\03\03\03\04\04\04\04\04\00\00\00\00\00\00\00\00\00\00\00" }>, align 1
@anon.81eb2ca617e7b492be846be889fa0cc1.488 = private unnamed_addr constant <{ [26 x i8] }> <{ [26 x i8] c"assertion failed: noborrow" }>, align 1
@anon.81eb2ca617e7b492be846be889fa0cc1.489 = private unnamed_addr constant <{ [29 x i8] }> <{ [29 x i8] c"assertion failed: digits < 40" }>, align 1
@anon.81eb2ca617e7b492be846be889fa0cc1.490 = private unnamed_addr constant <{ [27 x i8] }> <{ [27 x i8] c"assertion failed: other > 0" }>, align 1
@_ZN4core3num7dec2flt5table17POWER_OF_FIVE_12817h1d640e41b0a2cf90E = internal unnamed_addr constant <{ [10416 x i8] }> <{ [10416 x i8] c"Z\D6;\92\D6S\F4\EE?;\A1\06)\AA?\11\F8ee\1Bf\B4X\95\07\C5$\A4Y\CA\C7Jv\BF>\A2\7F\E1\AE\BAI\F6-\0D\F0\BCy]So\CE\8A\DF\99Z\E9\DCsy\10,,\D8\F4\94\05\C1\B6+\A0\D8\91i\E8K\8A\9B\1B\07y\F9Fq\A46\C8N\B6\84\E2\DEl\82\E2H\97\B7\98\8DMDz\E2\E3%\9B\16\08#\1B\1B\FDr\7Fx\B0j\8Cm\8E\F7 \0E\E5\F5\F00\FEO\9F\96\\\85\EF\08\B25\A9Q^3-\BD\BD#G\BC\B3f+\8B\DE\82\13\E65\80x,\ADv\ACU0 \FB\16\8B1\CC\AF!P\CB;L\93\17k<\E8\B9\DC\AD=\BF\1B*$\BEJ\DFx\DD\85Kb\E8S\D9\0D\AF\A24\ADm\1D\D7k\AA3o=q\D4\87h\AD\E5@\8Cdr\86\06\95\00\CB\8C\8D\C9\A9\C2\18\1FQ\AF\FD\0EhH\BA\C0\FD\EF\F0;\D4\F2\DEf%\1B\BD\12\02mt\98\FE\95v\A5\84WK`\F70\B6K\01\88\91>~;\D4\CE\A5-^85\BD\A3\9EA\EA5\CE]J\89B\CF\B9u\86\82\ACL\06R\B2\E1\A0z\CE\95\89\81\93\09\94\D1\EB\EFCs\1F\1AI\19B\FB\EB\A1\F8\0B\F9\C5\E6\EB\14\10\A6`\9B\9F\12\FAf\CA\F6Nww\E0&\1A\D4\D08\82G\97\B8\00\FD\B4\22U\95\98\B0 \89\82c\B1\8C^s \9E\B05U]_n\B4Ub\BC\DD/6\90\A8\C5\1D\83\AA4\F7\89!\EB{+\D5\BBC\B4\12\F7\E4#\D5\01u\EC\E9\A5-;eU\AA\B0k\9An6%!\C93\B2G\F8\89\BE\EA\D4\9C\06\C1\0A\84ni\BB\C0\9E\99v,n%\0ADH\F1\0D%\CAC\EAp\06\C0\CA\DBdW\86*\CD\96(W^j\92\06\048\BC\12>\ED'u\80\BC\F2\EC\F5\047\08\05\C6k\97\8D\E8q\92\A0\EB.h3\C6DJ\86\F7\A3~X1\87[D\93\1D!\E0\FBj\EE\B3zL\9E\AE\FDhr\15\B8d)\D8\BA\05\EA`Y\DFE\1A=\03\CF\1A\E6\BD3\8E)\87$\B9o\ABk0\06b\C1\D0\8FV\E0\F8y\D4\B6\D3\A5\96\86\BC\87\BA\F1\C4\B3l\18w\98\89\A4H\8F<\A8\AB)).\B6\E0\87\DE\94\FE\AB\CD\1A3%I\0B\BA\D9\DCq\8C\14\0B\1D\7F\8B\C0\F0\9Fo\1B\8E(\10T\8E\AF\D9M\E4^\AE\F0\EC\07J\A2\B12\14\E9q\DBPa\9D\F6\D9,\E8\C9n\05\AF\9F\AC1'\89\D2\\\22:\08\1C1\BE\CA\C6\9A\C7\17\FEp\AB\06\F4\AAH\0Ac\BDm}x\81\B9\9D=M\D6\08\B1\D5\DA\CC\BB,\09N\EB\F0\93\82F\F0\85\A5\8E\C5\08`\F5\BB%!&\ED8#Xl\A7N\F2\F6\0A\B8\F2*\AF\AAo(\07,nG\D1\E1\AE\B4\0Df\AF\F5\1A\CAEy\84\DB\A4\CC\82M\ED\90\C8\9F\8D\D9P<\97\97e\12\CE\7F\A3\A0(\B5\BA\07\F1\0F\E5\0C}\FD\FE\96\C1_\CC\C8rb\A9I\EDS\1EO\DC\BC\BE\FC\B1w\FFz\0F\BB\13\9C\E8\E8%\B1\096\F7=\CF\AA\9F\AC\E9T\8Ca\91\B1w\1D\8C\03u\0D\83\95\C7\17$j\EF\B9\F5\9D\D5%oD\D2\D0\E3z\F9\1D\ADDk(s\05Kw\C5j\83b\CE\EC\9B2\EC\0AC\F9g\E3N\D5vE$\FB\01\E8\C2?\A7\CD\93\F7A\9C\22\8A\D4V\EDy\02\A2\F3\0F\11\C1xuRCk\D6DV4\8CAE\98\A9\AAxk\89\13\0A\83\0C\D6kA\EF\91V\BES\D5V\C6k\98\CC#\8F\CB\C6\11k6\EC\ED\A8\8A\EC\B7\86\BE\BF,9?\1C\EB\02\A2\B3\94\A9\D6\F32\14\D7\F7{\07O\E3\A5\83\8A\E0\B9S\CC\B0?\D9\CC\F5\DA\C9\22\\\8F$\ADX\E8h\FF\9C\8F\0F@\B3\D1\BE\95\99\D96l7\91\A1\1F\C2\B9\09\08\10#-\FB\FF\8FDG\85\B5\8A\A72(\0C\0A\D4\AB\F9\F9\FF\B3\15\99\E6\E2lQ?2\8F\0C\C9\16;\FC\7F\90\AD\1F\D0\8D\E3\92g\7F\D9\A7=\AEJ\FB\9F\F4\98'D\B1\9CwA\DF\CF\11\CD\99\1D\FA\C71\7F1\95\DD\83\D5\11\D7CV@@R\FC\1C\7F\EF>}\8Ar%kf\EA5(Hf;\E4^\AB\8E\1C\AD\CF\EE\05\00eC2\DA@J\9D6V\B2c\D8\82j\07@>\D4\BE\90hN\22\E2uO>\87\91\A2\04\E8\A6DwZ\02\E2\AAZS\E3\0D\A96\CB\05\A2\D0\15\15q\83\9AU1(\\Q\D3\03>\87\CAD[Z\0D\91\80\D5\1E\99\D9\12\84\C2\86\94\FE\0AyX\E8\B6\E0\8Af\FF\8F\17\A5r\A89\BEM\97nb\E3\98-@\FFs]\CE\8F\12\C8-!=\0A\FB\8E\7F\1C\88\7Fh\FA\80\99\0B\9D\BC4f\E6|r\9F#j\9F\029\A1\80N\C4\EB\C1\FF\1F\1CN\87\ACDGC\87\C9 b\B5f\B2\FF'\A3\22\A9\D7\15\19\14\E9\FB\A8\BAb\00\9F\FF\F1K\B5\C9\A6\AD\8F\ACq\9D\A9\B4=`\C3?wo\22|\10\99\B3\17\CE\C4\D3!M8\B4\0FU\CB+\9BT\7F\A0\9D\01\F6Hj`F\A1S*~\FB\E0\94O\84\02\C1\99mB\FC\CBDt\DA.9\19zc%C1\C0\08S\FB\FEU\11\91\FA\88\9FX\BC\EE\93=\F0\CA'\BA~\ABU5y\B5c\B75u|&\96\DEX4/\8BU\C1K\A2<%\83\92\1B\B0\BB\16o\01\FB\ED\AA\B1\9E\CB\8B\EE#w\22\9C\EA\DC\CA\C1y\A9\15^F_\17uv\8A\95\A1\92\C9\1E\19\EC\89\CD\FA\0B6]\12\14\ED\FAI\B7{f\1Fg\EC\80\F9\CE\84\F4\16Y\A8y\1C\E5\1A@\E7\80'\E1\B7\82\D2X\AE7\09\CC1\8F\10\88\90\B0\B8\EC\B2\D1\07\EF\99\85\0B?\FE\B2\15\AA\B4\DC\E6\A7\1F\86\C9j\00g\CE\CE\BD\DF\9A\D4\E1\93\E0\91\A7g\BDB`\00A\A1\D6\8B\E0$m\\,\BB\C8\E0mSx@\91I\CC\AE\18n\88s\F7\E9\FAXHh\96\90\F5[\7F\DA\9E\89jPu\A49\AF-\01^zy\99\8F\88\03\96BR\C9\06\84mx\81\F5\D8\D7\7F\B3\AA\83;\D3\A6{\08\E5\C8\D6\E12\CF\CD_`\D5d\0A\88\90\9AJ\1E\FB&\CD\7F\A1\E0;\\\85\7F\06U\9A\A0\EE\F2\\o\C0\DF\C9\D8J\B3\A6\1EH\EA\C0H\AA/\F4\8B\B0W\FC\8E\1D`\D0&\DA$\F1\DA\94;\F1W\CE\B6]y\12<\82X\08\B7\D6\08=\C5v\ED\81$\B5\17\17\CB\A2n\CAd\0CK\8CvTh\A2m\A2\DD\DC}\CB\09\FD}\CF]/\94\A9\02\0B\09\0B\15T]\FEL|]C5;\F9\D3\E1\A6\E5&\8DT\FA\9E\AFm\1AJ\01\C5{\C4\9A\10\9Fp\B0\E9\B8\C6\1B\09\A1\9CA\B6\9A5\C0\D4\C6\8C\1C$g\F8bK\C9\03\D2c\01\C3\F8D\FC\D7\91v@\9B\1D\CF]Bc\DE\E0y6V\FBM6\94\10\C2\E4B\F5\12\FC\15Y\98\C4+z\E1C\B9\94\F2\9D\93\B2\17{[o>Z[\ECl\CA\F3\9C\97B\9C\CF\EE,\99\05\A71r'\08\BD0\84\BDS\83\83*x\FF\C6P\BDN1J\EC<\E5\EC(d$5V\BF\F8\A46\D1^\AE\13F\0F\94\99\BE6\E1\95w\1B\87\84\85\F6\99\98\17\13\B9?n\84Y{U\E2(\E5&t\C0~\DDW\E7\CF\89\E5/\DA\EA\1A3O\98H8o\EA\96\90!v\EF]\C8\D2\F0?c\BEZ\06\0B\A5\BC\B4\A9Skuz\07\ED\0F\FBm\F1\C7M\CE\EB\E1\94(\C6\12YI\E8\D3\BD\E4\F6\9C\F0`3\8D\\\D9\BB\AB\D7-qd\EC\9D4\C4,9\80\B0\B3\CF\AA\96My\8D\BDg\C5A\F5wG\A0\DC\A0\83U\FC\A0\D7\F0\EC`\1BI\F9\AA,\E4\89Dr\B5\9D\C4\86\16\F49b\9B\B7\D57]\AC\D5\CE\22\C5u(\1C1\C7:\82%\CB\85t\D7\8B\82k6\932c}\BCdq\F7\9E\D3\A8\86\971\03\02\9C\FF]\AE\EB\BDM\B5\86\08S\A8\FC\FD\83\02\83\7F\F5\D9f-\A1b\A8\CAg\D2{\FD$\C3c\DFr\D0`\BC\A4=\A9\DE\80\83m\1E\F7Y\9E\CBGBx\EB\0D\8DS\16a\A4\08\E6t\F0\85\BE\D9RVfQp\E8[y\CD\8B\1F\92l'.\90g\F6\DF2Fq\D9k\80\B6S\DB\A3\D8\1C\BA\00\F3\97\BF\97\CD\CF\86\A0\A4(\D2\CC\0E\A4\E8\80\F0}\AF\FD\C0\83\A8\C8\CD\B2\06\80\12\CD\22al]\1B=\B1\A4\D2\FA\81_\08 W\80kyc\1A1\C6\EE\A6\C3\9C\B0;\05t60\E3\CB\FC`\BDw\AA\90\F4\C3\9C\8A\06\11D\FC\DB\BE;\B9\AC\15\D5\B4\F1\F4D-H\15U\FB\92\EE\C5\F3\8B-\05\11\17\99J\1CM-\15\DD\1Bu\B6\F0\EExF\D5\\\BF]c\A0xZ\D4b\D2\E4\AC*\17\98\0A4\EF4|\C8\16q\89\FB\86\0E\ACz\0E\9F\86\80\95\A0M=\AE\E65]\D4\12W\19\D2F\A8\E0\BA\09\A1\CCY`\83t\89\D7\AC\9F\86X\D2\98\E9K\C9?p8\A4\D1+\06\CC#Tw\83\FF\91\CF\DD'F\A3\06c{\08\BF,)Ud\7F\B6B\D5\B1\17L\C8;\1A\CA\EEwsj=\1F\E4\93J\9E\1D_\BA\CA >\F5*\88b\86\93\8E\9C\EE\82r{\B4~T\8D\B25*\FBg8\B2C\AA#O\9Aa\9E\E91\1F\C3\F4\F9\81\C6\DE\D4\94\EC\E2\00\FA\05d~\F3\F98<\11<\8B\04\DD\D3\8D@\BC\83\DE^p8G\8B\15\0B\AEE\D4H\B1P\AB$\96v\8C\06\19\EE\DA\8D\D9W\09\9B\DD$\D6\AD;\C9\17\A4\CF\D4\A8\F8\87\D6\E5\80\0A\D7\A5L\E5\BC\1D\8D\03\0A\D3\F6\A9L\1F!\CDL\CF\9F^+ep\84\CC\87t\D4\1Fgi\00 \C3Gv;?\C6\D2\DF\D4\C8\84s\E0A\00\F4\D9\EC)\09\CFw\C7\17\0A\FB\A5\90XR\00q\10h\F4\CC\C2U\B9\9D\CCy\CF\B4\EEf@\8D\14\82q\BF\99\D5\93\E2\1F\AC\810U@H\D8L\F1\C6/\00\CB8\DB'\17\A2|jPZ\0E\A0\AD\B8;\C0\FD\06\D2\F1\9C\CA\1C\85\E4\F0\11\08\D9\A6J0\BD\88F.D\FDc\A6\1Dm\16J\8F\90.>v\15\EC\9CJ\9E\FE\872\04N\8EY\9A\BA\CD\D3\1A'D\DD\C5\FD)?\85\E1\F1\EF@(\C1\88\E10\95T\F7|\F4\8E\E6Y\EE+\D1\B9x\F5\8C>\DD\94\9A\CEX\190\F8t\BB\82\E7\D620\8E\14:\C1\01\AF\1F<6Rj\E3\A1\8C?\BC\B1\99\88\F1\C1\9A'\CB\C3\E6D\DC\E5\B7\A7\15\0F`\F5\96\B9\C0\F8^:\10\AB)\DE\A5\11\DB\12\B8\B2\BC\E7\F0\B6\F6H\D4\15tV\0F\D6\91\17f\DF\EB!\ADd4[I\1B\11\95\C9%\BB\CE\9Fk\934\EC\BE\00\D9\0D\B1\CA\FB;\EFi\C2\87F\B8B\A7\EE@OQ]=\FA\0Ak\04\B3)X\E6\12Q*\11\A3\A5\B4\0C\DC\E6\C2\E2\0F\1A\F7\8F\ABr\BA\EA\85\E7\F0G\93\A0s\DB\93\E0\F4\B3V\0Fieg!\EDY\B8\88P\D2\B8\18\F2\E0,S\C3>\C1ih0sUr\83sO\97\8C\FB\13:\C7\18BA\1E\CF\EANdP#\BD\AF\FA\98\08\F9\9E\92\D1\E5\83\A5b}$l\AC\DB9\BFJ\B7F\F7E\DFr\A7]\CE\96\C3K\89\83\B7\8E2\8C\BA\8BkO\11\F5\81|\B4\9E\ABde2?/\A9n\06\A2Ur\A2\9Ba\86\D6\BD\FE\FE\0E{S\0A\C8\85u\87E\01\FD\13\866__\E9,t\06\BD\E7R\E9\96A\FC\98\A7\047\B7#8\11H,\A0\A7\A3\FCQ;\7F\D1\C5\04\A5,\86\15Z\F7\C4H\E6=\13\85\EF\82\FB\22\E7\DBsM\98\9A\F5\DA_\0DXf\AB\A3\BA\EB\E0\D2\D0`>\C1\B3\D1\B7\10\EE?\96\CC\A8&\99\07\05\F9\8D1\1F\C6\E5\94\E9\CF\BB\FFRp\7FIFw\F1\FD\D3\9B\0F\FD\F1a\D5\9F3\A6\EF\ED\8B\EA\B6\FE\C8\82S|n\BA\CA\C7\C0\8Fk\E9.\A5d\FE{ch\1B\0Ai\BD\F9\B0s\C6\A3z\CE\FD=->!Q\A6a\16\9CN\08\\\A6\0C\A1\BE\06\B8\8Di\E5\0F\FA\1B\C3b\0A\F3\CFOInH&\F1\C3\DE\93\F8\E2\F3\FA\CC\EF\C3\A3\DB\89Z\B7v:k\\\DBm\98\1C\E0uZF)\96\F8e\14\09\863R\89\BE#X\13\F1\97\B3\BB\F6\7FY\8Bg\C0\A6+\EE,.X\ED}\A0jt\EF\17\B7@8H\DB\94\DC\1CW\B4N\A4\C2\A8\EB\DD\E4PF\1A\12\BA\13\E4labM\F3\92f\15\1E\E5\D7\A0\96\E8\17\1D\C8\F9\BA \B0w`\CD2\EF\86$^\91.\12\1D\DCt\14\CE\0A\B8\80\FF\AA\A8\AD\B5\B5\BAV$\13\92\99\81\0D\E6`\BF\D5\12\19#\E3il\ED\97\F6\FF\E1\10\8F\9C\97\C5\AB\EF\F5\8D\C1c\F4\1E\FA?\8D\CA\B3\83\FD\B6\96ks\B1\B2|\B1\A6\F8\8F0\BD\A0\E4\BCd|F\D0\DD\DE\DB]\D0\F6\B3|\AC\E4\0E\F6\BE\0D,\A2\8Ak\A9:Bz\F0\CDk\9D\92\B3.\11\B7J\AD\C6S\C9\D2\98l\C1\86Dw`z\D5d\9D\D8\B7\A8{\07\BF\C7q\E8\8BJ|l\05_b\87rI\ADd\D7\1CG\11-]\9B\C7\C6\F6:\A9\CF\9B\D8=\0D\E4\98\D5y4\82yx\B4\89\D3\C3\C2N\8D\10\1D\FFJ\CB`\F1K\CB\106\84\BA9QX*r\DF\CE\FE\B8\ED\1E\FE\94C\A5(\88e\EE\B4N\97\C2>'\A9\A6=z\94\CE2\EA\FE)b\22=s\87\B8)\88f\CC\1C\81_R?Z}5\06\08\A8&4*\80\FFc\A1\F7&\CF\B0\DC\C2\07\CAR0\C14`\FF\BC\C9\B5\F0\02\DD\93\B3\89\FCg|\F1A8?,\FC\E2\ACC\D4x \AC\BB\C0\ED6)\83\A7\9B\9D\0DL\AA\84K\94K\D51\A9\84\F3c\91\02\C5\11\DF\D4e^y\9E\0A}\D3e\F0\BC5C\F6\D5\16J\FF\B5\17FM.\A4?\16\96\01\EA\99EN\8E\BF\D1\CEKP9\8D\CF\9B\FB\81d\C0\D6\E1q/\86\C2^\E4\88p\C3\82z\A2}\F0LZN\BB'sv]U&\BA\91\8C\85N\96o\F8\10\D5\F8\07j:\EA\AF(\B6\EF&\E2\BB\8B6U\0A\F7\89\04\89\E5\DB\B2\A3\AB\B0\DA\EA.\84\EA\CCt\ACE+o\C9OFk\AE\C8\92\9D\92\12\00\C9\8B\0B;\CB\BB\E3\17\06\DAz\B7D7\17@\BBn\CE\09\BD\AA\DC\9D\87\90Y\E5\15\05\1D\10j\0AB\CC\B6\EA\A9\C2T\FAW\8F-#\12J\82F\A9\9FdeT\F3\E9\F8-\B3\F9\AB\96\DC\22\98\93G\BD~)p$w\F9\DF\F7V\BC\93+~xY6\EF\19\C6v\EA\FB\8BZ\B6U<\DBN\EBW\03k\A0w\14\E5\FA\AE\F1#k\0B\92\22\E6\ED\C4\85\88\95Y\9E\B9\DA\ED\ECE\8E6\AB_\E9\9BSu\FD\F7\02\B4\88\14\B4\EB\18\02\CB\DB\11\81\A8\D2\FC\B5\03\E1\AA\19\A1&\9F\C2\BDR\D6\A2R\07|\A3D\99\D5_I\F0F3m\E7K\A5\93\84-\E6\CA\7F\85\DB-V\0C@\A4po\8E\B8\E5\B8\9F\BD\DF\A6R\B9k\0FP\CDL\CB\B2&\1F\A7\07\AD\97\D0\A7\A7F\13\A4\00 ~/xs\C8$\CC^\82\C8(\0C\8Cf\00\D4\8E;V\90\FA-\7F\F6\A2\FA2\0F/\80\00\89r\CAk4y\F9\1E\B4\CB\B9\FF\D2:\A0@+O\BC\86\81\D7\B7&\A1\FE\A8\BF\87I\C8\10\F6\E26\F4\B0\E62\B8$\9F\C9\D7\F4-}\CA\D9\0DC1]\A0?\E6\ED\C6\BB\0Dry\1C=P\91\94}t\88\CF_\A9\F8*\91\CE\97cL\A4u|\CEH\B5\E1\DBi\9B\BA\1A\E1>\BE\AF\86\C9\1B\02\9B\22\DARD\C2ha\99\CE\AD[\E8\FB\A2\C2A\AB\90g\D5\F2\C3\B9?B\99r\E2\FA\A5\19\09k\BA`\C5\97\1A\D4g\C9\9F\87\CD\DC\0F`\CB\05\E9\B8\B6\BD \C9\C1\BB\87\E9\00T\138>G#g$\EDh;\B2\AA\E9#\01)\0B\E3\86\0Cv\C06\94!e\AF\0Ar\B6\A0\F9\CE\9B\A8\8F\93pD\B9i>[\8D\0E\E4\08\F8\C2\C2\92s\B8\8C\95\E7\04\0E\B20\12\1D\0B\B6\B9\B9;H\F3w\BD\90\C2Ho^+\F2\C6\B1(\A8J\1A\F0\D5\EC\B4\F3\1A\0B6\B6\AE8\1E2R\DD l\0B(\E2\B0\E1\8D\C3c\DA\C6%_S\8A\94#\07Y\8D\0E\AD8Z~H\9CW7\E8\ACy\ECH\AF\B0Q\D8\C6\F0\9DZ\83-D\22\18\98'\1B\DB\DCe\8E\F8lE1\E4\F8k\15\0F\BF\F8\F0\08\8A\FFX\1Bd\CB\9E\8E\1B\C5\DA\D2\EE6-\8B\AC?/\22=~Fr\E2w\91\87\AA\84\F8\AD\D7\0F\BBj\CC\1D\D8\0E[\EA\BA\94\EAR\BB\CC\86\E9\B4\C2\9F\12G\E9\98\A5\E99\A5'\EA\7F\A8$b\B3G\D7\98#?\0Ed\88\8E\B1\E4\9F\D2\AD:\A0\19\0D\7F\EC\8E\89>\15\F9\EE\EE\A3\83\AC$\040h\CFS\19+\8EZ\B7\AA\EA\8C\A4\D7-\05<B\C3\A8_\B611eU%\B0\CDMy\06\CB\12\F4\927\11\BF>_U\17\8E\80\D0\0B\E4\BE\8B\D8\BB\E2\D6n\0E\B7*\9D\B1\A0\C4\0E\9D\AE\AE\CEj[\8B\0A\D2du\04\DE\C8uRDZZ\82E\F2.\8D\06\BE\92\85\15\FB\12g\D5\F0\F0\E2\D6\EE=\18\C4\B6{s\ED\9Ck`\85\96\D6MFUL\1Eu\A4Z\D0(\C4\86\B8&<L\E1\97\AA\DFe\92Mq\043\F5\A8f0K\9F\D9=\D5\AB\7F{\D0\C6\E2?\99)@\FE\8E\03\A8F\E5\96_\9A\84x\DB\8F\BF3\D0\BDr\04R\98\DE|\F7\C0\A5V\D2s\EF@Dm\8F\85f>\96\AD\9A\98'vc\A8\95\A8J\A4y\13\00\E7\DDY\C1~\B1S|\12\BBR]\0DX\18\C0`U\AFq\DE\9Dh\1B\D7\E9\A6\B4\10n\1E\F0\B8\AA\0D\07\ABb!q&\92\E8p\CA\04\13\96\B3\CA\D1\C8U\BBi\0D\B0\B6\22\0D\FD\C5\97{`=\05;+*\C4\10\\\E4jP|\B7}\9A\B8\8C\E3\04[\9Az\8A\B9\8EB\B2\AD\92\8E`\F3w\1C\C6\F1@\19\EDg\B2\D3\1EY7\B28\F0U\A37.\91_\E8\01\DF\88f/\C5\DEFlk\C6\E2\BC\BA;1a\8B\15\A0=;K\AC##w\1Bl\A9\8A}9\AE\1A\08\0D\0A^\97\EC\ABU\22\C7S\ED\DC\C7\D9!J\90\8C5\BD\E7\96uu\\T\14\EA\1C\88T.\DAwA\D6P~\D2\92si\99$$\AA\E9\B9\D0\D5\D1\0B\E5\DD\87w\D0\C3\BF-\AD\D4d\E8DK\C6N^\95\B4Jb\DA\97<\EC\84>\11\0B\EF;\F1Z\BDa\DD\FA\D0\BDK'\A6\8E\D5\CD\EA\8A\AD\B1\EC\BA\949E\AD\1E\B1\CF\F2J\81\A5\ED\18\DEg\F4\FCCK,\B3\CE\81\D7\CEp\87\94\CF\EA\801\FC\14^\F7_B\A2\8D\02M\A9y\83%\A1>;\9A5\F5\F7\D2\CA0C\A0\13X\E4n\09\0D\CA\00\83\F2\B5\87\FD\FCS\88\18n\9D\CA\8BH~\E0\91\B7\D1t\9E~4U\CFd\A2^w\DA\9DXv%\06\12\C6\9E\81*\03\FEJ6\95Q\C5\EE\D3\AE\87\96\F7\05\22\F5\83\BD\DD\83:R;uD\CD\14\BE\9AC5yr\96j\92\C4'\8A\92\95\00\9Am\C1\94\82\17\0F<\05\B7u\B1,\F7\BA\80\00\C9\F19c\DD\12\8B\C6$S\EE{\DAtP\A0\1D\97\04^\CA\EB\16\FC\F6\D3\EA\1A\11\92d\08\E5\BC\85\F5\BC\A6\1C\BB\F4\88\A5a\95\B6}J\1E\EC\E62l\D0\E3\E91+\07]\1D\92\8E\EE\92\93\D0\9FCb.2\FF:I\B4\A462\AAw\B8\C3\87\D4\FA\B9\FE\BE\09[\E1M\C4\BE\94\95\E6\B4\A9\89yh\BE.L\D9\AC\B0:\F7|\1D\90\11\0A\F6K\017\9D\0F\0F\D8\\\095\DC$\B4\95\8C\F3\9E\C1\84\84S\13\0E\B4KB\13.\E1\BAo\B0\06\F2\A5e(\CB\88Po\09\CC\BC\8C\D4E.D\B7\87?\F9\FE\AA$\CB\0B\FF\EB\AFI\D79\15\A5i\8F\F7\BE\D5\ED\BD\CE\FE\E6\DB\1CM\88Z\0EDs\B5\97\A5\B46A_p\8910\95\F8\88\0Ah1\FC\CEa\84\11w\CC\AB>|\BA6+\0D\C2\FD\BCBz\E5\D5\94\BF\D6M\1Bi\04v\902=\B5il\AF\05\BD7\86\10\B1\C1\C2I\9A?\A6#\84G\1BG\AC\C5\A7T\1Dr3\DC\80\CF\0F+e\19\E2X\17\B7\D1\A9\A4N@\13a\C3\D3;\DFO\8D\97n\12\83\EA&1\08\AC\1CZd\0A\D7\A3p=\0A\D7\A3\A4p=\0A\D7\A3p=\CC\CC\CC\CC\CC\CC\CC\CC\CD\CC\CC\CC\CC\CC\CC\CC\00\00\00\00\00\00\00\80\00\00\00\00\00\00\00\00\00\00\00\00\00\00\00\A0\00\00\00\00\00\00\00\00\00\00\00\00\00\00\00\C8\00\00\00\00\00\00\00\00\00\00\00\00\00\00\00\FA\00\00\00\00\00\00\00\00\00\00\00\00\00\00@\9C\00\00\00\00\00\00\00\00\00\00\00\00\00\00P\C3\00\00\00\00\00\00\00\00\00\00\00\00\00\00$\F4\00\00\00\00\00\00\00\00\00\00\00\00\00\80\96\98\00\00\00\00\00\00\00\00\00\00\00\00\00 \BC\BE\00\00\00\00\00\00\00\00\00\00\00\00\00(k\EE\00\00\00\00\00\00\00\00\00\00\00\00\00\F9\02\95\00\00\00\00\00\00\00\00\00\00\00\00@\B7C\BA\00\00\00\00\00\00\00\00\00\00\00\00\10\A5\D4\E8\00\00\00\00\00\00\00\00\00\00\00\00*\E7\84\91\00\00\00\00\00\00\00\00\00\00\00\80\F4 \E6\B5\00\00\00\00\00\00\00\00\00\00\00\A01\A9_\E3\00\00\00\00\00\00\00\00\00\00\00\04\BF\C9\1B\8E\00\00\00\00\00\00\00\00\00\00\00\C5.\BC\A2\B1\00\00\00\00\00\00\00\00\00\00@v:k\0B\DE\00\00\00\00\00\00\00\00\00\00\E8\89\04#\C7\8A\00\00\00\00\00\00\00\00\00\00b\AC\C5\EBx\AD\00\00\00\00\00\00\00\00\00\80z\17\B7&\D7\D8\00\00\00\00\00\00\00\00\00\90\ACn2x\86\87\00\00\00\00\00\00\00\00\00\B4W\0A?\16h\A9\00\00\00\00\00\00\00\00\00\A1\ED\CC\CE\1B\C2\D3\00\00\00\00\00\00\00\00\A0\84\14@aQY\84\00\00\00\00\00\00\00\00\C8\A5\19\90\B9\A5o\A5\00\00\00\00\00\00\00\00:\0F \F4'\8F\CB\CE\00\00\00\00\00\00\00\00\84\09\94\F8x9?\81\00\00\00\00\00\00\00@\E5\0B\B96\D7\07\8F\A1\00\00\00\00\00\00\00P\DENg\04\CD\C9\F2\C9\00\00\00\00\00\00\00\A4\96\22\81E@|o\FC\00\00\00\00\00\00\00M\9D\B5p+\A8\AD\C5\9D\00\00\00\00\00\00 \F0\05\E3L6\12\197\C5\00\00\00\00\00\00(l\C6\1B\E0\C3V\DF\84\F6\00\00\00\00\00\002\C7\\\11l:\96\0B\13\9A\00\00\00\00\00@\7F<\B3\15\07\C9{\CE\97\C0\00\00\00\00\00\10\9FK \DBH\BB\1A\C2\BD\F0\00\00\00\00\00\D4\86\1E\F4\88\0D\B5P\99v\96\00\00\00\00\80D\14\131\EBP\E2\A4?\14\BC\00\00\00\00\A0U\D9\17\FD%\E5\1A\8EO\19\EB\00\00\00\00\08\AB\CF]\BE7\CF\D0\B8\D1\EF\92\00\00\00\00\E5\CA\A1Z\AD\05\03\05'\C6\AB\B7\00\00\00@\9E=J\F1\19\C7C\C6\B0\B7\96\E5\00\00\00\D0\05\CD\9Cmo\\\EA{\CE2~\8F\00\00\00\A2#\00\82\E4\8B\F3\E4\1A\82\BF]\B3\00\00\80\8A,\80\A2\DDn0\9E\A1b/5\E0\00\00 \AD7 \0B\D5E\DE\02\A5\9D=!\8C\00\004\CC\22\F4&E\D6\95C\0E\05\8D)\AF\00\00A\7F+\B1p\96L{\D4QF\F0\F3\DA\00@\11_v\DD\0C<\0F\CD$\F3+v\D8\88\00\C8j\FBi\0A\88\A5S\00\EE\EF\B6\93\0E\AB\00zEz\04\0D\EA\8Eh\80\E9\AB\A48\D2\D5\80\D8\D6\98E\90\A4rA\F0q\EBfc\A3\85PG\86\7F+\DA\A6GQlN\A6@<\0C\A7$\D9g_\B6\90\90\99e\07\E2\CFPK\CF\D0m\CFA\F7\E3\B4\F4\FF\9FD\ED\81\12\8F\81\82\A4!\89z\0E\F1\F8\BF\C7\95h\22\D7\F2!\A3\0Dj+\19R-\F7\AF9\BB\02\EB\8Co\EA\CB\90Dv\9F\A6\F8\F4\9B\08j\C3%p\0B\E5\FE\B4\D5SG\D06\F2\02E\22\9A\17&'O\9F\90e\94,Bb\D7\01\D6\AA\80\9D\EF\F0\22\C7\F5~\B9\B7\D2:MB\8B\D5\E0\84+\AD\EB\F8\B2\DE\A7e\87\89\E0\D2w\85\0C3;L\93\9B/\EB\88\9F\F4U\CCc\D5\A6\CF\FFI\1Fx\C2\FB%k\C7qk\BF<\8A\90\C3\7F\1C'\16\F3z\EFE9NF\EF\8BV:\DA\CFq\D8\ED\97\AC\B5\CB\E3\F0\8Bu\97\EC\C8\D0C\8EN\E9\BD\17\A3\BE\1C\ED\EER='\FB\C4\D41\A2c\ED\DDK\EEc\A8\AA\A7L\F8\1C\FB$_E^\94j\EFt>\A9\CA\E8\8F6\E49\EE\B6\D6u\B9D+\12\8ES\FD\E2\B3D]\C8\A9dL\D3\E7\16\B6\96q\A8\BC\DB`J:\1D\EA\BE\0F\E4\90\CD1\FEF\E9U\89\BC\DD\88\A4\A4\AE\13\1D\B5A\BE\BD\98c\AB\ABk\14\AB\CDM\9AXd\E2\D1-\ED~<\96\96\C6\EC\8A\A0p`\B7~\8D\A2<T\CF\E5\1D\1E\FC\A8\AD\C8\8C8e\DE\B0\CBK)C_\A5%;\12\D9\FA\AF\86\FE\15\DD\BE\9E\F3\13\B7\0E\EFI\AB\C7\FC-\14\BF-\8A7Cxl2i5n\96\F9{9\D9.\B9\AC\04T\96\07\7F\C3\C2I\FB\F7\DA\87\8Fz\E7\D7\06\E9{\C9^t3\DC\FD\DA\E8\B4\99\AC\F0\86\A3q\ED=\BB(\A0i\BC\11#\22\C0\D7\AC\A8\0C\CEh\0D\EA2\08\C4+\D6\AB*\B0\0D\D8\D2\90\01\C3\90\A4?\0A\F5\DBe\AB\1A\8E\08\C7\83\FA\E0y\DA\C6g&yR?V\A1\B1\CA\B8\A48Y\18\91\B8\01pW&\CF\AB\09^\FD\E6\CD\86o^\B5&\02L\EDxa\0B\C6Z^\B0\80\B4\05[1X\81OT\D69\8Ew\F1u\DC\A0!\C7\B1=\AEaciL\C8q\D5m\93\13\C9\E98\1E\CD\19:\BC\03_:\CEJIxX\FB#\C7e@\A0H\AB\04{\E4\C0\CE-K\17\9Dv\9C?(d\0D\EBb\9A\1DqB\F9\1D]\C4\94\83O2\BD\D0\A5;\00e\0D\93wet\F5yd\E3~\ECD\8F\CA _\E8\BBj\BFh\99\CB\1EN\CF\13\8B\99~\E8v\E2jE\EF\C2\BF~\A6!\C3\D8\ED?\9E\A2\14\9B\C5\16\AB\B3\EF\1E\10\EA\F3N\E9\CF\C5\E5\EC\80;\EEJ\D0\95\12JrX\D1\F1\A1\BB\1F(a\CA\A9]D\BB\97\DC\8E\AEEn\8A*&r\F9<\14u\15\EA\BD\932\1A\D7\09-\F5X\E7\1B\A6,iM\92V\9C_p&&<Y.\E1\A2\CFw\C3\E0\B6l\83w\0C\B0/\8Boz\99\8B\C3U\F4\98\E4Gd\95\0F\9C\FBm\0B\EC?7\9A\B5\98\DF\8E\AC^\BD\89A\BD$G\E7\0F\C5\00\E3~\97\B2W\B6,\EC\91\EC\EDX\E1S\F6\C0\9B^=\DF\ED\E37g\B6g)/l\F4\99X![\86\8Bt\EE\82\00\D2\E0y\BD\87q\C0\AE\E9\F1g\AE\11\AA\A3\80\06Y\D8\EC\E9\8Dp\1Ad\EE\01\DA\95\94\CC Ho\0E\E8\B2X\86\90\FE4A\88\DD\DC\7F\14\8D\05\091\DE\EE\A74>\82Q\AA\15\D4\9FY\F0FK\BD\96\EA\D1\C1\CD\E2\E5\D4\1A\C9\07p\AC\18\9El\9E2#\99\C0\AD\0F\85\B0\DD\04\C6k\CF\E2\03E\FFk\BF0\99S\A6\1C\15\86\B7F\83\DB\84\16\FFF\EF|\7F\E8\CFc\9Age\18d\12\E6n_\8C\15\AEO\F1\81~\C0`?\8F~\CBOIw\EF\9A\99\A3m\A2\9D\F08\0F3^\BE\E3\1CU\AB\01\80\0C\09\CB\C5,\07\D3\BF\F5\AD\\c*\16\02\A0O\CB\FD\F6\F7\C8\C7/s\D9s~\DAM\01\C4\11\9F\9E\FA\9A\DD\DC\FD\E7g(\1DQ\A1\015\D6F\C6\B8\01\15T\FD\E1\81\B2e\A5\09B\C2\8B\D8\F7&B\1A\A9|Z\22\1F_\07FiYW\E7\9AXi\B0\E9\8Dxu37\89\97\C3/-\A1\C1\AE\83\1Cd\B1\D6R\00\84k}\B4{x\09\F2\9A\A4#\BD]\8Cg\C02c\CEPM\EBE\97\E0F6\96\BA\B7@\F8\FF\FB\01\A5 f\17\BD\98\D8\C3;\A9\E5P\B6\FFzB\CE\A8?]\EC\BE\CE\B4\8A\13\1F\E5\A3\DF\8C\E9\80\C9G\BA\937\01\B16l3o\C6\17\F0#\E1\BB\D9\A8\B8\84A]DG\00\0B\B8\1D\ECl\D9*\10\D3\E6\E5\91t\15Y\C0\0D\A6\92\13\E4\C7\1A\EAC\90/\DBh\AD7\98\C8\87w\18\DDy\A1\E4T\B4\FB\11\C3\98E\BE\BA)\94^T\D8\C9\1Dj\E1z\D6\F3\FE\D6m)\F4\1D\BB4'\9ER\E2\8C\0CfX_\A6\E4\99\18\E4\E9\01\B1E\E7\1A\B0\8F\7F.\F7\CF]\C0^]dB\1D\17\A1!\DCs\1F\FA\F4Cupv\BA~Ir\AE\04\95\89\A8S\1CyJI\06ji\DE\DB\0E\DAE\FA\AB\92hc\17\9D\DB\87\04\03\D6\92\92P\D7\F8\D6\B6B<]\84\D2\A9E\C2\C5\9B[\92\86[\86\B2\A9E\BA\92#\8A\0B2\B7\82\F26h\F2\A7\1E\14\D7hw\ACl\8E\FFd#\AFD\02\EF\D1&\D9\0CC\95\D7\072\1F\1Fv\EDja5\83\B8\07\E8I\BD\E6D\7F\E7\A6\D3\A8\C5\B9\02\A4\A6\09b\9Cl \16_\A1\90\08\137h\03\CD\0F\8Cz\C3\87\A8\DB6dZ\E5k\22!\22\80\89\97,\DATII\C2\FD\B0\DE\06k\A9*\A0l\BD\B7\10\AA\9B\DB\F2=]\96\C8\C5S5\C8\C7\AC\E5\94\94\82\92o\8C\F4\BB:\B7\A8B\FA\F9\17\1F\BA9#w\CB\D7x\B5\84r\A9i\9C\FBnS\14\04v*\FF\0D\D7\E2%\CF\13\84\C3\BAJh\19\85\13\F5\FE\D1\8C[\EF\C2\18e\F4i]\C2_fX\B2~\028\99\D5y/\BF\98az\D9\FB?w/\EF\03\86\FFJX\FB\EE\BE\FA\D8\CF\FA\0FU\FB\AA\84g\BF].\BA\AA\EE8\CF\83\F9S*\BA\95\B2\A0\97\FA\\\B4*\95\83a\F2{tZ\94\DD\DF\88=9tau\BA\E4\F9\EE\9A\11q\F9\94\17\EB\8CG\D1\B9\12\E9]\B8\AA\01V\CD7z\EE\12\B8\CC\22\B4\AB\91:\B3\0A\C1U\E0b\AC\AA\17\E6\7F+\A1\16\B6\09`M1k\98{W\94\9D\DF_vI\9C\E3\0B\B8\A0\FD\85~Z\ED}\C2\EB\FB\E9\ADA\8E\07s\84\BE\13\8FX\14\1C\B3\E6zd\19\D2\B1\C8\8F%\AE\D8\B2nY\E3_\A0\99\BD\9FF\DE\BB\F3\AE\D9\8E_\CAo\EE;\04\80\D6#\EC\8ATX\0DH\B9{\DE%\E9J\05 \CC,\A7\ADj\AE\10\9A\A7\1AV\AF\A4\9D\06(\FF\F7\10\D9\04\DA\94\80Q\A1+\1B\86\22\04y\FF\9A\AA\87B\08]\F0\D2D\FB\90(+EW\BFA\95\A9SJt\AC\07\16:5\F2u\16-/\92\FA\D3\E8\\\91\97\89\9B\88B\B7\09.|]\9B|\84\11\DA\BA\FE5a\95i%\8C9\DB4\C2\9B\A5\95\90i~\83\B9\FAC.\EF\07\12\C2\B2\02\CF\BB\F4\03^\E4g\F9\94}\F5DK\B9\AFa\81\F5x\C2\BA\EE\E0\1B\1D\DC2\16\9E\A7\1B\BA\A12\17si*\D9bd\93\BF\9B\85\91\A2(\CA\FE\DC\CF\03u\8F{}x\AF\02\E75\CB\B2\FC>\D4\C3DRs\DA\\\AB\ADa\B0\01\BF\EF\9D\A7d\FAj\13\88\08:\16\19z\1C\C2\AEk\C5\D0\FD\B8E\18\AA\8A\08[\9F\98\A3r\9A\C6\F6E='W\9ET\AD\8A\99c?\A6\87 <\9AK\86x\F6\E2T\AC6\7F<\CF\8F\A9(\CB\C0\DD\A7\16\B4\1BjW\84\9F\0B\C3\F3\D3\F2\FD\F0\D5Q\1C\A1\A2DmeC\E7Yx\C4\B7\9E\96%\B3\B1\A4\E5Jd\9F\14ap\96\B5eF\BC\EE\1F\DE\0D\9F]=\87Yy\0C\FC\22\FFW\EB\EA\A7U\D1\06\B5\0C\A9\D8\CB\87\DDu\FF\16\93\F2\88\D5B$\F1\A7\09\CE\BE\E9TS\BF\DC\B7/\EB\8ASm\ED\11\0C\81.$*(\EF\D3\E5\FA\A5m\A8\C8h\16\8F\10\9DV\1Ayu\A4\8F\BC\87Di}\01n\F9UD\EC`\D7\92\8D\B3\AC\A9\95\C3\DC\81\C97jU'9\8D\F7p\E0\17\14{\F4S\E2\BB\85b\95\B8C\B8\9AF\8C\8E\EC\CCxtm\95\93\BB\BA\A6TfAX\AF\B2'\00\97\D1\C8z8ji\D0\E9\BFQ.\DB\9E1\C0\FC\05{\99\06\E2A\22\F2\17\F3\FC\88\03\1F\F8\BD\E3\EC\1FDZ\D2\AA\EE\DD/<\AB\C3&v\AD\1C\E8'\D5\F1\86Uj\D5;\0B\D6t\B0\D3\D8#\E2q\8AVtube\05\C7\85IN\84gV-\87\F6l\D1\12\BB\BE\C68\A7\DBae\01\AC\F8(\B4\C7\85\D7in\F8\06\D1R\BA\BE\01\D763\E1\9C\B3&\02E[\A4\82s4\17aF\02\C0\EC\84`\B0B\16rM\A3\90\01]\F9\D7\02\F0'\A5x\\\D3\9B\CE \CC\F4A\B4\F7\8D\03\EC1\CE\963\C8B\02)\FFqR\A1uq\04g~A> \BDi\A1y\9F\86\D3\84\E9\C6b\00\0F\D1Mh,\C4\09X\C7h\08\E6\A3x{\C0REa\8275\0C.\F9\82\8A\DF\CCV\9Ap\A7\CB|\B1B\A1\C7\BC\9B\91\B6\0B@v`\A6\88\FE\DB]\93\89\F9\AB\C25\A4\0E\D0\93\F8\CFj\FER5\F8\EB\F7V\F3CM\12\C4\B8\F6\83\05\DES!{\F3Z\16\98Jp\8Bz3zr\C3\D6\A8\E9Y\B0\F1\1B\BE\\L.Y\C0\18Ot\0C\13dp\1C\EE\A2\EDs\DFyo\F0\DEb\11\E7\8B>\C6\D1\D4\85\94\A8+\ACEV\CB\DD\8A\E1.\CE7\06J\A7\B9\926\17\D7+>\95m\99\BA\C1\C5\87\1C\11\E87\04\DD\CC\B6\8D\FA\C8\A0\14\99\DB\D4\B1\0A\91\A2\22\0A@\92\98\9C\1D\C8Y\7F\12J^M\B5K\AB\0C\D0\B6\BE\03%:0\1F\97\DC\B5\A0\E2\1D\D6\0F\84d\AED.$~s\DE\A9q\A4\8D\D2\E5\89\D2\FE\EC\EA\\\AD]\10V\14\8E\0D\B1G_,\87>\A8%t\18u\94k\99\F1P\DD\19w\F7(N\12/\D1/\C9<\E3\FF\96R\8Ao\AA\9A\D9pk\BD\82{\FB\0B\DC\BF<\E7\AC\0BU\01\10M\C6lcZ\FA\0E\D3\EF\0B!\D8N\AA\01T\E0\F7G<x\\\E9\E3u\A7\14\87q\0A\814\EC\FA\ACe\96\B3\E3\\S\D1\D9\A8\0DM\A1A\A79\18\7F|\A0\1C4\A8E\10\D3P\A0\09\12\11H\DE\1EM\E4\91 \89+\EA\832\04F\AB\0A\EDJ\93`]\B6hk\B6\E4\A4?\85\17VM\A8\1D\F8\B9\F4\E3B\06\E4\1D\CE\8Ef\9D\AB`\12%6\F3x\CE\E9\83\AE\D2\80\19`Bk|+\D7\C10\17B\E4$Z\07\A1\1F\F8\12\86[\F6L\B2\FC\9CR\1D\AE0I\C9'\B6\97g\F23\E0\DE<D\A7\A4\D9|\9B\FB\B1\A3}\01\EF@\98\16\A5\8A\E8\06\08.A\9DN\86\EE`\95(\1F\8EN\AD\A2\08\8Ay\91\C4\E2'*\B9\BA\F2\A6\F1\A2X\CB\8A\EC\D7\B5\F5\DB\B1tgi\AF\10\AEe\17\BF\D6\F3\A6\91\99)\EF\A8\E0\A1m\CA\AC?\DDn\CC\B0\10\F6\BF\F3*\D3X\0A\09\FD\17\8E\94\8A\FF\DC\94\F3\EF\B0\F5\07\EFLK\FC\DD\D9\9C\B6\1F\0A=\F8\95\8E\F9d\15\10\AF\BDJ\0FD\A4\A7LLv\BB\F17\BE\1A\D4\1Am\9D\13U\8D\D1_\DFS\EA\ED\C5m!\89a\C8\84,U\F8\E2\9Bkt\92\B4\9B\E4\B4\F5<\FD2wj\B6\DB\82\86\11\B7\A1\C2\1D\223\8C\BC?\15\05\A4\92#\E8\D5\E4J3\A5\EA?\AF\AB\0F-\83\A6;\16\B1\05\8F\0E@\A7\F2\87M\CB)\F8#\90\CA[\1D\C7\B2\12\10Q\EF\E9 >t\F6,4\BD\B2\E4x\DF\16T%k$\A9M\91\1A\9C@\B6\EF\8E\AB\8B\8ET\F7\C2\B6\89\D0\1A \C3\D0\A3\ABr\96\AE\B1)\B5s$\AC\84\A1\E8\F3\C4\8CV\0F<\DA\1Et\A2\90-\D7\E5\C9q\18\FB\17\96\89e\88\92\88ez|\A6/~\8D\DE\F9\9D\FB\EB~\AA\B7\EA\FE\98\1B\90\BB\DD1Vx\85\FA\A6\1E\D5e\A5>\7F\22t*U\DE5k\93\\(3\85_'\87\8F\95\88:\D5V\03F\B8s\F2\7F\A67\F1h\F3\BA*\89\8A,\84W\A6\10\EF\1F\D0\85-C\B0iu+-\9B\B2\F6gj\F5\13\82s\FC)\0Eb);\9CB_\F4\01\C5\F2\98\A2\8F{\B4\91\BA\F3I\83\13wqBv/?\CBs\9A!6\A9p\1C$\D7\D4\0D\D3S\FB\0E\FE\10\01\AA\83\D3\8C#\ED\06\A5\E8c\14]\C9\9E\AA@J2\0486\F4H\CE\E2|Y\B4{\C6\D5\D0\DC>\05\C6C\B1\DA\81\1B\DCo\A1\1A\F8\0A\05\94\8E\86\B7\94\DD(1\91\E9\E5\A4\10\9B&\83\1C\19\B4\F2|\CAr}\F5c\1F\CE\D4\C1\F0\A3c\1Fa/\1C\FD\CF\DC\F2<\A7\01J\F2\EC\8C<g9;c\BC\01\CA\17\86\08An\97\13\D8\85\E0\03\05\BE\D5\82\BC\9D\A7J\D1I\BD\18N\A7\D8D\86-K\A2+\85Q\9DE\9C\EC\9E!\D1\0E\D6\E7\F8\DDE;\F3R\82\AB\E1\93\03\B5B\C9\E5\90\BB\CA\17\0A\B0\E7b\16\DA\B8Cb\93;\1Fuj=\9D\0C\9C\A1\FB\9B\10\E7\D4:x\0Ag\12\C5\0C\E2\87\01E}aj\90\C5$\8Bf\80+\FB'\DA\E9A\96\DC\F9\84\B4\F6\ED-\80`\F6\F9\B1Qd\D2\BBS8\A6\E1si9\A0\F8sx^\B2~cU4\E3\07\8D\E8\E1#d{H\0B\DB_^\BCj\01\DCI\B0b\DA,=\9A\1A\CE\91\F7uk\C5\01S\\\DC\FB\10x\CC@\A1Av\BA)c\1B\E1\B3\B9\89\9D\0A\CB\7F\C8\04\E9\A9)\F4;b\D9 (\ACD\CD\BD\9F\FAEcT3\F1\CA\BA\0F)2\D7\95@\ADGy\17|\A9\C0\D6\BE\D4\A9Y\7F\86]H\CC\CC\AB\8E\EDIp\8C\EEI\140\1F\A8tZ\FF\BFV\F2h\\\8C/j\\\19\FC&\D2\111\FFo\EC.\83s\B7]\C2\D9\8F]X\83\AB~\FF\C5S\FD1\C8%\F52\D0\F3t.\A4U^\7F\B7\A8|>\BAo\B2?\C40\12:\CD\EB5_\E5\D2\1B\CE(\85\CF\A7z^KD\80\B3\81[\CFc\D1\80yf\C3Q\196^U\A0\1Fb2\C3\BC\05\E1\D7@4\A6\9F\C3\B5j\C8\A7\FA\FE\F3+G\D9\8DP\C1\8F\874c\85\FAQ\B9\FE\F0\F6\98O\B1\D2\D8\B9\D4\00^\93\9C\D33\9FV\9A\BF\D1n\07O\E8\09\815\B8\C3\C8\00G\EC\80/\86\0A\C8bbL\E1B\A6\F4\FA\C0X'a\BB'\CD\BD}\BD\CF\CC\E9\E7\98\9Cx\97\B8\1C\D58\80,\DD\AC\03@\E4!\BF\C3V\BD\E6c\0AG\E0x\14\98\04P]\EA\EEt\ACl\E0\FC\CCX\18\CB\0C\DF\02RzR\95\C8\EBC\0C\1E\807\0F\FD\CF\96\83\E6\18\A7\BA\BA\E6T\8F%`\05\D3\FD\83|$ \DFP\E9i *\F3.\B8\C6G~\D2\CD\16t\8B\D2\91AT\FAW\1D3\DCL\1DG\81\1CQ.G\B6R\E9\F8\AD\E4?\13\E0\E5\98\A1c\E5\F9\D8\E3\A6#w\D9\DD\0F\18X\8F\FFD^/\9Cg\8EHv\EA\A7\EA\09\0FW" }>, align 8
@anon.81eb2ca617e7b492be846be889fa0cc1.507 = private unnamed_addr constant <{ [15 x i8] }> <{ [15 x i8] c"ParseFloatError" }>, align 1
@anon.81eb2ca617e7b492be846be889fa0cc1.508 = private unnamed_addr constant <{ [4 x i8] }> <{ [4 x i8] c"kind" }>, align 1
@anon.81eb2ca617e7b492be846be889fa0cc1.510 = private unnamed_addr constant <{ [5 x i8] }> <{ [5 x i8] c"Empty" }>, align 1
@anon.81eb2ca617e7b492be846be889fa0cc1.511 = private unnamed_addr constant <{ [7 x i8] }> <{ [7 x i8] c"Invalid" }>, align 1
@anon.81eb2ca617e7b492be846be889fa0cc1.523 = private unnamed_addr constant <{ [4 x i8] }> <{ [4 x i8] c"Zero" }>, align 1
@anon.81eb2ca617e7b492be846be889fa0cc1.534 = private unnamed_addr constant <{ [13 x i8] }> <{ [13 x i8] c"ParseIntError" }>, align 1
@anon.81eb2ca617e7b492be846be889fa0cc1.536 = private unnamed_addr constant <{ [12 x i8] }> <{ [12 x i8] c"InvalidDigit" }>, align 1
@anon.81eb2ca617e7b492be846be889fa0cc1.537 = private unnamed_addr constant <{ [11 x i8] }> <{ [11 x i8] c"PosOverflow" }>, align 1
@anon.81eb2ca617e7b492be846be889fa0cc1.538 = private unnamed_addr constant <{ [11 x i8] }> <{ [11 x i8] c"NegOverflow" }>, align 1
@anon.81eb2ca617e7b492be846be889fa0cc1.629 = private unnamed_addr constant <{ [4 x i8] }> <{ [4 x i8] c"None" }>, align 1
@anon.81eb2ca617e7b492be846be889fa0cc1.630 = private unnamed_addr constant <{ [4 x i8] }> <{ [4 x i8] c"Some" }>, align 1
@anon.81eb2ca617e7b492be846be889fa0cc1.705 = private unnamed_addr constant <{ [9 x i8] }> <{ [9 x i8] c"Utf8Error" }>, align 1
@anon.81eb2ca617e7b492be846be889fa0cc1.706 = private unnamed_addr constant <{ [11 x i8] }> <{ [11 x i8] c"valid_up_to" }>, align 1
@anon.81eb2ca617e7b492be846be889fa0cc1.707 = private unnamed_addr constant <{ [9 x i8] }> <{ [9 x i8] c"error_len" }>, align 1
@anon.81eb2ca617e7b492be846be889fa0cc1.709 = private unnamed_addr constant <{ [14 x i8] }> <{ [14 x i8] c"ParseBoolError" }>, align 1
@"switch.table._ZN42_$LT$$RF$T$u20$as$u20$core..fmt..Debug$GT$3fmt17h4536ddca0feb816dE" = private unnamed_addr constant [5 x i64] [i64 5, i64 12, i64 11, i64 11, i64 4], align 8
@"switch.table._ZN42_$LT$$RF$T$u20$as$u20$core..fmt..Debug$GT$3fmt17h4536ddca0feb816dE.336" = private unnamed_addr constant [5 x ptr] [ptr @anon.81eb2ca617e7b492be846be889fa0cc1.510, ptr @anon.81eb2ca617e7b492be846be889fa0cc1.536, ptr @anon.81eb2ca617e7b492be846be889fa0cc1.537, ptr @anon.81eb2ca617e7b492be846be889fa0cc1.538, ptr @anon.81eb2ca617e7b492be846be889fa0cc1.523], align 8

; Function Attrs: nofree nounwind
define internal noundef zeroext i1 @_ZN4core3fmt5Write10write_char17hbd85cbc69ce05ffaE(ptr noalias nocapture noundef readonly align 4 dereferenceable(4) %self, i32 noundef %c) unnamed_addr #0 {
start:
  %_6 = alloca [4 x i8], align 4
  call void @llvm.lifetime.start.p0(i64 4, ptr nonnull %_6)
  store i32 0, ptr %_6, align 4
  %_73.i = icmp ult i32 %c, 128
  br i1 %_73.i, label %bb6.i, label %bb13.i

bb13.i:                                           ; preds = %start
  %_74.i = icmp ult i32 %c, 2048
  br i1 %_74.i, label %bb7.i, label %bb15.i

bb15.i:                                           ; preds = %bb13.i
  %_75.i = icmp ult i32 %c, 65536
  br i1 %_75.i, label %bb8.i, label %bb9.i

bb6.i:                                            ; preds = %start
  %0 = trunc i32 %c to i8
  store i8 %0, ptr %_6, align 4, !alias.scope !10
  br label %_ZN4core4char7methods15encode_utf8_raw17hcf6fef9b2e1b1da9E.exit

bb7.i:                                            ; preds = %bb13.i
  %_20.i = lshr i32 %c, 6
  %1 = trunc i32 %_20.i to i8
  %2 = or i8 %1, -64
  store i8 %2, ptr %_6, align 4, !alias.scope !10
  %3 = trunc i32 %c to i8
  %_22.i = and i8 %3, 63
  %4 = getelementptr inbounds [0 x i8], ptr %_6, i64 0, i64 1
  %5 = or i8 %_22.i, -128
  store i8 %5, ptr %4, align 1, !alias.scope !10
  br label %_ZN4core4char7methods15encode_utf8_raw17hcf6fef9b2e1b1da9E.exit

bb8.i:                                            ; preds = %bb15.i
  %_30.i = lshr i32 %c, 12
  %6 = trunc i32 %_30.i to i8
  %7 = or i8 %6, -32
  store i8 %7, ptr %_6, align 4, !alias.scope !10
  %_34.i = lshr i32 %c, 6
  %8 = trunc i32 %_34.i to i8
  %_32.i = and i8 %8, 63
  %9 = getelementptr inbounds [0 x i8], ptr %_6, i64 0, i64 1
  %10 = or i8 %_32.i, -128
  store i8 %10, ptr %9, align 1, !alias.scope !10
  %11 = trunc i32 %c to i8
  %_36.i = and i8 %11, 63
  %12 = getelementptr inbounds [0 x i8], ptr %_6, i64 0, i64 2
  %13 = or i8 %_36.i, -128
  store i8 %13, ptr %12, align 2, !alias.scope !10
  br label %_ZN4core4char7methods15encode_utf8_raw17hcf6fef9b2e1b1da9E.exit

bb9.i:                                            ; preds = %bb15.i
  %_45.i = lshr i32 %c, 18
  %14 = trunc i32 %_45.i to i8
  %_43.i = and i8 %14, 7
  %15 = or i8 %_43.i, -16
  store i8 %15, ptr %_6, align 4, !alias.scope !10
  %_49.i = lshr i32 %c, 12
  %16 = trunc i32 %_49.i to i8
  %_47.i = and i8 %16, 63
  %17 = getelementptr inbounds [0 x i8], ptr %_6, i64 0, i64 1
  %18 = or i8 %_47.i, -128
  store i8 %18, ptr %17, align 1, !alias.scope !10
  %_53.i = lshr i32 %c, 6
  %19 = trunc i32 %_53.i to i8
  %_51.i = and i8 %19, 63
  %20 = getelementptr inbounds [0 x i8], ptr %_6, i64 0, i64 2
  %21 = or i8 %_51.i, -128
  store i8 %21, ptr %20, align 2, !alias.scope !10
  %22 = trunc i32 %c to i8
  %_55.i = and i8 %22, 63
  %23 = getelementptr inbounds [0 x i8], ptr %_6, i64 0, i64 3
  %24 = or i8 %_55.i, -128
  store i8 %24, ptr %23, align 1, !alias.scope !10
  br label %_ZN4core4char7methods15encode_utf8_raw17hcf6fef9b2e1b1da9E.exit

_ZN4core4char7methods15encode_utf8_raw17hcf6fef9b2e1b1da9E.exit: ; preds = %bb9.i, %bb8.i, %bb7.i, %bb6.i
  %_54.i = phi i64 [ 4, %bb9.i ], [ 3, %bb8.i ], [ 2, %bb7.i ], [ 1, %bb6.i ]
  tail call void @llvm.experimental.noalias.scope.decl(metadata !13)
  %_3.i = load i32, ptr %self, align 4, !alias.scope !13, !noalias !16, !noundef !18
  br label %bb11.i.i

bb11.i.i:                                         ; preds = %bb11.i.i, %_ZN4core4char7methods15encode_utf8_raw17hcf6fef9b2e1b1da9E.exit
  %written.05.i.i = phi i64 [ %26, %bb11.i.i ], [ 0, %_ZN4core4char7methods15encode_utf8_raw17hcf6fef9b2e1b1da9E.exit ]
  %new_len.i.i = sub nuw i64 %_54.i, %written.05.i.i
  %data.i.i = getelementptr inbounds i8, ptr %_6, i64 %written.05.i.i
  %25 = call noundef i64 @write(i32 noundef %_3.i, ptr noundef nonnull %data.i.i, i64 noundef %new_len.i.i) #31, !noalias !13
  %or.cond.not7.i.i = icmp sgt i64 %25, 0
  %26 = add i64 %25, %written.05.i.i
  %_5.i.i = icmp ult i64 %26, %_54.i
  %or.cond6.i.i = and i1 %or.cond.not7.i.i, %_5.i.i
  br i1 %or.cond6.i.i, label %bb11.i.i, label %"_ZN61_$LT$libc_print..__LibCWriter$u20$as$u20$core..fmt..Write$GT$9write_str17hfeba44cb5b2df8dfE.exit"

"_ZN61_$LT$libc_print..__LibCWriter$u20$as$u20$core..fmt..Write$GT$9write_str17hfeba44cb5b2df8dfE.exit": ; preds = %bb11.i.i
  call void @llvm.lifetime.end.p0(i64 4, ptr nonnull %_6)
  ret i1 false
}

; Function Attrs: nounwind
define internal noundef zeroext i1 @_ZN4core3fmt5Write9write_fmt17hc588d76eadd81789E(ptr noalias noundef align 4 dereferenceable(4) %self, ptr noalias nocapture noundef readonly align 8 dereferenceable(48) %args) unnamed_addr #1 {
start:
  %_0.i = tail call fastcc noundef zeroext i1 @_ZN4core3fmt5write17he9fa43146d420946E(ptr noundef nonnull align 1 %self, ptr noalias noundef nonnull readonly align 8 dereferenceable(24) @vtable.4, ptr noalias nocapture noundef nonnull readonly align 8 dereferenceable(48) %args) #31
  ret i1 %_0.i
}

; Function Attrs: inlinehint mustprogress nofree norecurse nosync nounwind willreturn memory(none)
define internal void @"_ZN4core3ptr45drop_in_place$LT$libc_print..__LibCWriter$GT$17h6ef617935bab3b09E"(ptr noalias nocapture align 4 %_1) unnamed_addr #2 {
start:
  ret void
}

; Function Attrs: inlinehint mustprogress nofree norecurse nosync nounwind willreturn memory(none)
define internal void @"_ZN4core3ptr48drop_in_place$LT$core..str..error..Utf8Error$GT$17h4c4b3d5c09d9d5b0E"(ptr noalias nocapture align 8 %_1) unnamed_addr #2 {
start:
  ret void
}

; Function Attrs: inlinehint mustprogress nofree norecurse nosync nounwind willreturn memory(none)
define internal void @"_ZN4core3ptr52drop_in_place$LT$core..num..error..ParseIntError$GT$17hed91198495868282E"(ptr noalias nocapture align 1 %_1) unnamed_addr #2 {
start:
  ret void
}

; Function Attrs: inlinehint mustprogress nofree norecurse nosync nounwind willreturn memory(none)
define internal void @"_ZN4core3ptr53drop_in_place$LT$core..str..error..ParseBoolError$GT$17h480800684d7119cdE"(ptr noalias nocapture nonnull align 1 %_1) unnamed_addr #2 {
start:
  ret void
}

; Function Attrs: inlinehint nofree nounwind
define internal noundef zeroext i1 @"_ZN61_$LT$libc_print..__LibCWriter$u20$as$u20$core..fmt..Write$GT$9write_str17hfeba44cb5b2df8dfE"(ptr noalias nocapture noundef readonly align 4 dereferenceable(4) %self, ptr noalias nocapture noundef nonnull readonly align 1 %s.0, i64 noundef %s.1) unnamed_addr #3 {
start:
  %_3 = load i32, ptr %self, align 4, !noundef !18
  %_54.not.i = icmp eq i64 %s.1, 0
  br i1 %_54.not.i, label %_ZN10libc_print14__libc_println17h791ee7eec4b2afbfE.exit, label %bb11.i

bb11.i:                                           ; preds = %bb11.i, %start
  %written.05.i = phi i64 [ %1, %bb11.i ], [ 0, %start ]
  %new_len.i = sub nuw i64 %s.1, %written.05.i
  %data.i = getelementptr inbounds i8, ptr %s.0, i64 %written.05.i
  %0 = tail call noundef i64 @write(i32 noundef %_3, ptr noundef nonnull %data.i, i64 noundef %new_len.i) #31
  %or.cond.not7.i = icmp sgt i64 %0, 0
  %1 = add i64 %0, %written.05.i
  %_5.i = icmp ult i64 %1, %s.1
  %or.cond6.i = and i1 %or.cond.not7.i, %_5.i
  br i1 %or.cond6.i, label %bb11.i, label %_ZN10libc_print14__libc_println17h791ee7eec4b2afbfE.exit

_ZN10libc_print14__libc_println17h791ee7eec4b2afbfE.exit: ; preds = %bb11.i, %start
  ret i1 false
}

; Function Attrs: noinline nounwind
define dso_local void @_bril_print_int(i64 noundef %0) unnamed_addr #4 {
start:
  %_9 = alloca [1 x { ptr, ptr }], align 8
  %args = alloca %"core::fmt::Arguments<'_>", align 8
  %stm = alloca i32, align 4
  %i = alloca i64, align 8
  store i64 %0, ptr %i, align 8
  call void @llvm.lifetime.start.p0(i64 4, ptr nonnull %stm)
  store i32 1, ptr %stm, align 4
  call void @llvm.lifetime.start.p0(i64 48, ptr nonnull %args)
  call void @llvm.lifetime.start.p0(i64 16, ptr nonnull %_9)
  store ptr %i, ptr %_9, align 8
  %1 = getelementptr inbounds { ptr, ptr }, ptr %_9, i64 0, i32 1
  store ptr @"_ZN4core3fmt3num3imp52_$LT$impl$u20$core..fmt..Display$u20$for$u20$i64$GT$3fmt17h711c4a25006ea97aE", ptr %1, align 8
  store ptr @alloc_ffa3cdb3ae88e54a1cc225f31dd07672, ptr %args, align 8, !alias.scope !19, !noalias !22
  %2 = getelementptr inbounds { ptr, i64 }, ptr %args, i64 0, i32 1
  store i64 1, ptr %2, align 8, !alias.scope !19, !noalias !22
  %3 = getelementptr inbounds %"core::fmt::Arguments<'_>", ptr %args, i64 0, i32 2
  store ptr null, ptr %3, align 8, !alias.scope !19, !noalias !22
  %4 = getelementptr inbounds %"core::fmt::Arguments<'_>", ptr %args, i64 0, i32 1
  store ptr %_9, ptr %4, align 8, !alias.scope !19, !noalias !22
  %5 = getelementptr inbounds %"core::fmt::Arguments<'_>", ptr %args, i64 0, i32 1, i32 1
  store i64 1, ptr %5, align 8, !alias.scope !19, !noalias !22
  %_3 = call fastcc noundef zeroext i1 @_ZN4core3fmt5write17he9fa43146d420946E(ptr noundef nonnull align 1 %stm, ptr noalias noundef nonnull readonly align 8 dereferenceable(24) @vtable.4, ptr noalias nocapture noundef nonnull readonly align 8 dereferenceable(48) %args) #31
  call void @llvm.lifetime.end.p0(i64 48, ptr nonnull %args)
  call void @llvm.lifetime.end.p0(i64 16, ptr nonnull %_9)
  call void @llvm.lifetime.end.p0(i64 4, ptr nonnull %stm)
  ret void
}

; Function Attrs: noinline nounwind
define dso_local void @_bril_print_bool(i1 noundef zeroext %b) unnamed_addr #4 {
start:
  %args2 = alloca %"core::fmt::Arguments<'_>", align 8
  %stm1 = alloca i32, align 4
  %args = alloca %"core::fmt::Arguments<'_>", align 8
  %stm = alloca i32, align 4
  br i1 %b, label %bb1, label %bb2

bb2:                                              ; preds = %start
  call void @llvm.lifetime.start.p0(i64 4, ptr nonnull %stm1)
  store i32 1, ptr %stm1, align 4
  call void @llvm.lifetime.start.p0(i64 48, ptr nonnull %args2)
  store ptr @alloc_9f540273f3b79d2c726146bbd3f5074c, ptr %args2, align 8
  %0 = getelementptr inbounds { ptr, i64 }, ptr %args2, i64 0, i32 1
  store i64 1, ptr %0, align 8
  %1 = getelementptr inbounds %"core::fmt::Arguments<'_>", ptr %args2, i64 0, i32 2
  store ptr null, ptr %1, align 8
  %2 = getelementptr inbounds %"core::fmt::Arguments<'_>", ptr %args2, i64 0, i32 1
  store ptr @anon.81eb2ca617e7b492be846be889fa0cc1.2, ptr %2, align 8
  %3 = getelementptr inbounds %"core::fmt::Arguments<'_>", ptr %args2, i64 0, i32 1, i32 1
  store i64 0, ptr %3, align 8
  %_8 = call fastcc noundef zeroext i1 @_ZN4core3fmt5write17he9fa43146d420946E(ptr noundef nonnull align 1 %stm1, ptr noalias noundef nonnull readonly align 8 dereferenceable(24) @vtable.4, ptr noalias nocapture noundef nonnull readonly align 8 dereferenceable(48) %args2) #31
  call void @llvm.lifetime.end.p0(i64 48, ptr nonnull %args2)
  call void @llvm.lifetime.end.p0(i64 4, ptr nonnull %stm1)
  br label %bb3

bb1:                                              ; preds = %start
  call void @llvm.lifetime.start.p0(i64 4, ptr nonnull %stm)
  store i32 1, ptr %stm, align 4
  call void @llvm.lifetime.start.p0(i64 48, ptr nonnull %args)
  store ptr @alloc_de4c6128c1b30660c61eab3610f3a239, ptr %args, align 8
  %4 = getelementptr inbounds { ptr, i64 }, ptr %args, i64 0, i32 1
  store i64 1, ptr %4, align 8
  %5 = getelementptr inbounds %"core::fmt::Arguments<'_>", ptr %args, i64 0, i32 2
  store ptr null, ptr %5, align 8
  %6 = getelementptr inbounds %"core::fmt::Arguments<'_>", ptr %args, i64 0, i32 1
  store ptr @anon.81eb2ca617e7b492be846be889fa0cc1.2, ptr %6, align 8
  %7 = getelementptr inbounds %"core::fmt::Arguments<'_>", ptr %args, i64 0, i32 1, i32 1
  store i64 0, ptr %7, align 8
  %_3 = call fastcc noundef zeroext i1 @_ZN4core3fmt5write17he9fa43146d420946E(ptr noundef nonnull align 1 %stm, ptr noalias noundef nonnull readonly align 8 dereferenceable(24) @vtable.4, ptr noalias nocapture noundef nonnull readonly align 8 dereferenceable(48) %args) #31
  call void @llvm.lifetime.end.p0(i64 48, ptr nonnull %args)
  call void @llvm.lifetime.end.p0(i64 4, ptr nonnull %stm)
  br label %bb3

bb3:                                              ; preds = %bb1, %bb2
  ret void
}

; Function Attrs: noinline nounwind
define dso_local void @_bril_print_float(double noundef %0) unnamed_addr #4 {
start:
  %_34 = alloca [1 x %"core::fmt::rt::Placeholder"], align 16
  %_29 = alloca [1 x { ptr, ptr }], align 8
  %args6 = alloca %"core::fmt::Arguments<'_>", align 8
  %stm5 = alloca i32, align 4
  %args4 = alloca %"core::fmt::Arguments<'_>", align 8
  %stm3 = alloca i32, align 4
  %args2 = alloca %"core::fmt::Arguments<'_>", align 8
  %stm1 = alloca i32, align 4
  %args = alloca %"core::fmt::Arguments<'_>", align 8
  %stm = alloca i32, align 4
  %f = alloca double, align 8
  store double %0, ptr %f, align 8
  %_2 = tail call i1 @llvm.is.fpclass.f64(double %0, i32 516)
  br i1 %_2, label %bb1, label %bb4

bb4:                                              ; preds = %start
  %_15 = fcmp uno double %0, 0.000000e+00
  br i1 %_15, label %bb5, label %bb6

bb1:                                              ; preds = %start
  %_45 = bitcast double %0 to i64
  %1 = icmp sgt i64 %_45, -1
  br i1 %1, label %bb3, label %bb2

bb6:                                              ; preds = %bb4
  call void @llvm.lifetime.start.p0(i64 4, ptr nonnull %stm5)
  store i32 1, ptr %stm5, align 4
  call void @llvm.lifetime.start.p0(i64 48, ptr nonnull %args6)
  call void @llvm.lifetime.start.p0(i64 16, ptr nonnull %_29)
  store ptr %f, ptr %_29, align 8
  %2 = getelementptr inbounds { ptr, ptr }, ptr %_29, i64 0, i32 1
  store ptr @"_ZN4core3fmt5float52_$LT$impl$u20$core..fmt..Display$u20$for$u20$f64$GT$3fmt17h165821304c467d82E", ptr %2, align 8
  call void @llvm.lifetime.start.p0(i64 56, ptr nonnull %_34)
  store <2 x i64> <i64 0, i64 17>, ptr %_34, align 16
  %_35.sroa.5.0..sroa_idx = getelementptr inbounds i8, ptr %_34, i64 16
  store i64 2, ptr %_35.sroa.5.0..sroa_idx, align 16
  %_35.sroa.7.0..sroa_idx = getelementptr inbounds i8, ptr %_34, i64 32
  store i64 0, ptr %_35.sroa.7.0..sroa_idx, align 16
  %_35.sroa.8.0..sroa_idx = getelementptr inbounds i8, ptr %_34, i64 40
  store <2 x i32> <i32 32, i32 0>, ptr %_35.sroa.8.0..sroa_idx, align 8
  %_35.sroa.10.0..sroa_idx = getelementptr inbounds i8, ptr %_34, i64 48
  store i8 3, ptr %_35.sroa.10.0..sroa_idx, align 16
  store ptr @alloc_ffa3cdb3ae88e54a1cc225f31dd07672, ptr %args6, align 8
  %3 = getelementptr inbounds { ptr, i64 }, ptr %args6, i64 0, i32 1
  store i64 1, ptr %3, align 8
  %4 = getelementptr inbounds %"core::fmt::Arguments<'_>", ptr %args6, i64 0, i32 2
  store ptr %_34, ptr %4, align 8
  %5 = getelementptr inbounds %"core::fmt::Arguments<'_>", ptr %args6, i64 0, i32 2, i32 1
  store i64 1, ptr %5, align 8
  %6 = getelementptr inbounds %"core::fmt::Arguments<'_>", ptr %args6, i64 0, i32 1
  store ptr %_29, ptr %6, align 8
  %7 = getelementptr inbounds %"core::fmt::Arguments<'_>", ptr %args6, i64 0, i32 1, i32 1
  store i64 1, ptr %7, align 8
  %_23 = call fastcc noundef zeroext i1 @_ZN4core3fmt5write17he9fa43146d420946E(ptr noundef nonnull align 1 %stm5, ptr noalias noundef nonnull readonly align 8 dereferenceable(24) @vtable.4, ptr noalias nocapture noundef nonnull readonly align 8 dereferenceable(48) %args6) #31
  call void @llvm.lifetime.end.p0(i64 48, ptr nonnull %args6)
  call void @llvm.lifetime.end.p0(i64 56, ptr nonnull %_34)
  call void @llvm.lifetime.end.p0(i64 16, ptr nonnull %_29)
  call void @llvm.lifetime.end.p0(i64 4, ptr nonnull %stm5)
  br label %bb8

bb5:                                              ; preds = %bb4
  call void @llvm.lifetime.start.p0(i64 4, ptr nonnull %stm3)
  store i32 1, ptr %stm3, align 4
  call void @llvm.lifetime.start.p0(i64 48, ptr nonnull %args4)
  store ptr @alloc_bc552b7721126a64210d35ff65b32ae7, ptr %args4, align 8
  %8 = getelementptr inbounds { ptr, i64 }, ptr %args4, i64 0, i32 1
  store i64 1, ptr %8, align 8
  %9 = getelementptr inbounds %"core::fmt::Arguments<'_>", ptr %args4, i64 0, i32 2
  store ptr null, ptr %9, align 8
  %10 = getelementptr inbounds %"core::fmt::Arguments<'_>", ptr %args4, i64 0, i32 1
  store ptr @anon.81eb2ca617e7b492be846be889fa0cc1.2, ptr %10, align 8
  %11 = getelementptr inbounds %"core::fmt::Arguments<'_>", ptr %args4, i64 0, i32 1, i32 1
  store i64 0, ptr %11, align 8
  %_18 = call fastcc noundef zeroext i1 @_ZN4core3fmt5write17he9fa43146d420946E(ptr noundef nonnull align 1 %stm3, ptr noalias noundef nonnull readonly align 8 dereferenceable(24) @vtable.4, ptr noalias nocapture noundef nonnull readonly align 8 dereferenceable(48) %args4) #31
  call void @llvm.lifetime.end.p0(i64 48, ptr nonnull %args4)
  call void @llvm.lifetime.end.p0(i64 4, ptr nonnull %stm3)
  br label %bb8

bb8:                                              ; preds = %bb2, %bb3, %bb5, %bb6
  ret void

bb3:                                              ; preds = %bb1
  call void @llvm.lifetime.start.p0(i64 4, ptr nonnull %stm1)
  store i32 1, ptr %stm1, align 4
  call void @llvm.lifetime.start.p0(i64 48, ptr nonnull %args2)
  store ptr @alloc_2076b882c852b27af7ff3b97a9b401a1, ptr %args2, align 8
  %12 = getelementptr inbounds { ptr, i64 }, ptr %args2, i64 0, i32 1
  store i64 1, ptr %12, align 8
  %13 = getelementptr inbounds %"core::fmt::Arguments<'_>", ptr %args2, i64 0, i32 2
  store ptr null, ptr %13, align 8
  %14 = getelementptr inbounds %"core::fmt::Arguments<'_>", ptr %args2, i64 0, i32 1
  store ptr @anon.81eb2ca617e7b492be846be889fa0cc1.2, ptr %14, align 8
  %15 = getelementptr inbounds %"core::fmt::Arguments<'_>", ptr %args2, i64 0, i32 1, i32 1
  store i64 0, ptr %15, align 8
  %_11 = call fastcc noundef zeroext i1 @_ZN4core3fmt5write17he9fa43146d420946E(ptr noundef nonnull align 1 %stm1, ptr noalias noundef nonnull readonly align 8 dereferenceable(24) @vtable.4, ptr noalias nocapture noundef nonnull readonly align 8 dereferenceable(48) %args2) #31
  call void @llvm.lifetime.end.p0(i64 48, ptr nonnull %args2)
  call void @llvm.lifetime.end.p0(i64 4, ptr nonnull %stm1)
  br label %bb8

bb2:                                              ; preds = %bb1
  call void @llvm.lifetime.start.p0(i64 4, ptr nonnull %stm)
  store i32 1, ptr %stm, align 4
  call void @llvm.lifetime.start.p0(i64 48, ptr nonnull %args)
  store ptr @alloc_aafdf1a4a27a106112db52cc3b95de65, ptr %args, align 8
  %16 = getelementptr inbounds { ptr, i64 }, ptr %args, i64 0, i32 1
  store i64 1, ptr %16, align 8
  %17 = getelementptr inbounds %"core::fmt::Arguments<'_>", ptr %args, i64 0, i32 2
  store ptr null, ptr %17, align 8
  %18 = getelementptr inbounds %"core::fmt::Arguments<'_>", ptr %args, i64 0, i32 1
  store ptr @anon.81eb2ca617e7b492be846be889fa0cc1.2, ptr %18, align 8
  %19 = getelementptr inbounds %"core::fmt::Arguments<'_>", ptr %args, i64 0, i32 1, i32 1
  store i64 0, ptr %19, align 8
  %_6 = call fastcc noundef zeroext i1 @_ZN4core3fmt5write17he9fa43146d420946E(ptr noundef nonnull align 1 %stm, ptr noalias noundef nonnull readonly align 8 dereferenceable(24) @vtable.4, ptr noalias nocapture noundef nonnull readonly align 8 dereferenceable(48) %args) #31
  call void @llvm.lifetime.end.p0(i64 48, ptr nonnull %args)
  call void @llvm.lifetime.end.p0(i64 4, ptr nonnull %stm)
  br label %bb8
}

; Function Attrs: noinline nounwind
define dso_local void @_bril_print_sep() unnamed_addr #4 {
start:
  %args = alloca %"core::fmt::Arguments<'_>", align 8
  %stm = alloca i32, align 4
  call void @llvm.lifetime.start.p0(i64 4, ptr nonnull %stm)
  store i32 1, ptr %stm, align 4
  call void @llvm.lifetime.start.p0(i64 48, ptr nonnull %args)
  store ptr @alloc_75c62af2e3495065b198d9bcb040c803, ptr %args, align 8
  %0 = getelementptr inbounds { ptr, i64 }, ptr %args, i64 0, i32 1
  store i64 1, ptr %0, align 8
  %1 = getelementptr inbounds %"core::fmt::Arguments<'_>", ptr %args, i64 0, i32 2
  store ptr null, ptr %1, align 8
  %2 = getelementptr inbounds %"core::fmt::Arguments<'_>", ptr %args, i64 0, i32 1
  store ptr @anon.81eb2ca617e7b492be846be889fa0cc1.2, ptr %2, align 8
  %3 = getelementptr inbounds %"core::fmt::Arguments<'_>", ptr %args, i64 0, i32 1, i32 1
  store i64 0, ptr %3, align 8
  %_2 = call fastcc noundef zeroext i1 @_ZN4core3fmt5write17he9fa43146d420946E(ptr noundef nonnull align 1 %stm, ptr noalias noundef nonnull readonly align 8 dereferenceable(24) @vtable.4, ptr noalias nocapture noundef nonnull readonly align 8 dereferenceable(48) %args) #31
  call void @llvm.lifetime.end.p0(i64 48, ptr nonnull %args)
  call void @llvm.lifetime.end.p0(i64 4, ptr nonnull %stm)
  ret void
}

; Function Attrs: noinline nounwind
define dso_local void @_bril_print_end() unnamed_addr #4 {
_ZN10libc_print14__libc_println17h791ee7eec4b2afbfE.exit:
  %args = alloca %"core::fmt::Arguments<'_>", align 8
  %stm = alloca i32, align 4
  call void @llvm.lifetime.start.p0(i64 4, ptr nonnull %stm)
  store i32 1, ptr %stm, align 4
  call void @llvm.lifetime.start.p0(i64 48, ptr nonnull %args)
  store ptr @anon.81eb2ca617e7b492be846be889fa0cc1.2, ptr %args, align 8
  %0 = getelementptr inbounds { ptr, i64 }, ptr %args, i64 0, i32 1
  store i64 0, ptr %0, align 8
  %1 = getelementptr inbounds %"core::fmt::Arguments<'_>", ptr %args, i64 0, i32 2
  store ptr null, ptr %1, align 8
  %2 = getelementptr inbounds %"core::fmt::Arguments<'_>", ptr %args, i64 0, i32 1
  store ptr @anon.81eb2ca617e7b492be846be889fa0cc1.2, ptr %2, align 8
  %3 = getelementptr inbounds %"core::fmt::Arguments<'_>", ptr %args, i64 0, i32 1, i32 1
  store i64 0, ptr %3, align 8
  %_2 = call fastcc noundef zeroext i1 @_ZN4core3fmt5write17he9fa43146d420946E(ptr noundef nonnull align 1 %stm, ptr noalias noundef nonnull readonly align 8 dereferenceable(24) @vtable.4, ptr noalias nocapture noundef nonnull readonly align 8 dereferenceable(48) %args) #31
  call void @llvm.lifetime.end.p0(i64 48, ptr nonnull %args)
  %_13 = load i32, ptr %stm, align 4, !noundef !18
  %4 = call noundef i64 @write(i32 noundef %_13, ptr noundef nonnull @alloc_49a1e817e911805af64bbc7efb390101, i64 noundef 1) #31
  call void @llvm.lifetime.end.p0(i64 4, ptr nonnull %stm)
  ret void
}

; Function Attrs: nofree noinline nounwind memory(read, argmem: readwrite, inaccessiblemem: readwrite)
define dso_local noundef i64 @_bril_parse_int(ptr noundef nonnull %arg) unnamed_addr #5 personality ptr @rust_eh_personality {
start:
  %e.i2 = alloca i8, align 1
  %e.i = alloca %"core::str::error::Utf8Error", align 8
  %_3 = alloca %"core::result::Result<&str, core::str::error::Utf8Error>", align 8
  %len = tail call noundef i64 @strlen(ptr noundef nonnull dereferenceable(1) %arg) #31
  %len1 = add i64 %len, 1
  call void @llvm.lifetime.start.p0(i64 24, ptr nonnull %_3)
  call fastcc void @_ZN4core3ffi5c_str4CStr6to_str17h9b0c460b7d7bc8d5E(ptr noalias nocapture noundef nonnull align 8 dereferenceable(24) %_3, ptr noalias noundef nonnull readonly align 1 %arg, i64 noundef %len1) #31
  tail call void @llvm.experimental.noalias.scope.decl(metadata !25)
  %_2.i = load i64, ptr %_3, align 8, !range !28, !alias.scope !25, !noalias !29, !noundef !18
  %trunc.not.i = icmp eq i64 %_2.i, 0
  br i1 %trunc.not.i, label %"_ZN4core6result19Result$LT$T$C$E$GT$6unwrap17h702546d6c8f3742eE.exit", label %bb1.i

bb1.i:                                            ; preds = %start
  call void @llvm.lifetime.start.p0(i64 16, ptr nonnull %e.i), !noalias !31
  call fastcc void @_ZN4core6result13unwrap_failed17h16d42dbc22454d03E(ptr noundef nonnull align 1 %e.i, ptr noalias noundef nonnull readonly align 8 dereferenceable(24) @vtable.1) #32
  unreachable

"_ZN4core6result19Result$LT$T$C$E$GT$6unwrap17h702546d6c8f3742eE.exit": ; preds = %start
  %0 = getelementptr inbounds %"core::result::Result<&str, core::str::error::Utf8Error>::Ok", ptr %_3, i64 0, i32 1
  %t.0.i = load ptr, ptr %0, align 8, !alias.scope !25, !noalias !29, !nonnull !18, !align !32, !noundef !18
  %1 = getelementptr inbounds %"core::result::Result<&str, core::str::error::Utf8Error>::Ok", ptr %_3, i64 0, i32 1, i32 1
  %t.1.i = load i64, ptr %1, align 8, !alias.scope !25, !noalias !29, !noundef !18
  call void @llvm.lifetime.end.p0(i64 24, ptr nonnull %_3)
  %2 = icmp eq i64 %t.1.i, 0, !dbg !33
  br i1 %2, label %bb1.i4, label %3, !dbg !33

3:                                                ; preds = %"_ZN4core6result19Result$LT$T$C$E$GT$6unwrap17h702546d6c8f3742eE.exit"
  %4 = load i8, ptr %t.0.i, align 1, !dbg !43, !alias.scope !46, !noalias !51, !noundef !18
  switch i8 %4, label %10 [
    i8 43, label %5
    i8 45, label %19
  ], !dbg !43

5:                                                ; preds = %3
  %6 = add i64 %t.1.i, -1, !dbg !54
  %7 = icmp eq i64 %6, 0, !dbg !77
  br i1 %7, label %bb1.i4, label %8, !dbg !77

8:                                                ; preds = %5
  %9 = getelementptr inbounds i8, ptr %t.0.i, i64 1, !dbg !78
  br label %10, !dbg !100

10:                                               ; preds = %8, %3
  %11 = phi ptr [ %9, %8 ], [ %t.0.i, %3 ], !dbg !101
  %12 = phi i64 [ %6, %8 ], [ %t.1.i, %3 ], !dbg !101
  %13 = icmp ult i64 %12, 16, !dbg !102
  %14 = getelementptr inbounds i8, ptr %11, i64 %12, !dbg !108
  br i1 %13, label %.preheader, label %.preheader28, !dbg !129

15:                                               ; preds = %19
  %16 = getelementptr inbounds i8, ptr %t.0.i, i64 1, !dbg !130
  %17 = icmp ult i64 %t.1.i, 17, !dbg !102
  %18 = getelementptr inbounds i8, ptr %t.0.i, i64 %t.1.i, !dbg !108
  br i1 %17, label %.preheader31, label %.preheader34, !dbg !129

19:                                               ; preds = %3
  %20 = icmp eq i64 %t.1.i, 1, !dbg !77
  br i1 %20, label %bb1.i4, label %15, !dbg !77

.preheader34:                                     ; preds = %34, %15
  %21 = phi i64 [ %38, %34 ], [ 0, %15 ], !dbg !147
  %22 = phi ptr [ %25, %34 ], [ %16, %15 ], !dbg !148
  %23 = icmp eq ptr %22, %18, !dbg !149
  br i1 %23, label %"_ZN4core6result19Result$LT$T$C$E$GT$6unwrap17h7fcf0b91d5ed69edE.exit", label %24, !dbg !164

24:                                               ; preds = %.preheader34
  %25 = getelementptr inbounds i8, ptr %22, i64 1, !dbg !165
  %26 = load i8, ptr %22, align 1, !dbg !182, !alias.scope !46, !noalias !51, !noundef !18
  %27 = tail call { i64, i1 } @llvm.smul.with.overflow.i64(i64 %21, i64 10), !dbg !183
  %28 = extractvalue { i64, i1 } %27, 0, !dbg !183
  %29 = zext i8 %26 to i32, !dbg !197
  %30 = add nsw i32 %29, -48, !dbg !199
  %31 = icmp ult i32 %30, 10, !dbg !212
  br i1 %31, label %32, label %bb1.i4, !dbg !197

32:                                               ; preds = %24
  %33 = extractvalue { i64, i1 } %27, 1, !dbg !183
  br i1 %33, label %bb1.i4, label %34, !dbg !214

34:                                               ; preds = %32
  %35 = zext i32 %30 to i64, !dbg !216
  %36 = tail call { i64, i1 } @llvm.ssub.with.overflow.i64(i64 %28, i64 %35), !dbg !219
  %37 = extractvalue { i64, i1 } %36, 1, !dbg !219
  %38 = extractvalue { i64, i1 } %36, 0, !dbg !219
  br i1 %37, label %bb1.i4, label %.preheader34, !dbg !214

.preheader28:                                     ; preds = %52, %10
  %39 = phi i64 [ %56, %52 ], [ 0, %10 ], !dbg !147
  %40 = phi ptr [ %43, %52 ], [ %11, %10 ], !dbg !227
  %41 = icmp eq ptr %40, %14, !dbg !228
  br i1 %41, label %"_ZN4core6result19Result$LT$T$C$E$GT$6unwrap17h7fcf0b91d5ed69edE.exit", label %42, !dbg !232

42:                                               ; preds = %.preheader28
  %43 = getelementptr inbounds i8, ptr %40, i64 1, !dbg !233
  %44 = load i8, ptr %40, align 1, !dbg !237, !alias.scope !46, !noalias !51, !noundef !18
  %45 = tail call { i64, i1 } @llvm.smul.with.overflow.i64(i64 %39, i64 10), !dbg !238
  %46 = extractvalue { i64, i1 } %45, 0, !dbg !238
  %47 = zext i8 %44 to i32, !dbg !243
  %48 = add nsw i32 %47, -48, !dbg !245
  %49 = icmp ult i32 %48, 10, !dbg !248
  br i1 %49, label %50, label %bb1.i4, !dbg !243

50:                                               ; preds = %42
  %51 = extractvalue { i64, i1 } %45, 1, !dbg !238
  br i1 %51, label %bb1.i4, label %52, !dbg !249

52:                                               ; preds = %50
  %53 = zext i32 %48 to i64, !dbg !251
  %54 = tail call { i64, i1 } @llvm.sadd.with.overflow.i64(i64 %46, i64 %53), !dbg !254
  %55 = extractvalue { i64, i1 } %54, 1, !dbg !254
  %56 = extractvalue { i64, i1 } %54, 0, !dbg !254
  br i1 %55, label %bb1.i4, label %.preheader28, !dbg !249

.preheader31:                                     ; preds = %63, %15
  %57 = phi i64 [ %67, %63 ], [ 0, %15 ]
  %58 = phi ptr [ %65, %63 ], [ %16, %15 ]
  %59 = load i8, ptr %58, align 1, !dbg !262, !alias.scope !46, !noalias !51, !noundef !18
  %60 = zext i8 %59 to i32, !dbg !264
  %61 = add nsw i32 %60, -48, !dbg !266
  %62 = icmp ult i32 %61, 10, !dbg !269
  br i1 %62, label %63, label %bb1.i4, !dbg !264

63:                                               ; preds = %.preheader31
  %64 = mul i64 %57, 10, !dbg !270
  %65 = getelementptr inbounds i8, ptr %58, i64 1, !dbg !277
  %66 = zext i32 %61 to i64, !dbg !282
  %67 = sub i64 %64, %66, !dbg !286
  %68 = icmp eq ptr %65, %18, !dbg !290
  br i1 %68, label %"_ZN4core6result19Result$LT$T$C$E$GT$6unwrap17h7fcf0b91d5ed69edE.exit", label %.preheader31, !dbg !292

.preheader:                                       ; preds = %75, %10
  %69 = phi i64 [ %79, %75 ], [ 0, %10 ]
  %70 = phi ptr [ %77, %75 ], [ %11, %10 ]
  %71 = load i8, ptr %70, align 1, !dbg !293, !alias.scope !46, !noalias !51, !noundef !18
  %72 = zext i8 %71 to i32, !dbg !295
  %73 = add nsw i32 %72, -48, !dbg !297
  %74 = icmp ult i32 %73, 10, !dbg !300
  br i1 %74, label %75, label %bb1.i4, !dbg !295

75:                                               ; preds = %.preheader
  %76 = mul i64 %69, 10, !dbg !301
  %77 = getelementptr inbounds i8, ptr %70, i64 1, !dbg !303
  %78 = zext i32 %73 to i64, !dbg !308
  %79 = add i64 %76, %78, !dbg !311
  %80 = icmp eq ptr %77, %14, !dbg !315
  br i1 %80, label %"_ZN4core6result19Result$LT$T$C$E$GT$6unwrap17h7fcf0b91d5ed69edE.exit", label %.preheader, !dbg !317

bb1.i4:                                           ; preds = %.preheader, %.preheader31, %52, %50, %42, %34, %32, %24, %19, %5, %"_ZN4core6result19Result$LT$T$C$E$GT$6unwrap17h702546d6c8f3742eE.exit"
  call void @llvm.lifetime.start.p0(i64 1, ptr nonnull %e.i2), !noalias !318
  call fastcc void @_ZN4core6result13unwrap_failed17h16d42dbc22454d03E(ptr noundef nonnull align 1 %e.i2, ptr noalias noundef nonnull readonly align 8 dereferenceable(24) @vtable.2) #32
  unreachable

"_ZN4core6result19Result$LT$T$C$E$GT$6unwrap17h7fcf0b91d5ed69edE.exit": ; preds = %75, %63, %.preheader28, %.preheader34
  %81 = phi i64 [ %79, %75 ], [ %39, %.preheader28 ], [ %67, %63 ], [ %21, %.preheader34 ], !dbg !321
  ret i64 %81
}

; Function Attrs: nofree noinline nounwind memory(read, argmem: readwrite, inaccessiblemem: readwrite)
define dso_local noundef zeroext i1 @_bril_parse_bool(ptr noundef nonnull %arg) unnamed_addr #5 personality ptr @rust_eh_personality {
start:
  %e.i2 = alloca %"core::str::error::ParseBoolError", align 1
  %e.i = alloca %"core::str::error::Utf8Error", align 8
  %_3 = alloca %"core::result::Result<&str, core::str::error::Utf8Error>", align 8
  %len = tail call noundef i64 @strlen(ptr noundef nonnull dereferenceable(1) %arg) #31
  %len1 = add i64 %len, 1
  call void @llvm.lifetime.start.p0(i64 24, ptr nonnull %_3)
  call fastcc void @_ZN4core3ffi5c_str4CStr6to_str17h9b0c460b7d7bc8d5E(ptr noalias nocapture noundef nonnull align 8 dereferenceable(24) %_3, ptr noalias noundef nonnull readonly align 1 %arg, i64 noundef %len1) #31
  tail call void @llvm.experimental.noalias.scope.decl(metadata !322)
  %_2.i = load i64, ptr %_3, align 8, !range !28, !alias.scope !322, !noalias !325, !noundef !18
  %trunc.not.i = icmp eq i64 %_2.i, 0
  br i1 %trunc.not.i, label %"_ZN4core6result19Result$LT$T$C$E$GT$6unwrap17h702546d6c8f3742eE.exit", label %bb1.i

bb1.i:                                            ; preds = %start
  call void @llvm.lifetime.start.p0(i64 16, ptr nonnull %e.i), !noalias !327
  call fastcc void @_ZN4core6result13unwrap_failed17h16d42dbc22454d03E(ptr noundef nonnull align 1 %e.i, ptr noalias noundef nonnull readonly align 8 dereferenceable(24) @vtable.1) #32
  unreachable

"_ZN4core6result19Result$LT$T$C$E$GT$6unwrap17h702546d6c8f3742eE.exit": ; preds = %start
  %0 = getelementptr inbounds %"core::result::Result<&str, core::str::error::Utf8Error>::Ok", ptr %_3, i64 0, i32 1
  %t.0.i = load ptr, ptr %0, align 8, !alias.scope !322, !noalias !325, !nonnull !18, !align !32, !noundef !18
  %1 = getelementptr inbounds %"core::result::Result<&str, core::str::error::Utf8Error>::Ok", ptr %_3, i64 0, i32 1, i32 1
  %t.1.i = load i64, ptr %1, align 8, !alias.scope !322, !noalias !325, !noundef !18
  call void @llvm.lifetime.end.p0(i64 24, ptr nonnull %_3)
  switch i64 %t.1.i, label %bb1.i3 [
    i64 4, label %"_ZN73_$LT$$u5b$A$u5d$$u20$as$u20$core..slice..cmp..SlicePartialEq$LT$B$GT$$GT$5equal17hd6b463a316a9e263E.exit.i"
    i64 5, label %"_ZN73_$LT$$u5b$A$u5d$$u20$as$u20$core..slice..cmp..SlicePartialEq$LT$B$GT$$GT$5equal17hd6b463a316a9e263E.exit4.i"
  ]

"_ZN73_$LT$$u5b$A$u5d$$u20$as$u20$core..slice..cmp..SlicePartialEq$LT$B$GT$$GT$5equal17hd6b463a316a9e263E.exit.i": ; preds = %"_ZN4core6result19Result$LT$T$C$E$GT$6unwrap17h702546d6c8f3742eE.exit"
  %2 = tail call i32 @memcmp(ptr noundef nonnull dereferenceable(4) %t.0.i, ptr noundef nonnull dereferenceable(4) @alloc_da967f6e9acf91e913e9d8172d81c5c3, i64 4), !alias.scope !328
  %3 = icmp eq i32 %2, 0
  br i1 %3, label %"_ZN4core6result19Result$LT$T$C$E$GT$6unwrap17h69f29a6b4730249fE.exit", label %bb1.i3

"_ZN73_$LT$$u5b$A$u5d$$u20$as$u20$core..slice..cmp..SlicePartialEq$LT$B$GT$$GT$5equal17hd6b463a316a9e263E.exit4.i": ; preds = %"_ZN4core6result19Result$LT$T$C$E$GT$6unwrap17h702546d6c8f3742eE.exit"
  %4 = tail call i32 @memcmp(ptr noundef nonnull dereferenceable(5) %t.0.i, ptr noundef nonnull dereferenceable(5) @alloc_b81e52ca1a07489f49a3e5fe131c4b29, i64 5), !alias.scope !332
  %.fr.i = freeze i32 %4
  %5 = icmp eq i32 %.fr.i, 0
  br i1 %5, label %"_ZN4core6result19Result$LT$T$C$E$GT$6unwrap17h69f29a6b4730249fE.exit", label %bb1.i3

bb1.i3:                                           ; preds = %"_ZN73_$LT$$u5b$A$u5d$$u20$as$u20$core..slice..cmp..SlicePartialEq$LT$B$GT$$GT$5equal17hd6b463a316a9e263E.exit4.i", %"_ZN73_$LT$$u5b$A$u5d$$u20$as$u20$core..slice..cmp..SlicePartialEq$LT$B$GT$$GT$5equal17hd6b463a316a9e263E.exit.i", %"_ZN4core6result19Result$LT$T$C$E$GT$6unwrap17h702546d6c8f3742eE.exit"
  call void @llvm.lifetime.start.p0(i64 0, ptr nonnull %e.i2)
  call fastcc void @_ZN4core6result13unwrap_failed17h16d42dbc22454d03E(ptr noundef nonnull align 1 %e.i2, ptr noalias noundef nonnull readonly align 8 dereferenceable(24) @vtable.0) #32
  unreachable

"_ZN4core6result19Result$LT$T$C$E$GT$6unwrap17h69f29a6b4730249fE.exit": ; preds = %"_ZN73_$LT$$u5b$A$u5d$$u20$as$u20$core..slice..cmp..SlicePartialEq$LT$B$GT$$GT$5equal17hd6b463a316a9e263E.exit4.i", %"_ZN73_$LT$$u5b$A$u5d$$u20$as$u20$core..slice..cmp..SlicePartialEq$LT$B$GT$$GT$5equal17hd6b463a316a9e263E.exit.i"
  %t.i = phi i1 [ false, %"_ZN73_$LT$$u5b$A$u5d$$u20$as$u20$core..slice..cmp..SlicePartialEq$LT$B$GT$$GT$5equal17hd6b463a316a9e263E.exit4.i" ], [ true, %"_ZN73_$LT$$u5b$A$u5d$$u20$as$u20$core..slice..cmp..SlicePartialEq$LT$B$GT$$GT$5equal17hd6b463a316a9e263E.exit.i" ]
  ret i1 %t.i
}

; Function Attrs: nofree noinline nounwind
define dso_local noundef double @_bril_parse_float(ptr noundef nonnull %arg) unnamed_addr #6 personality ptr @rust_eh_personality {
start:
  %e.i2 = alloca i8, align 1
  %e.i = alloca %"core::str::error::Utf8Error", align 8
  %_5 = alloca %"core::result::Result<f64, core::num::dec2flt::ParseFloatError>", align 8
  %_3 = alloca %"core::result::Result<&str, core::str::error::Utf8Error>", align 8
  %len = tail call noundef i64 @strlen(ptr noundef nonnull dereferenceable(1) %arg) #31
  %len1 = add i64 %len, 1
  call void @llvm.lifetime.start.p0(i64 24, ptr nonnull %_3)
  call fastcc void @_ZN4core3ffi5c_str4CStr6to_str17h9b0c460b7d7bc8d5E(ptr noalias nocapture noundef nonnull align 8 dereferenceable(24) %_3, ptr noalias noundef nonnull readonly align 1 %arg, i64 noundef %len1) #31
  tail call void @llvm.experimental.noalias.scope.decl(metadata !336)
  %_2.i = load i64, ptr %_3, align 8, !range !28, !alias.scope !336, !noalias !339, !noundef !18
  %trunc.not.i = icmp eq i64 %_2.i, 0
  br i1 %trunc.not.i, label %"_ZN4core6result19Result$LT$T$C$E$GT$6unwrap17h702546d6c8f3742eE.exit", label %bb1.i

bb1.i:                                            ; preds = %start
  call void @llvm.lifetime.start.p0(i64 16, ptr nonnull %e.i), !noalias !341
  call fastcc void @_ZN4core6result13unwrap_failed17h16d42dbc22454d03E(ptr noundef nonnull align 1 %e.i, ptr noalias noundef nonnull readonly align 8 dereferenceable(24) @vtable.1) #32
  unreachable

"_ZN4core6result19Result$LT$T$C$E$GT$6unwrap17h702546d6c8f3742eE.exit": ; preds = %start
  %0 = getelementptr inbounds %"core::result::Result<&str, core::str::error::Utf8Error>::Ok", ptr %_3, i64 0, i32 1
  %t.0.i = load ptr, ptr %0, align 8, !alias.scope !336, !noalias !339, !nonnull !18, !align !32, !noundef !18
  %1 = getelementptr inbounds %"core::result::Result<&str, core::str::error::Utf8Error>::Ok", ptr %_3, i64 0, i32 1, i32 1
  %t.1.i = load i64, ptr %1, align 8, !alias.scope !336, !noalias !339, !noundef !18
  call void @llvm.lifetime.end.p0(i64 24, ptr nonnull %_3)
  call void @llvm.lifetime.start.p0(i64 16, ptr nonnull %_5)
  call fastcc void @"_ZN4core3num7dec2flt60_$LT$impl$u20$core..str..traits..FromStr$u20$for$u20$f64$GT$8from_str17h6e816cefcb5fb04dE"(ptr noalias nocapture noundef nonnull align 8 dereferenceable(16) %_5, ptr noalias noundef nonnull readonly align 1 %t.0.i, i64 noundef %t.1.i) #31
  tail call void @llvm.experimental.noalias.scope.decl(metadata !342)
  %2 = load i8, ptr %_5, align 8, !range !345, !alias.scope !342, !noundef !18
  %trunc.not.i3 = icmp eq i8 %2, 0
  br i1 %trunc.not.i3, label %"_ZN4core6result19Result$LT$T$C$E$GT$6unwrap17hf0eb8fc19d15b863E.exit", label %bb1.i4

bb1.i4:                                           ; preds = %"_ZN4core6result19Result$LT$T$C$E$GT$6unwrap17h702546d6c8f3742eE.exit"
  call void @llvm.lifetime.start.p0(i64 1, ptr nonnull %e.i2), !noalias !342
  call fastcc void @_ZN4core6result13unwrap_failed17h16d42dbc22454d03E(ptr noundef nonnull align 1 %e.i2, ptr noalias noundef nonnull readonly align 8 dereferenceable(24) @vtable.3) #32
  unreachable

"_ZN4core6result19Result$LT$T$C$E$GT$6unwrap17hf0eb8fc19d15b863E.exit": ; preds = %"_ZN4core6result19Result$LT$T$C$E$GT$6unwrap17h702546d6c8f3742eE.exit"
  %3 = getelementptr inbounds %"core::result::Result<f64, core::num::dec2flt::ParseFloatError>::Ok", ptr %_5, i64 0, i32 1
  %t.i = load double, ptr %3, align 8, !alias.scope !342, !noundef !18
  call void @llvm.lifetime.end.p0(i64 16, ptr nonnull %_5)
  ret double %t.i
}

; Function Attrs: nofree noinline norecurse noreturn nosync nounwind memory(none)
define internal fastcc void @rust_begin_unwind() unnamed_addr #7 {
start:
  br label %bb1

bb1:                                              ; preds = %bb1, %start
  br label %bb1
}

declare i32 @rust_eh_personality(...) unnamed_addr #8

; Function Attrs: nocallback nofree nounwind willreturn memory(argmem: readwrite)
declare void @llvm.memcpy.p0.p0.i64(ptr noalias nocapture writeonly, ptr noalias nocapture readonly, i64, i1 immarg) #9

; Function Attrs: mustprogress nofree nounwind willreturn memory(argmem: read)
declare i32 @memcmp(ptr nocapture, ptr nocapture, i64) local_unnamed_addr #10

; Function Attrs: mustprogress nofree nounwind willreturn memory(argmem: read)
declare noundef i64 @strlen(ptr nocapture noundef) unnamed_addr #11

; Function Attrs: nocallback nofree nosync nounwind willreturn memory(argmem: readwrite)
declare void @llvm.lifetime.start.p0(i64 immarg, ptr nocapture) #12

; Function Attrs: nocallback nofree nosync nounwind willreturn memory(argmem: readwrite)
declare void @llvm.lifetime.end.p0(i64 immarg, ptr nocapture) #12

; Function Attrs: nocallback nofree nosync nounwind speculatable willreturn memory(none)
declare i1 @llvm.is.fpclass.f64(double, i32 immarg) #13

; Function Attrs: nocallback nofree nosync nounwind willreturn memory(inaccessiblemem: readwrite)
declare void @llvm.experimental.noalias.scope.decl(metadata) #14

; Function Attrs: inlinehint nofree norecurse noreturn nounwind memory(argmem: read, inaccessiblemem: readwrite) uwtable
define internal noundef zeroext i1 @_ZN4core3ops8function6FnOnce9call_once17h327a852a215e42d7E(ptr noalias noundef readonly align 8 dereferenceable(8) %0, ptr noalias nocapture readnone align 8 %1) unnamed_addr #15 personality ptr @rust_eh_personality !dbg !346 {
  %3 = load volatile i64, ptr %0, align 8, !dbg !350, !alias.scope !363
  br label %4, !dbg !366

4:                                                ; preds = %4, %2
  br label %4, !dbg !366
}

; Function Attrs: cold nofree noinline norecurse noreturn nosync nounwind memory(none) uwtable
define internal fastcc void @_ZN4core9panicking9panic_fmt17h10bd3bfe5bb30d67E() unnamed_addr #16 !dbg !368 {
  tail call fastcc void @rust_begin_unwind() #33, !dbg !371
  unreachable, !dbg !371
}

; Function Attrs: nocallback nofree nounwind willreturn memory(argmem: write)
declare void @llvm.memset.p0.i64(ptr nocapture writeonly, i8, i64, i1 immarg) #17

; Function Attrs: nofree nosync nounwind memory(argmem: readwrite, inaccessiblemem: readwrite) uwtable
define internal fastcc void @_ZN4core3num7dec2flt7decimal7Decimal10left_shift17hea3542b07885afffE(ptr noalias nocapture noundef align 8 dereferenceable(784) %0, i64 noundef %1) unnamed_addr #18 personality ptr @rust_eh_personality !dbg !374 {
  %3 = load i64, ptr %0, align 8, !dbg !379, !noundef !18
  %4 = icmp eq i64 %3, 0, !dbg !379
  br i1 %4, label %.loopexit, label %5, !dbg !379

5:                                                ; preds = %2
  tail call void @llvm.experimental.noalias.scope.decl(metadata !380), !dbg !383
  %6 = and i64 %1, 63, !dbg !384
  %7 = getelementptr inbounds [65 x i16], ptr @anon.81eb2ca617e7b492be846be889fa0cc1.34, i64 0, i64 %6, !dbg !387
  %8 = load i16, ptr %7, align 2, !dbg !387, !noalias !380, !noundef !18
  %9 = lshr i16 %8, 11, !dbg !388
  %10 = zext i16 %9 to i64, !dbg !388
  %11 = and i16 %8, 2047, !dbg !391
  %12 = zext i16 %11 to i64, !dbg !391
  %13 = icmp ugt i16 %11, 1308, !dbg !393
  br i1 %13, label %22, label %14, !dbg !393

14:                                               ; preds = %5
  %15 = add nuw nsw i64 %6, 1, !dbg !408
  %16 = getelementptr inbounds [65 x i16], ptr @anon.81eb2ca617e7b492be846be889fa0cc1.34, i64 0, i64 %15, !dbg !409
  %17 = load i16, ptr %16, align 2, !dbg !409, !noalias !380, !noundef !18
  %18 = and i16 %17, 2047, !dbg !410
  %19 = zext i16 %18 to i64, !dbg !410
  %20 = getelementptr inbounds i8, ptr @anon.81eb2ca617e7b492be846be889fa0cc1.35, i64 %12, !dbg !411
  %21 = sub nsw i64 %19, %12, !dbg !427
  br label %23, !dbg !429

22:                                               ; preds = %5
  tail call fastcc void @_ZN4core5slice5index24slice_end_index_len_fail17hfdbe95b016e4b961E(i64 noundef %12, i64 noundef 1308) #33, !dbg !431
  unreachable, !dbg !431

23:                                               ; preds = %40, %14
  %24 = phi i64 [ 0, %14 ], [ %33, %40 ], !dbg !432
  %25 = phi i64 [ %21, %14 ], [ %29, %40 ], !dbg !432
  %26 = phi ptr [ %20, %14 ], [ %32, %40 ], !dbg !432
  %27 = icmp eq i64 %25, 0, !dbg !433
  br i1 %27, label %.loopexit13, label %28, !dbg !433

28:                                               ; preds = %23
  %29 = add nsw i64 %25, -1, !dbg !442
  %30 = icmp eq ptr %26, getelementptr inbounds (<{ [1308 x i8] }>, ptr @anon.81eb2ca617e7b492be846be889fa0cc1.35, i64 1, i32 0, i64 0), !dbg !443
  br i1 %30, label %.loopexit13, label %31, !dbg !451

31:                                               ; preds = %28
  %32 = getelementptr inbounds i8, ptr %26, i64 1, !dbg !452
  %33 = add nuw nsw i64 %24, 1, !dbg !456
  %34 = load i8, ptr %26, align 1, !dbg !459, !noalias !380, !noundef !18
  %35 = icmp eq i64 %24, %3, !dbg !460
  br i1 %35, label %38, label %36, !dbg !460

36:                                               ; preds = %31
  %37 = icmp eq i64 %24, 768, !dbg !462
  br i1 %37, label %44, label %40, !dbg !462, !prof !463

38:                                               ; preds = %31
  %39 = add nsw i64 %10, -1, !dbg !464
  br label %.loopexit13, !dbg !465

40:                                               ; preds = %36
  %41 = getelementptr inbounds { i64, [768 x i8], i32, i8, [3 x i8] }, ptr %0, i64 0, i32 1, i64 %24, !dbg !462
  %42 = load i8, ptr %41, align 1, !dbg !462, !alias.scope !380, !noundef !18
  %43 = icmp eq i8 %42, %34, !dbg !462
  br i1 %43, label %23, label %45, !dbg !462

44:                                               ; preds = %36
  tail call fastcc void @_ZN4core5slice5index24slice_end_index_len_fail17hfdbe95b016e4b961E(i64 noundef 768, i64 noundef 768) #33, !dbg !462
  unreachable, !dbg !462

45:                                               ; preds = %40
  %.lcssa34 = phi i8 [ %42, %40 ], !dbg !462
  %.lcssa33 = phi i8 [ %34, %40 ], !dbg !459
  %46 = icmp ult i8 %.lcssa34, %.lcssa33, !dbg !466
  %47 = sext i1 %46 to i64, !dbg !466
  %48 = add nsw i64 %47, %10, !dbg !466
  br label %.loopexit13, !dbg !466

.loopexit13:                                      ; preds = %45, %38, %28, %23
  %49 = phi i64 [ %39, %38 ], [ %48, %45 ], [ %10, %23 ], [ %10, %28 ], !dbg !467
  %50 = add i64 %49, %3, !dbg !468
  %51 = getelementptr inbounds { i64, [768 x i8], i32, i8, [3 x i8] }, ptr %0, i64 0, i32 3
  br label %54, !dbg !471

.loopexit:                                        ; preds = %74, %.preheader, %.loopexit12, %2
  ret void, !dbg !474

52:                                               ; preds = %105
  %.lcssa30 = phi i64 [ %96, %105 ], !dbg !475
  %.lcssa29 = phi i64 [ %97, %105 ], !dbg !476
  %53 = icmp ult i64 %.lcssa30, 10, !dbg !477
  br i1 %53, label %.loopexit12, label %.preheader11, !dbg !477

54:                                               ; preds = %105, %.loopexit13
  %55 = phi i64 [ %3, %.loopexit13 ], [ %58, %105 ]
  %56 = phi i64 [ %50, %.loopexit13 ], [ %59, %105 ]
  %57 = phi i64 [ 0, %.loopexit13 ], [ %97, %105 ]
  %58 = add i64 %55, -1, !dbg !478
  %59 = add i64 %56, -1, !dbg !479
  %60 = icmp ult i64 %55, 769, !dbg !480
  br i1 %60, label %91, label %101, !dbg !480, !prof !481

.loopexit12:                                      ; preds = %86, %52
  %61 = load i64, ptr %0, align 8, !dbg !482, !noundef !18
  %62 = add i64 %61, %49, !dbg !482
  %63 = tail call i64 @llvm.umin.i64(i64 %62, i64 768), !dbg !483
  store i64 %63, ptr %0, align 8, !dbg !484
  %64 = trunc i64 %49 to i32, !dbg !485
  %65 = getelementptr inbounds { i64, [768 x i8], i32, i8, [3 x i8] }, ptr %0, i64 0, i32 2, !dbg !486
  %66 = load i32, ptr %65, align 8, !dbg !486, !noundef !18
  %67 = add i32 %66, %64, !dbg !486
  store i32 %67, ptr %65, align 8, !dbg !486
  %68 = icmp eq i64 %63, 0, !dbg !487
  br i1 %68, label %.loopexit, label %.preheader, !dbg !487

.preheader:                                       ; preds = %74, %.loopexit12
  %69 = phi i64 [ %70, %74 ], [ %63, %.loopexit12 ]
  %70 = add nsw i64 %69, -1, !dbg !490
  %71 = getelementptr inbounds { i64, [768 x i8], i32, i8, [3 x i8] }, ptr %0, i64 0, i32 1, i64 %70, !dbg !491
  %72 = load i8, ptr %71, align 1, !dbg !491, !alias.scope !492, !noundef !18
  %73 = icmp eq i8 %72, 0, !dbg !491
  br i1 %73, label %74, label %.loopexit, !dbg !491

74:                                               ; preds = %.preheader
  store i64 %70, ptr %0, align 8, !dbg !495, !alias.scope !492
  %75 = icmp eq i64 %70, 0, !dbg !487
  br i1 %75, label %.loopexit, label %.preheader, !dbg !487

.preheader11:                                     ; preds = %86, %52
  %76 = phi i64 [ %78, %86 ], [ %49, %52 ]
  %77 = phi i64 [ %79, %86 ], [ %.lcssa29, %52 ]
  %78 = add i64 %76, -1, !dbg !496
  %79 = udiv i64 %77, 10, !dbg !497
  %80 = mul nsw i64 %79, -10, !dbg !498
  %81 = add nsw i64 %80, %77, !dbg !500
  %82 = icmp ult i64 %78, 768, !dbg !501
  br i1 %82, label %88, label %83, !dbg !501

83:                                               ; preds = %.preheader11
  %84 = icmp eq i64 %81, 0, !dbg !503
  br i1 %84, label %86, label %85, !dbg !503

85:                                               ; preds = %83
  store i8 1, ptr %51, align 4, !dbg !504
  br label %86, !dbg !505

86:                                               ; preds = %88, %85, %83
  %87 = icmp ult i64 %77, 10, !dbg !477
  br i1 %87, label %.loopexit12, label %.preheader11, !dbg !477

88:                                               ; preds = %.preheader11
  %89 = getelementptr inbounds { i64, [768 x i8], i32, i8, [3 x i8] }, ptr %0, i64 0, i32 1, i64 %78, !dbg !506
  %90 = trunc i64 %81 to i8, !dbg !506
  store i8 %90, ptr %89, align 1, !dbg !506
  br label %86, !dbg !507

91:                                               ; preds = %54
  %92 = getelementptr inbounds { i64, [768 x i8], i32, i8, [3 x i8] }, ptr %0, i64 0, i32 1, i64 %58, !dbg !480
  %93 = load i8, ptr %92, align 1, !dbg !480, !noundef !18
  %94 = zext i8 %93 to i64, !dbg !508
  %95 = shl i64 %94, %6, !dbg !508
  %96 = add i64 %95, %57, !dbg !475
  %97 = udiv i64 %96, 10, !dbg !476
  %98 = mul i64 %97, -10, !dbg !509
  %99 = add i64 %98, %96, !dbg !511
  %100 = icmp ult i64 %59, 768, !dbg !512
  br i1 %100, label %107, label %102, !dbg !512

101:                                              ; preds = %54
  %.lcssa = phi i64 [ %58, %54 ], !dbg !478
  tail call fastcc void @_ZN4core5slice5index24slice_end_index_len_fail17hfdbe95b016e4b961E(i64 noundef %.lcssa, i64 noundef 768) #33, !dbg !480
  unreachable, !dbg !480

102:                                              ; preds = %91
  %103 = icmp eq i64 %99, 0, !dbg !514
  br i1 %103, label %105, label %104, !dbg !514

104:                                              ; preds = %102
  store i8 1, ptr %51, align 4, !dbg !515
  br label %105, !dbg !516

105:                                              ; preds = %107, %104, %102
  %106 = icmp eq i64 %58, 0, !dbg !471
  br i1 %106, label %52, label %54, !dbg !471

107:                                              ; preds = %91
  %108 = getelementptr inbounds { i64, [768 x i8], i32, i8, [3 x i8] }, ptr %0, i64 0, i32 1, i64 %59, !dbg !517
  %109 = trunc i64 %99 to i8, !dbg !517
  store i8 %109, ptr %108, align 1, !dbg !517
  br label %105, !dbg !518
}

; Function Attrs: nocallback nofree nosync nounwind speculatable willreturn memory(none)
declare i64 @llvm.umin.i64(i64, i64) #13

; Function Attrs: uwtable
define internal fastcc noundef zeroext i1 @_ZN4core3fmt9Formatter12pad_integral17hf582ed9d1a8c5990E(ptr noalias nocapture noundef align 8 dereferenceable(64) %0, i1 noundef zeroext %1, ptr noalias noundef nonnull readonly align 1 %2, i64 noundef %3, ptr noalias noundef nonnull readonly align 1 %4, i64 noundef %5) unnamed_addr #19 personality ptr @rust_eh_personality !dbg !519 {
  br i1 %1, label %11, label %7, !dbg !522

7:                                                ; preds = %6
  %8 = add i64 %5, 1, !dbg !525
  %9 = getelementptr inbounds { { i64, i64 }, { i64, i64 }, { ptr, ptr }, i32, i32, i8, [7 x i8] }, ptr %0, i64 0, i32 4
  %10 = load i32, ptr %9, align 4, !dbg !526
  br label %19, !dbg !529

11:                                               ; preds = %6
  %12 = getelementptr inbounds { { i64, i64 }, { i64, i64 }, { ptr, ptr }, i32, i32, i8, [7 x i8] }, ptr %0, i64 0, i32 4, !dbg !530
  %13 = load i32, ptr %12, align 4, !dbg !530, !noundef !18
  %14 = and i32 %13, 1, !dbg !530
  %15 = icmp eq i32 %14, 0, !dbg !530
  %16 = select i1 %15, i32 1114112, i32 43, !dbg !533
  %17 = zext i32 %14 to i64, !dbg !533
  %18 = add i64 %17, %5, !dbg !533
  br label %19, !dbg !533

19:                                               ; preds = %11, %7
  %20 = phi i32 [ %10, %7 ], [ %13, %11 ], !dbg !526
  %21 = phi i32 [ 45, %7 ], [ %16, %11 ], !dbg !534
  %22 = phi i64 [ %8, %7 ], [ %18, %11 ], !dbg !535
  %23 = and i32 %20, 4, !dbg !526
  %24 = icmp eq i32 %23, 0, !dbg !526
  br i1 %24, label %38, label %25, !dbg !536

25:                                               ; preds = %19
  %26 = icmp eq i64 %3, 0, !dbg !537
  br i1 %26, label %.loopexit10, label %.preheader, !dbg !581

.preheader:                                       ; preds = %.preheader, %25
  %27 = phi i64 [ %33, %.preheader ], [ 0, %25 ], !dbg !582
  %28 = phi i64 [ %34, %.preheader ], [ 0, %25 ], !dbg !583
  %29 = getelementptr inbounds i8, ptr %2, i64 %28, !dbg !585
  %30 = load i8, ptr %29, align 1, !dbg !597, !alias.scope !598, !noundef !18
  %31 = icmp sgt i8 %30, -65, !dbg !603
  %32 = zext i1 %31 to i64, !dbg !620
  %33 = add i64 %27, %32, !dbg !621
  %34 = add nuw nsw i64 %28, 1, !dbg !625
  %35 = icmp eq i64 %34, %3, !dbg !633
  br i1 %35, label %.loopexit10, label %.preheader, !dbg !633, !llvm.loop !634

.loopexit10:                                      ; preds = %.preheader, %25
  %36 = phi i64 [ 0, %25 ], [ %33, %.preheader ], !dbg !637
  %37 = add i64 %36, %22, !dbg !638
  br label %38, !dbg !639

38:                                               ; preds = %.loopexit10, %19
  %39 = phi ptr [ %2, %.loopexit10 ], [ null, %19 ], !dbg !640
  %40 = phi i64 [ %37, %.loopexit10 ], [ %22, %19 ], !dbg !640
  %41 = load i64, ptr %0, align 8, !dbg !641, !range !28, !noundef !18
  %42 = icmp eq i64 %41, 0, !dbg !643
  br i1 %42, label %43, label %49, !dbg !643

43:                                               ; preds = %38
  %44 = getelementptr inbounds i8, ptr %0, i64 32, !dbg !644
  %45 = load ptr, ptr %44, align 8, !dbg !644
  %46 = getelementptr inbounds i8, ptr %0, i64 40, !dbg !644
  %47 = load ptr, ptr %46, align 8, !dbg !644
  %48 = tail call fastcc noundef zeroext i1 @_ZN4core3fmt9Formatter12pad_integral12write_prefix17h91fd288290cd1315E(ptr %45, ptr %47, i32 noundef %21, ptr noalias noundef readonly align 1 %39, i64 %3), !dbg !644
  br i1 %48, label %.loopexit, label %53, !dbg !644

49:                                               ; preds = %38
  %50 = getelementptr inbounds { i64, i64 }, ptr %0, i64 0, i32 1, !dbg !645
  %51 = load i64, ptr %50, align 8, !dbg !645, !noundef !18
  %52 = icmp ult i64 %40, %51, !dbg !646
  br i1 %52, label %57, label %60, !dbg !646

53:                                               ; preds = %43
  %54 = getelementptr inbounds ptr, ptr %47, i64 3, !dbg !647
  %55 = load ptr, ptr %54, align 8, !dbg !647, !invariant.load !18, !nonnull !18
  %56 = tail call noundef zeroext i1 %55(ptr noundef nonnull align 1 %45, ptr noalias noundef nonnull readonly align 1 %4, i64 noundef %5), !dbg !647
  br label %.loopexit, !dbg !647

57:                                               ; preds = %49
  %58 = and i32 %20, 8, !dbg !648
  %59 = icmp eq i32 %58, 0, !dbg !648
  br i1 %59, label %66, label %94, !dbg !651

60:                                               ; preds = %49
  %61 = getelementptr inbounds i8, ptr %0, i64 32, !dbg !652
  %62 = load ptr, ptr %61, align 8, !dbg !652
  %63 = getelementptr inbounds i8, ptr %0, i64 40, !dbg !652
  %64 = load ptr, ptr %63, align 8, !dbg !652
  %65 = tail call fastcc noundef zeroext i1 @_ZN4core3fmt9Formatter12pad_integral12write_prefix17h91fd288290cd1315E(ptr %62, ptr %64, i32 noundef %21, ptr noalias noundef readonly align 1 %39, i64 %3), !dbg !652
  br i1 %65, label %.loopexit, label %137, !dbg !652

66:                                               ; preds = %57
  %67 = sub i64 %51, %40, !dbg !654
  tail call void @llvm.experimental.noalias.scope.decl(metadata !656), !dbg !659
  %68 = getelementptr inbounds { { i64, i64 }, { i64, i64 }, { ptr, ptr }, i32, i32, i8, [7 x i8] }, ptr %0, i64 0, i32 5, !dbg !660
  %69 = load i8, ptr %68, align 8, !dbg !660, !range !663, !alias.scope !656, !noundef !18
  %70 = zext i8 %69 to i64, !dbg !660
  switch i64 %70, label %71 [
    i64 0, label %77
    i64 1, label %72
    i64 2, label %73
    i64 3, label %72
  ], !dbg !664

71:                                               ; preds = %66
  unreachable, !dbg !660

72:                                               ; preds = %66, %66
  br label %77, !dbg !665

73:                                               ; preds = %66
  %74 = lshr i64 %67, 1, !dbg !667
  %75 = add i64 %67, 1, !dbg !668
  %76 = lshr i64 %75, 1, !dbg !668
  br label %77, !dbg !669

77:                                               ; preds = %73, %72, %66
  %78 = phi i64 [ %74, %73 ], [ %67, %72 ], [ %70, %66 ], !dbg !670
  %79 = phi i64 [ %76, %73 ], [ 0, %72 ], [ %67, %66 ], !dbg !670
  %80 = getelementptr inbounds { { i64, i64 }, { i64, i64 }, { ptr, ptr }, i32, i32, i8, [7 x i8] }, ptr %0, i64 0, i32 2
  %81 = load ptr, ptr %80, align 8
  %82 = getelementptr inbounds { { i64, i64 }, { i64, i64 }, { ptr, ptr }, i32, i32, i8, [7 x i8] }, ptr %0, i64 0, i32 2, i32 1
  %83 = load ptr, ptr %82, align 8
  %84 = getelementptr inbounds { { i64, i64 }, { i64, i64 }, { ptr, ptr }, i32, i32, i8, [7 x i8] }, ptr %0, i64 0, i32 3
  %85 = load i32, ptr %84, align 8, !range !671, !alias.scope !656
  %86 = getelementptr inbounds ptr, ptr %83, i64 4
  br label %87, !dbg !672

87:                                               ; preds = %90, %77
  %88 = phi i64 [ 0, %77 ], [ %91, %90 ], !dbg !675
  %89 = icmp eq i64 %88, %78, !dbg !676
  br i1 %89, label %104, label %90, !dbg !694

90:                                               ; preds = %87
  %91 = add i64 %88, 1, !dbg !695
  %92 = load ptr, ptr %86, align 8, !dbg !707, !invariant.load !18, !noalias !656, !nonnull !18
  %93 = tail call noundef zeroext i1 %92(ptr noundef nonnull align 1 %81, i32 noundef %85), !dbg !707, !noalias !656
  br i1 %93, label %.loopexit, label %87, !dbg !707

94:                                               ; preds = %57
  %95 = getelementptr inbounds { { i64, i64 }, { i64, i64 }, { ptr, ptr }, i32, i32, i8, [7 x i8] }, ptr %0, i64 0, i32 3, !dbg !708
  %96 = load i32, ptr %95, align 8, !dbg !708, !range !671, !noundef !18
  store i32 48, ptr %95, align 8, !dbg !720
  %97 = getelementptr inbounds { { i64, i64 }, { i64, i64 }, { ptr, ptr }, i32, i32, i8, [7 x i8] }, ptr %0, i64 0, i32 5, !dbg !726
  %98 = load i8, ptr %97, align 8, !dbg !726, !range !663, !noundef !18
  store i8 1, ptr %97, align 8, !dbg !736
  %99 = getelementptr inbounds i8, ptr %0, i64 32, !dbg !742
  %100 = load ptr, ptr %99, align 8, !dbg !742
  %101 = getelementptr inbounds i8, ptr %0, i64 40, !dbg !742
  %102 = load ptr, ptr %101, align 8, !dbg !742
  %103 = tail call fastcc noundef zeroext i1 @_ZN4core3fmt9Formatter12pad_integral12write_prefix17h91fd288290cd1315E(ptr %100, ptr %102, i32 noundef %21, ptr noalias noundef readonly align 1 %39, i64 %3), !dbg !742
  br i1 %103, label %.loopexit, label %122, !dbg !742

104:                                              ; preds = %87
  %105 = tail call fastcc noundef zeroext i1 @_ZN4core3fmt9Formatter12pad_integral12write_prefix17h91fd288290cd1315E(ptr %81, ptr %83, i32 noundef %21, ptr noalias noundef readonly align 1 %39, i64 %3), !dbg !744
  br i1 %105, label %.loopexit, label %106, !dbg !744

106:                                              ; preds = %104
  %107 = getelementptr inbounds ptr, ptr %83, i64 3, !dbg !746
  %108 = load ptr, ptr %107, align 8, !dbg !746, !invariant.load !18, !nonnull !18
  %109 = tail call noundef zeroext i1 %108(ptr noundef nonnull align 1 %81, ptr noalias noundef nonnull readonly align 1 %4, i64 noundef %5), !dbg !746
  br i1 %109, label %.loopexit, label %110, !dbg !746

110:                                              ; preds = %106
  %111 = icmp ne ptr %81, null
  br label %112, !dbg !747

112:                                              ; preds = %115, %110
  %113 = phi i64 [ 0, %110 ], [ %116, %115 ], !dbg !752
  %114 = icmp eq i64 %113, %79, !dbg !753
  br i1 %114, label %119, label %115, !dbg !763

115:                                              ; preds = %112
  %116 = add i64 %113, 1, !dbg !764
  tail call void @llvm.assume(i1 %111)
  %117 = load ptr, ptr %86, align 8, !dbg !769, !invariant.load !18, !nonnull !18
  %118 = tail call noundef zeroext i1 %117(ptr noundef nonnull align 1 %81, i32 noundef %85), !dbg !769
  br i1 %118, label %119, label %112, !dbg !769

119:                                              ; preds = %115, %112
  %120 = phi i64 [ %79, %112 ], [ %113, %115 ], !dbg !752
  %121 = icmp ult i64 %120, %79, !dbg !753
  br label %.loopexit, !dbg !770

122:                                              ; preds = %94
  %123 = sub i64 %51, %40, !dbg !771
  %124 = getelementptr inbounds ptr, ptr %102, i64 4
  br label %125, !dbg !772

125:                                              ; preds = %128, %122
  %126 = phi i64 [ 0, %122 ], [ %129, %128 ], !dbg !774
  %127 = icmp eq i64 %126, %123, !dbg !775
  br i1 %127, label %132, label %128, !dbg !779

128:                                              ; preds = %125
  %129 = add i64 %126, 1, !dbg !780
  %130 = load ptr, ptr %124, align 8, !dbg !783, !invariant.load !18, !noalias !784, !nonnull !18
  %131 = tail call noundef zeroext i1 %130(ptr noundef nonnull align 1 %100, i32 noundef 48), !dbg !783, !noalias !784
  br i1 %131, label %.loopexit, label %125, !dbg !783

132:                                              ; preds = %125
  %133 = getelementptr inbounds ptr, ptr %102, i64 3, !dbg !787
  %134 = load ptr, ptr %133, align 8, !dbg !787, !invariant.load !18, !nonnull !18
  %135 = tail call noundef zeroext i1 %134(ptr noundef nonnull align 1 %100, ptr noalias noundef nonnull readonly align 1 %4, i64 noundef %5), !dbg !787
  br i1 %135, label %.loopexit, label %136, !dbg !787

136:                                              ; preds = %132
  store i32 %96, ptr %95, align 8, !dbg !789
  store i8 %98, ptr %97, align 8, !dbg !790
  br label %.loopexit, !dbg !791

137:                                              ; preds = %60
  %138 = getelementptr inbounds ptr, ptr %64, i64 3, !dbg !792
  %139 = load ptr, ptr %138, align 8, !dbg !792, !invariant.load !18, !nonnull !18
  %140 = tail call noundef zeroext i1 %139(ptr noundef nonnull align 1 %62, ptr noalias noundef nonnull readonly align 1 %4, i64 noundef %5), !dbg !792
  br label %.loopexit, !dbg !793

.loopexit:                                        ; preds = %137, %136, %132, %128, %119, %106, %104, %94, %90, %60, %53, %43
  %141 = phi i1 [ %140, %137 ], [ false, %136 ], [ %121, %119 ], [ %56, %53 ], [ true, %43 ], [ true, %104 ], [ true, %106 ], [ true, %94 ], [ true, %132 ], [ true, %60 ], [ true, %90 ], [ true, %128 ]
  ret i1 %141, !dbg !794
}

; Function Attrs: noinline uwtable
define internal fastcc noundef zeroext i1 @_ZN4core3fmt9Formatter12pad_integral12write_prefix17h91fd288290cd1315E(ptr %0, ptr readonly %1, i32 noundef %2, ptr noalias noundef readonly align 1 %3, i64 %4) unnamed_addr #20 !dbg !795 {
  %6 = icmp eq i32 %2, 1114112, !dbg !798
  br i1 %6, label %13, label %7, !dbg !798

7:                                                ; preds = %5
  %8 = icmp ne ptr %0, null
  tail call void @llvm.assume(i1 %8)
  %9 = icmp ne ptr %1, null
  tail call void @llvm.assume(i1 %9)
  %10 = getelementptr inbounds ptr, ptr %1, i64 4, !dbg !800
  %11 = load ptr, ptr %10, align 8, !dbg !800, !invariant.load !18, !nonnull !18
  %12 = tail call noundef zeroext i1 %11(ptr noundef nonnull align 1 %0, i32 noundef %2), !dbg !800
  br i1 %12, label %15, label %13, !dbg !800

13:                                               ; preds = %7, %5
  %14 = icmp eq ptr %3, null, !dbg !801
  br i1 %14, label %15, label %17, !dbg !801

15:                                               ; preds = %17, %13, %7
  %16 = phi i1 [ %22, %17 ], [ true, %7 ], [ false, %13 ]
  ret i1 %16, !dbg !803

17:                                               ; preds = %13
  %18 = icmp ne ptr %0, null
  tail call void @llvm.assume(i1 %18)
  %19 = icmp ne ptr %1, null
  tail call void @llvm.assume(i1 %19)
  %20 = getelementptr inbounds ptr, ptr %1, i64 3, !dbg !804
  %21 = load ptr, ptr %20, align 8, !dbg !804, !invariant.load !18, !nonnull !18
  %22 = tail call noundef zeroext i1 %21(ptr noundef nonnull align 1 %0, ptr noalias noundef nonnull readonly align 1 %3, i64 noundef %4), !dbg !804
  br label %15, !dbg !804
}

; Function Attrs: nocallback nofree nosync nounwind willreturn memory(inaccessiblemem: write)
declare void @llvm.assume(i1 noundef) #21

; Function Attrs: nofree nosync nounwind memory(argmem: readwrite) uwtable
define internal fastcc void @_ZN4core3num7dec2flt7decimal7Decimal11right_shift17h9c89549016994516E(ptr noalias nocapture noundef align 8 dereferenceable(784) %0, i64 noundef %1) unnamed_addr #22 !dbg !805 {
  %3 = and i64 %1, 63
  %4 = load i64, ptr %0, align 8, !noundef !18
  br label %5, !dbg !806

5:                                                ; preds = %30, %2
  %6 = phi i64 [ 0, %2 ], [ %36, %30 ]
  %7 = phi i64 [ 0, %2 ], [ %35, %30 ]
  %8 = icmp eq i64 %6, %4, !dbg !810
  br i1 %8, label %9, label %14, !dbg !810

9:                                                ; preds = %5
  %.lcssa45 = phi i64 [ %7, %5 ]
  %10 = icmp eq i64 %.lcssa45, 0, !dbg !811
  br i1 %10, label %.loopexit, label %11, !dbg !811

11:                                               ; preds = %9
  %12 = lshr i64 %.lcssa45, %3, !dbg !812
  %13 = icmp eq i64 %12, 0, !dbg !812
  br i1 %13, label %.preheader16, label %.loopexit17, !dbg !812

14:                                               ; preds = %5
  %15 = icmp eq i64 %6, 768, !dbg !813
  br i1 %15, label %39, label %30, !dbg !813, !prof !463

.preheader16:                                     ; preds = %.preheader16, %11
  %16 = phi i64 [ %19, %.preheader16 ], [ %4, %11 ]
  %17 = phi i64 [ %18, %.preheader16 ], [ %.lcssa45, %11 ]
  %18 = mul i64 %17, 10, !dbg !814
  %19 = add i64 %16, 1, !dbg !815
  %20 = lshr i64 %18, %3, !dbg !812
  %21 = icmp eq i64 %20, 0, !dbg !812
  br i1 %21, label %.preheader16, label %.loopexit17, !dbg !812

.loopexit17:                                      ; preds = %30, %.preheader16, %11
  %22 = phi i64 [ %.lcssa45, %11 ], [ %18, %.preheader16 ], [ %35, %30 ], !dbg !816
  %23 = phi i64 [ %4, %11 ], [ %19, %.preheader16 ], [ %36, %30 ], !dbg !817
  %24 = trunc i64 %23 to i32, !dbg !818
  %25 = getelementptr inbounds { i64, [768 x i8], i32, i8, [3 x i8] }, ptr %0, i64 0, i32 2, !dbg !819
  %26 = load i32, ptr %25, align 8, !dbg !819, !noundef !18
  %27 = sub i32 %26, %24, !dbg !819
  %28 = add i32 %27, 1, !dbg !819
  store i32 %28, ptr %25, align 8, !dbg !819
  %29 = icmp slt i32 %28, -2047, !dbg !820
  br i1 %29, label %47, label %40, !dbg !820

30:                                               ; preds = %14
  %31 = mul i64 %7, 10, !dbg !821
  %32 = getelementptr inbounds { i64, [768 x i8], i32, i8, [3 x i8] }, ptr %0, i64 0, i32 1, i64 %6, !dbg !813
  %33 = load i8, ptr %32, align 1, !dbg !813, !noundef !18
  %34 = zext i8 %33 to i64, !dbg !813
  %35 = add i64 %31, %34, !dbg !822
  %36 = add nuw nsw i64 %6, 1, !dbg !823
  %37 = lshr i64 %35, %3, !dbg !806
  %38 = icmp eq i64 %37, 0, !dbg !806
  br i1 %38, label %5, label %.loopexit17, !dbg !806

39:                                               ; preds = %14
  tail call fastcc void @_ZN4core5slice5index24slice_end_index_len_fail17hfdbe95b016e4b961E(i64 noundef 768, i64 noundef 768) #33, !dbg !813
  unreachable, !dbg !813

40:                                               ; preds = %.loopexit17
  %41 = shl nsw i64 -1, %3, !dbg !824
  %42 = xor i64 %41, -1, !dbg !824
  %43 = icmp ult i64 %23, %4, !dbg !825
  br i1 %43, label %44, label %.thread, !dbg !825

44:                                               ; preds = %40
  %45 = tail call i64 @llvm.usub.sat.i64(i64 768, i64 %23), !dbg !827
  %46 = sub i64 %4, %23, !dbg !827
  br label %56, !dbg !827

47:                                               ; preds = %.loopexit17
  store i64 0, ptr %0, align 8, !dbg !829
  store i32 0, ptr %25, align 8, !dbg !830
  %48 = getelementptr inbounds { i64, [768 x i8], i32, i8, [3 x i8] }, ptr %0, i64 0, i32 3, !dbg !831
  store i8 0, ptr %48, align 4, !dbg !831
  br label %.loopexit, !dbg !832

49:                                               ; preds = %94
  %.lcssa42 = phi i64 [ %103, %94 ], !dbg !835
  %50 = icmp eq i64 %.lcssa42, 0, !dbg !836
  br i1 %50, label %61, label %52, !dbg !836

.thread:                                          ; preds = %40
  %51 = icmp eq i64 %22, 0, !dbg !836
  br i1 %51, label %.thread15, label %52, !dbg !836

.thread15:                                        ; preds = %.thread
  store i64 0, ptr %0, align 8, !dbg !837
  br label %.loopexit, !dbg !838

52:                                               ; preds = %.thread, %49
  %53 = phi i64 [ 0, %.thread ], [ %46, %49 ]
  %54 = phi i64 [ %22, %.thread ], [ %.lcssa42, %49 ]
  %55 = getelementptr inbounds { i64, [768 x i8], i32, i8, [3 x i8] }, ptr %0, i64 0, i32 3
  br label %75, !dbg !836

56:                                               ; preds = %94, %44
  %57 = phi i64 [ %97, %94 ], [ %23, %44 ]
  %58 = phi i64 [ %105, %94 ], [ 0, %44 ]
  %59 = phi i64 [ %103, %94 ], [ %22, %44 ]
  %60 = icmp eq i64 %58, %45, !dbg !827
  br i1 %60, label %93, label %94, !dbg !827, !prof !463

61:                                               ; preds = %49
  store i64 %46, ptr %0, align 8, !dbg !837
  %62 = icmp eq i64 %46, 0, !dbg !838
  br i1 %62, label %.loopexit, label %63, !dbg !838

63:                                               ; preds = %89, %61
  %64 = phi i64 [ %.lcssa, %89 ], [ %46, %61 ]
  %65 = icmp ult i64 %64, 769, !dbg !840
  br i1 %65, label %.preheader, label %73, !dbg !840, !prof !481

.preheader:                                       ; preds = %71, %63
  %66 = phi i64 [ %67, %71 ], [ %64, %63 ]
  %67 = add i64 %66, -1, !dbg !841
  %68 = getelementptr inbounds { i64, [768 x i8], i32, i8, [3 x i8] }, ptr %0, i64 0, i32 1, i64 %67, !dbg !840
  %69 = load i8, ptr %68, align 1, !dbg !840, !alias.scope !842, !noundef !18
  %70 = icmp eq i8 %69, 0, !dbg !840
  br i1 %70, label %71, label %.loopexit, !dbg !840

71:                                               ; preds = %.preheader
  store i64 %67, ptr %0, align 8, !dbg !845, !alias.scope !842
  %72 = icmp eq i64 %67, 0, !dbg !838
  br i1 %72, label %.loopexit, label %.preheader, !dbg !838

73:                                               ; preds = %63
  %74 = add i64 %64, -1, !dbg !841
  tail call fastcc void @_ZN4core5slice5index24slice_end_index_len_fail17hfdbe95b016e4b961E(i64 noundef %74, i64 noundef 768) #33, !dbg !840
  unreachable, !dbg !840

75:                                               ; preds = %86, %52
  %76 = phi i64 [ %53, %52 ], [ %87, %86 ]
  %77 = phi i64 [ %54, %52 ], [ %81, %86 ]
  %78 = lshr i64 %77, %3, !dbg !846
  %79 = trunc i64 %78 to i8, !dbg !846
  %80 = and i64 %77, %42, !dbg !847
  %81 = mul i64 %80, 10, !dbg !849
  %82 = icmp ult i64 %76, 768, !dbg !850
  br i1 %82, label %90, label %83, !dbg !850

.loopexit:                                        ; preds = %71, %.preheader, %61, %.thread15, %47, %9
  ret void, !dbg !851

83:                                               ; preds = %75
  %84 = icmp eq i8 %79, 0, !dbg !852
  br i1 %84, label %86, label %85, !dbg !852

85:                                               ; preds = %83
  store i8 1, ptr %55, align 4, !dbg !853
  br label %86, !dbg !854

86:                                               ; preds = %90, %85, %83
  %87 = phi i64 [ %92, %90 ], [ %76, %85 ], [ %76, %83 ], !dbg !855
  %88 = icmp eq i64 %81, 0, !dbg !836
  br i1 %88, label %89, label %75, !dbg !836

89:                                               ; preds = %86
  %.lcssa = phi i64 [ %87, %86 ], !dbg !855
  store i64 %.lcssa, ptr %0, align 8, !dbg !837
  br label %63, !dbg !838

90:                                               ; preds = %75
  %91 = getelementptr inbounds { i64, [768 x i8], i32, i8, [3 x i8] }, ptr %0, i64 0, i32 1, i64 %76, !dbg !856
  store i8 %79, ptr %91, align 1, !dbg !856
  %92 = add nuw nsw i64 %76, 1, !dbg !857
  br label %86, !dbg !858

93:                                               ; preds = %56
  %.lcssa40 = phi i64 [ %57, %56 ]
  tail call fastcc void @_ZN4core5slice5index24slice_end_index_len_fail17hfdbe95b016e4b961E(i64 noundef %.lcssa40, i64 noundef 768) #33, !dbg !827
  unreachable, !dbg !827

94:                                               ; preds = %56
  %95 = lshr i64 %59, %3, !dbg !859
  %96 = trunc i64 %95 to i8, !dbg !859
  %97 = add nuw nsw i64 %57, 1, !dbg !860
  %98 = and i64 %59, %42, !dbg !861
  %99 = mul i64 %98, 10, !dbg !862
  %100 = getelementptr inbounds { i64, [768 x i8], i32, i8, [3 x i8] }, ptr %0, i64 0, i32 1, i64 %57, !dbg !827
  %101 = load i8, ptr %100, align 1, !dbg !827, !noundef !18
  %102 = zext i8 %101 to i64, !dbg !827
  %103 = add i64 %99, %102, !dbg !835
  %104 = getelementptr inbounds { i64, [768 x i8], i32, i8, [3 x i8] }, ptr %0, i64 0, i32 1, i64 %58, !dbg !863
  store i8 %96, ptr %104, align 1, !dbg !863
  %105 = add nuw nsw i64 %58, 1, !dbg !864
  %106 = icmp eq i64 %105, %46, !dbg !825
  br i1 %106, label %49, label %56, !dbg !825
}

; Function Attrs: nocallback nofree nosync nounwind speculatable willreturn memory(none)
declare i64 @llvm.usub.sat.i64(i64, i64) #13

; Function Attrs: cold nofree noinline norecurse noreturn nosync nounwind memory(none) uwtable
define internal fastcc void @_ZN4core5slice5index24slice_end_index_len_fail17hfdbe95b016e4b961E(i64 noundef %0, i64 noundef %1) unnamed_addr #16 !dbg !865 {
  tail call fastcc void @_ZN4core9panicking9panic_fmt17h10bd3bfe5bb30d67E() #33, !dbg !866
  unreachable, !dbg !866
}

; Function Attrs: nocallback nofree nosync nounwind speculatable willreturn memory(none)
declare i8 @llvm.usub.sat.i8(i8, i8) #13

; Function Attrs: cold nofree noinline norecurse noreturn nosync nounwind memory(none) uwtable
define internal fastcc void @_ZN4core9panicking5panic17hca9af9b940213a79E(ptr noalias nocapture noundef nonnull readonly align 1 %0, i64 noundef %1) unnamed_addr #16 !dbg !871 {
  tail call fastcc void @_ZN4core9panicking9panic_fmt17h10bd3bfe5bb30d67E() #33, !dbg !872
  unreachable, !dbg !872
}

; Function Attrs: cold nofree noinline norecurse noreturn nosync nounwind memory(argmem: read) uwtable
define internal fastcc void @_ZN4core9panicking13assert_failed17h6ca055d4d7de3296E(ptr noalias nocapture noundef readonly align 8 dereferenceable(8) %0, ptr noalias nocapture noundef readonly align 8 dereferenceable(8) %1, ptr noalias nocapture noundef readonly align 8 dereferenceable(48) %2) unnamed_addr #23 !dbg !873 {
  %4 = alloca ptr, align 8
  %5 = alloca ptr, align 8
  store ptr %0, ptr %5, align 8
  store ptr %1, ptr %4, align 8
  call fastcc void @_ZN4core9panicking19assert_failed_inner17h831d6c5898287e00E(ptr noundef nonnull align 1 %5, ptr noundef nonnull align 1 %4, ptr noalias nocapture noundef nonnull readonly align 8 dereferenceable(48) %2) #33, !dbg !874
  unreachable, !dbg !874
}

; Function Attrs: cold nofree noinline norecurse noreturn nosync nounwind memory(argmem: read) uwtable
define internal fastcc void @_ZN4core9panicking19assert_failed_inner17h831d6c5898287e00E(ptr nocapture noundef nonnull align 1 %0, ptr nocapture noundef nonnull align 1 %1, ptr noalias nocapture noundef readonly align 8 dereferenceable(48) %2) unnamed_addr #23 !dbg !875 {
  tail call fastcc void @_ZN4core9panicking9panic_fmt17h10bd3bfe5bb30d67E() #33, !dbg !876
  unreachable, !dbg !876
}

; Function Attrs: uwtable
define internal fastcc noundef zeroext i1 @_ZN4core3fmt5write17he9fa43146d420946E(ptr noundef nonnull align 1 %0, ptr noalias noundef readonly align 8 dereferenceable(24) %1, ptr noalias nocapture noundef readonly align 8 dereferenceable(48) %2) unnamed_addr #19 personality ptr @rust_eh_personality !dbg !878 {
  %4 = alloca { { i64, i64 }, { i64, i64 }, { ptr, ptr }, i32, i32, i8, [7 x i8] }, align 8
  call void @llvm.lifetime.start.p0(i64 64, ptr nonnull %4), !dbg !879
  %5 = getelementptr inbounds { { i64, i64 }, { i64, i64 }, { ptr, ptr }, i32, i32, i8, [7 x i8] }, ptr %4, i64 0, i32 3, !dbg !880
  store <2 x i32> <i32 32, i32 0>, ptr %5, align 8, !dbg !880, !alias.scope !883, !noalias !886
  %6 = getelementptr inbounds { { i64, i64 }, { i64, i64 }, { ptr, ptr }, i32, i32, i8, [7 x i8] }, ptr %4, i64 0, i32 5, !dbg !880
  store i8 3, ptr %6, align 8, !dbg !880, !alias.scope !883, !noalias !886
  store i64 0, ptr %4, align 8, !dbg !880, !alias.scope !883, !noalias !886
  %7 = getelementptr inbounds { { i64, i64 }, { i64, i64 }, { ptr, ptr }, i32, i32, i8, [7 x i8] }, ptr %4, i64 0, i32 1, !dbg !880
  store i64 0, ptr %7, align 8, !dbg !880, !alias.scope !883, !noalias !886
  %8 = getelementptr inbounds { { i64, i64 }, { i64, i64 }, { ptr, ptr }, i32, i32, i8, [7 x i8] }, ptr %4, i64 0, i32 2, !dbg !880
  store ptr %0, ptr %8, align 8, !dbg !880, !alias.scope !883, !noalias !886
  %9 = getelementptr inbounds { { i64, i64 }, { i64, i64 }, { ptr, ptr }, i32, i32, i8, [7 x i8] }, ptr %4, i64 0, i32 2, i32 1, !dbg !880
  store ptr %1, ptr %9, align 8, !dbg !880, !alias.scope !883, !noalias !886
  %10 = getelementptr inbounds { { ptr, i64 }, { ptr, i64 }, { ptr, i64 } }, ptr %2, i64 0, i32 2, !dbg !888
  %11 = load ptr, ptr %10, align 8, !dbg !888, !noundef !18
  %12 = icmp eq ptr %11, null, !dbg !888
  br i1 %12, label %13, label %25, !dbg !891

13:                                               ; preds = %3
  %14 = getelementptr inbounds { { ptr, i64 }, { ptr, i64 }, { ptr, i64 } }, ptr %2, i64 0, i32 1, !dbg !892
  %15 = load ptr, ptr %14, align 8, !dbg !892, !nonnull !18, !align !893, !noundef !18
  %16 = getelementptr inbounds { { ptr, i64 }, { ptr, i64 }, { ptr, i64 } }, ptr %2, i64 0, i32 1, i32 1, !dbg !892
  %17 = load i64, ptr %16, align 8, !dbg !892, !noundef !18
  %18 = getelementptr inbounds { ptr, ptr }, ptr %15, i64 %17, !dbg !894
  %19 = icmp eq i64 %17, 0, !dbg !907
  br i1 %19, label %.loopexit8, label %20, !dbg !919

20:                                               ; preds = %13
  %21 = load ptr, ptr %2, align 8, !nonnull !18, !align !893, !noundef !18
  %22 = add i64 %17, 1152921504606846975, !dbg !919
  %23 = and i64 %22, 1152921504606846975, !dbg !919
  %24 = add nuw nsw i64 %23, 1, !dbg !919
  br label %39, !dbg !919

25:                                               ; preds = %3
  %26 = getelementptr inbounds { { ptr, i64 }, { ptr, i64 }, { ptr, i64 } }, ptr %2, i64 0, i32 2, i32 1, !dbg !920
  %27 = load i64, ptr %26, align 8, !dbg !920, !noundef !18
  %28 = getelementptr inbounds { { i64, i64 }, { i64, i64 }, i64, i32, i32, i8, [7 x i8] }, ptr %11, i64 %27, !dbg !921
  %29 = icmp eq i64 %27, 0, !dbg !935
  br i1 %29, label %.loopexit8, label %30, !dbg !947

30:                                               ; preds = %25
  %31 = load ptr, ptr %2, align 8, !nonnull !18, !align !893, !noundef !18
  %32 = getelementptr inbounds { { ptr, i64 }, { ptr, i64 }, { ptr, i64 } }, ptr %2, i64 0, i32 1
  %33 = load ptr, ptr %32, align 8, !nonnull !18, !align !893
  %34 = getelementptr inbounds { i64, i64 }, ptr %4, i64 0, i32 1
  %35 = getelementptr inbounds { { i64, i64 }, { i64, i64 }, { ptr, ptr }, i32, i32, i8, [7 x i8] }, ptr %4, i64 0, i32 1, i32 1
  %36 = add i64 %27, 2305843009213693951, !dbg !947
  %37 = and i64 %36, 2305843009213693951, !dbg !947
  %38 = add nuw nsw i64 %37, 1, !dbg !947
  br label %66, !dbg !947

39:                                               ; preds = %64, %20
  %40 = phi i64 [ 0, %20 ], [ %43, %64 ]
  %41 = phi ptr [ %15, %20 ], [ %42, %64 ]
  %42 = getelementptr inbounds { ptr, ptr }, ptr %41, i64 1, !dbg !948
  %43 = add nuw nsw i64 %40, 1, !dbg !964
  %44 = getelementptr inbounds { ptr, i64 }, ptr %21, i64 %40, i32 1, !dbg !967
  %45 = load i64, ptr %44, align 8, !dbg !967, !noundef !18
  %46 = icmp eq i64 %45, 0, !dbg !967
  br i1 %46, label %59, label %51, !dbg !967

.loopexit8:                                       ; preds = %141, %64, %25, %13
  %47 = phi i64 [ 0, %13 ], [ 0, %25 ], [ %24, %64 ], [ %38, %141 ], !dbg !968
  %48 = getelementptr inbounds { ptr, i64 }, ptr %2, i64 0, i32 1, !dbg !969
  %49 = load i64, ptr %48, align 8, !dbg !969, !noundef !18
  %50 = icmp ult i64 %47, %49, !dbg !971
  br i1 %50, label %74, label %85, !dbg !979

51:                                               ; preds = %39
  %52 = getelementptr inbounds { ptr, i64 }, ptr %21, i64 %40, !dbg !980
  %53 = load ptr, ptr %8, align 8, !dbg !995, !nonnull !18, !align !32, !noundef !18
  %54 = load ptr, ptr %9, align 8, !dbg !995, !nonnull !18, !align !893, !noundef !18
  %55 = load ptr, ptr %52, align 8, !dbg !996, !nonnull !18, !align !32, !noundef !18
  %56 = getelementptr inbounds ptr, ptr %54, i64 3, !dbg !995
  %57 = load ptr, ptr %56, align 8, !dbg !995, !invariant.load !18, !nonnull !18
  %58 = call noundef zeroext i1 %57(ptr noundef nonnull align 1 %53, ptr noalias noundef nonnull readonly align 1 %55, i64 noundef %45), !dbg !995
  br i1 %58, label %.loopexit, label %59, !dbg !995

59:                                               ; preds = %51, %39
  %60 = getelementptr inbounds { ptr, ptr }, ptr %41, i64 0, i32 1, !dbg !997
  %61 = load ptr, ptr %60, align 8, !dbg !997, !nonnull !18, !noundef !18
  %62 = load ptr, ptr %41, align 8, !dbg !1002, !nonnull !18, !align !32, !noundef !18
  %63 = call noundef zeroext i1 %61(ptr noundef nonnull align 1 %62, ptr noalias noundef nonnull align 8 dereferenceable(64) %4), !dbg !997
  br i1 %63, label %.loopexit, label %64, !dbg !1003

64:                                               ; preds = %59
  %65 = icmp eq ptr %42, %18, !dbg !907
  br i1 %65, label %.loopexit8, label %39, !dbg !919

.loopexit:                                        ; preds = %131, %88, %74, %59, %51
  call void @llvm.lifetime.end.p0(i64 64, ptr nonnull %4), !dbg !1004
  br label %86, !dbg !1005

66:                                               ; preds = %141, %30
  %67 = phi i64 [ 0, %30 ], [ %70, %141 ]
  %68 = phi ptr [ %11, %30 ], [ %69, %141 ]
  %69 = getelementptr inbounds { { i64, i64 }, { i64, i64 }, i64, i32, i32, i8, [7 x i8] }, ptr %68, i64 1, !dbg !1006
  %70 = add nuw nsw i64 %67, 1, !dbg !1022
  %71 = getelementptr inbounds { ptr, i64 }, ptr %31, i64 %67, i32 1, !dbg !1025
  %72 = load i64, ptr %71, align 8, !dbg !1025, !noundef !18
  %73 = icmp eq i64 %72, 0, !dbg !1025
  br i1 %73, label %96, label %88, !dbg !1025

74:                                               ; preds = %.loopexit8
  %75 = load ptr, ptr %2, align 8, !dbg !971, !nonnull !18, !align !893
  %76 = getelementptr inbounds { ptr, i64 }, ptr %75, i64 %47, !dbg !971
  %77 = load ptr, ptr %8, align 8, !dbg !1026, !nonnull !18, !align !32, !noundef !18
  %78 = load ptr, ptr %9, align 8, !dbg !1026, !nonnull !18, !align !893, !noundef !18
  %79 = load ptr, ptr %76, align 8, !dbg !1027, !nonnull !18, !align !32, !noundef !18
  %80 = getelementptr inbounds { ptr, i64 }, ptr %75, i64 %47, i32 1, !dbg !1027
  %81 = load i64, ptr %80, align 8, !dbg !1027, !noundef !18
  %82 = getelementptr inbounds ptr, ptr %78, i64 3, !dbg !1026
  %83 = load ptr, ptr %82, align 8, !dbg !1026, !invariant.load !18, !nonnull !18
  %84 = call noundef zeroext i1 %83(ptr noundef nonnull align 1 %77, ptr noalias noundef nonnull readonly align 1 %79, i64 noundef %81), !dbg !1026
  br i1 %84, label %.loopexit, label %85, !dbg !1026

85:                                               ; preds = %74, %.loopexit8
  call void @llvm.lifetime.end.p0(i64 64, ptr nonnull %4), !dbg !1004
  br label %86, !dbg !1005

86:                                               ; preds = %85, %.loopexit
  %87 = phi i1 [ true, %.loopexit ], [ false, %85 ]
  ret i1 %87, !dbg !1005

88:                                               ; preds = %66
  %89 = getelementptr inbounds { ptr, i64 }, ptr %31, i64 %67, !dbg !1028
  %90 = load ptr, ptr %8, align 8, !dbg !1040, !nonnull !18, !align !32, !noundef !18
  %91 = load ptr, ptr %9, align 8, !dbg !1040, !nonnull !18, !align !893, !noundef !18
  %92 = load ptr, ptr %89, align 8, !dbg !1041, !nonnull !18, !align !32, !noundef !18
  %93 = getelementptr inbounds ptr, ptr %91, i64 3, !dbg !1040
  %94 = load ptr, ptr %93, align 8, !dbg !1040, !invariant.load !18, !nonnull !18
  %95 = call noundef zeroext i1 %94(ptr noundef nonnull align 1 %90, ptr noalias noundef nonnull readonly align 1 %92, i64 noundef %72), !dbg !1040
  br i1 %95, label %.loopexit, label %96, !dbg !1040

96:                                               ; preds = %88, %66
  call void @llvm.experimental.noalias.scope.decl(metadata !1042), !dbg !1045
  call void @llvm.experimental.noalias.scope.decl(metadata !1047), !dbg !1045
  call void @llvm.experimental.noalias.scope.decl(metadata !1049), !dbg !1045
  %97 = getelementptr inbounds { { i64, i64 }, { i64, i64 }, i64, i32, i32, i8, [7 x i8] }, ptr %68, i64 0, i32 3, !dbg !1051
  %98 = getelementptr inbounds { { i64, i64 }, { i64, i64 }, i64, i32, i32, i8, [7 x i8] }, ptr %68, i64 0, i32 5, !dbg !1054
  %99 = load i8, ptr %98, align 8, !dbg !1054, !range !663, !alias.scope !1047, !noalias !1055, !noundef !18
  store i8 %99, ptr %6, align 8, !dbg !1056, !alias.scope !1042, !noalias !1057
  %100 = load <2 x i32>, ptr %97, align 8, !dbg !1051, !alias.scope !1047, !noalias !1055
  store <2 x i32> %100, ptr %5, align 8, !dbg !1058, !alias.scope !1042, !noalias !1057
  %101 = getelementptr inbounds { { i64, i64 }, { i64, i64 }, i64, i32, i32, i8, [7 x i8] }, ptr %68, i64 0, i32 1, !dbg !1059
  %102 = load i64, ptr %101, align 8, !dbg !1061, !range !1062, !alias.scope !1047, !noalias !1055, !noundef !18
  %103 = getelementptr inbounds { { i64, i64 }, { i64, i64 }, i64, i32, i32, i8, [7 x i8] }, ptr %68, i64 0, i32 1, i32 1, !dbg !1061
  %104 = load i64, ptr %103, align 8, !dbg !1061, !alias.scope !1047, !noalias !1055
  call void @llvm.experimental.noalias.scope.decl(metadata !1063), !dbg !1061
  switch i64 %102, label %105 [
    i64 0, label %106
    i64 1, label %107
    i64 2, label %115
  ], !dbg !1066

105:                                              ; preds = %96
  unreachable, !dbg !1069

106:                                              ; preds = %96
  br label %115, !dbg !1070

107:                                              ; preds = %96
  %108 = getelementptr inbounds { ptr, ptr }, ptr %33, i64 %104, i32 1, !dbg !1071
  %109 = load ptr, ptr %108, align 8, !dbg !1071, !alias.scope !1077, !noalias !1078, !nonnull !18, !noundef !18
  %110 = icmp eq ptr %109, @_ZN4core3ops8function6FnOnce9call_once17h327a852a215e42d7E, !dbg !1071
  br i1 %110, label %111, label %115, !dbg !1071

111:                                              ; preds = %107
  %112 = getelementptr inbounds { ptr, ptr }, ptr %33, i64 %104, !dbg !1079
  %113 = load ptr, ptr %112, align 8, !dbg !1093, !alias.scope !1077, !noalias !1078, !nonnull !18, !align !32, !noundef !18
  %114 = load i64, ptr %113, align 8, !dbg !1095, !noalias !1096, !noundef !18
  br label %115, !dbg !1097

115:                                              ; preds = %111, %107, %106, %96
  %116 = phi i64 [ %114, %111 ], [ %104, %106 ], [ undef, %96 ], [ undef, %107 ]
  %117 = phi i64 [ 1, %111 ], [ 1, %106 ], [ 0, %96 ], [ 0, %107 ], !dbg !1098
  store i64 %117, ptr %4, align 8, !dbg !1099, !alias.scope !1042, !noalias !1057
  store i64 %116, ptr %34, align 8, !dbg !1099, !alias.scope !1042, !noalias !1057
  %118 = load i64, ptr %68, align 8, !dbg !1100, !range !1062, !alias.scope !1047, !noalias !1055, !noundef !18
  %119 = getelementptr inbounds i8, ptr %68, i64 8, !dbg !1100
  %120 = load i64, ptr %119, align 8, !dbg !1100, !alias.scope !1047, !noalias !1055
  call void @llvm.experimental.noalias.scope.decl(metadata !1101), !dbg !1100
  switch i64 %118, label %121 [
    i64 0, label %122
    i64 1, label %123
    i64 2, label %131
  ], !dbg !1104

121:                                              ; preds = %115
  unreachable, !dbg !1106

122:                                              ; preds = %115
  br label %131, !dbg !1107

123:                                              ; preds = %115
  %124 = getelementptr inbounds { ptr, ptr }, ptr %33, i64 %120, i32 1, !dbg !1108
  %125 = load ptr, ptr %124, align 8, !dbg !1108, !alias.scope !1110, !noalias !1078, !nonnull !18, !noundef !18
  %126 = icmp eq ptr %125, @_ZN4core3ops8function6FnOnce9call_once17h327a852a215e42d7E, !dbg !1108
  br i1 %126, label %127, label %131, !dbg !1108

127:                                              ; preds = %123
  %128 = getelementptr inbounds { ptr, ptr }, ptr %33, i64 %120, !dbg !1111
  %129 = load ptr, ptr %128, align 8, !dbg !1115, !alias.scope !1110, !noalias !1078, !nonnull !18, !align !32, !noundef !18
  %130 = load i64, ptr %129, align 8, !dbg !1116, !noalias !1117, !noundef !18
  br label %131, !dbg !1118

131:                                              ; preds = %127, %123, %122, %115
  %132 = phi i64 [ %130, %127 ], [ %120, %122 ], [ undef, %115 ], [ undef, %123 ]
  %133 = phi i64 [ 1, %127 ], [ 1, %122 ], [ 0, %115 ], [ 0, %123 ], !dbg !1119
  store i64 %133, ptr %7, align 8, !dbg !1120, !alias.scope !1042, !noalias !1057
  store i64 %132, ptr %35, align 8, !dbg !1120, !alias.scope !1042, !noalias !1057
  %134 = getelementptr inbounds { { i64, i64 }, { i64, i64 }, i64, i32, i32, i8, [7 x i8] }, ptr %68, i64 0, i32 2, !dbg !1121
  %135 = load i64, ptr %134, align 8, !dbg !1121, !alias.scope !1047, !noalias !1055, !noundef !18
  %136 = getelementptr inbounds { ptr, ptr }, ptr %33, i64 %135, !dbg !1123
  %137 = getelementptr inbounds { ptr, ptr }, ptr %33, i64 %135, i32 1, !dbg !1137
  %138 = load ptr, ptr %137, align 8, !dbg !1137, !alias.scope !1049, !noalias !1078, !nonnull !18, !noundef !18
  %139 = load ptr, ptr %136, align 8, !dbg !1142, !alias.scope !1049, !noalias !1078, !nonnull !18, !align !32, !noundef !18
  %140 = call noundef zeroext i1 %138(ptr noundef nonnull align 1 %139, ptr noalias noundef nonnull align 8 dereferenceable(64) %4), !dbg !1137, !noalias !1057
  br i1 %140, label %.loopexit, label %141, !dbg !1143

141:                                              ; preds = %131
  %142 = icmp eq ptr %69, %28, !dbg !935
  br i1 %142, label %.loopexit8, label %66, !dbg !947
}

; Function Attrs: inlinehint mustprogress nofree norecurse nosync nounwind willreturn memory(none) uwtable
define internal void @"_ZN4core3ptr102drop_in_place$LT$$RF$core..iter..adapters..copied..Copied$LT$core..slice..iter..Iter$LT$u8$GT$$GT$$GT$17h92c8610c72cb1f0fE"(ptr noalias nocapture readnone align 8 %0) unnamed_addr #24 !dbg !1144 {
  ret void, !dbg !1145
}

; Function Attrs: inlinehint uwtable
define internal noundef zeroext i1 @"_ZN4core3fmt3num50_$LT$impl$u20$core..fmt..Debug$u20$for$u20$u64$GT$3fmt17h8f953a95108f13a8E"(ptr noalias nocapture noundef readonly align 8 dereferenceable(8) %0, ptr noalias nocapture noundef align 8 dereferenceable(64) %1) unnamed_addr #25 !dbg !1146 {
  %3 = alloca [128 x i8], align 1
  %4 = alloca [39 x i8], align 1
  %5 = alloca [128 x i8], align 1
  %6 = getelementptr inbounds { { i64, i64 }, { i64, i64 }, { ptr, ptr }, i32, i32, i8, [7 x i8] }, ptr %1, i64 0, i32 4, !dbg !1150
  %7 = load i32, ptr %6, align 4, !dbg !1150, !noundef !18
  %8 = and i32 %7, 16, !dbg !1150
  %9 = icmp eq i32 %8, 0, !dbg !1150
  br i1 %9, label %10, label %13, !dbg !1153

10:                                               ; preds = %2
  %11 = and i32 %7, 32, !dbg !1154
  %12 = icmp eq i32 %11, 0, !dbg !1154
  br i1 %12, label %36, label %93, !dbg !1157

13:                                               ; preds = %2
  tail call void @llvm.experimental.noalias.scope.decl(metadata !1158), !dbg !1161
  %14 = load i64, ptr %0, align 8, !dbg !1162, !alias.scope !1158, !noalias !1166, !noundef !18
  call void @llvm.lifetime.start.p0(i64 128, ptr nonnull %5), !dbg !1168, !noalias !1174
  %15 = getelementptr inbounds i8, ptr %5, i64 128, !dbg !1177
  br label %18, !dbg !1197

16:                                               ; preds = %18
  %.lcssa25 = phi i64 [ %21, %18 ], !dbg !1199
  %.lcssa24 = phi i64 [ %29, %18 ], !dbg !1200
  %17 = icmp ugt i64 %.lcssa24, 128, !dbg !1203
  br i1 %17, label %31, label %32, !dbg !1203

18:                                               ; preds = %18, %13
  %19 = phi ptr [ %15, %13 ], [ %22, %18 ], !dbg !1213
  %20 = phi i64 [ %14, %13 ], [ %23, %18 ]
  %21 = phi i64 [ 128, %13 ], [ %29, %18 ], !dbg !1199
  %22 = getelementptr inbounds i8, ptr %19, i64 -1, !dbg !1214
  %23 = lshr i64 %20, 4, !dbg !1242
  %24 = trunc i64 %20 to i8, !dbg !1246
  %25 = and i8 %24, 15, !dbg !1246
  %26 = icmp ult i8 %25, 10, !dbg !1250
  %27 = select i1 %26, i8 48, i8 87, !dbg !1250
  %28 = add nuw nsw i8 %27, %25, !dbg !1254
  store i8 %28, ptr %22, align 1, !dbg !1255, !noalias !1174
  %29 = add nsw i64 %21, -1, !dbg !1200
  %30 = icmp ult i64 %20, 16, !dbg !1262
  br i1 %30, label %16, label %18, !dbg !1266

31:                                               ; preds = %16
  tail call fastcc void @_ZN4core5slice5index24slice_end_index_len_fail17hfdbe95b016e4b961E(i64 noundef %.lcssa24, i64 noundef 128) #33, !dbg !1267
  unreachable, !dbg !1267

32:                                               ; preds = %16
  %33 = sub nuw nsw i64 129, %.lcssa25, !dbg !1268
  %34 = getelementptr inbounds i8, ptr %5, i64 %.lcssa24, !dbg !1279
  %35 = call fastcc noundef zeroext i1 @_ZN4core3fmt9Formatter12pad_integral17hf582ed9d1a8c5990E(ptr noalias noundef nonnull align 8 dereferenceable(64) %1, i1 noundef zeroext true, ptr noalias noundef nonnull readonly align 1 @anon.81eb2ca617e7b492be846be889fa0cc1.317, i64 noundef 2, ptr noalias noundef nonnull readonly align 1 %34, i64 noundef %33), !dbg !1285, !noalias !1158
  call void @llvm.lifetime.end.p0(i64 128, ptr nonnull %5), !dbg !1288, !noalias !1174
  br label %116, !dbg !1161

36:                                               ; preds = %10
  tail call void @llvm.experimental.noalias.scope.decl(metadata !1289), !dbg !1292
  %37 = load i64, ptr %0, align 8, !dbg !1293, !alias.scope !1301, !noalias !1304, !noundef !18
  call void @llvm.lifetime.start.p0(i64 39, ptr nonnull %4), !dbg !1306, !noalias !1310
  %38 = icmp ugt i64 %37, 9999, !dbg !1313
  br i1 %38, label %.preheader, label %.loopexit, !dbg !1313

.loopexit:                                        ; preds = %.preheader, %36
  %39 = phi i64 [ 39, %36 ], [ %53, %.preheader ], !dbg !1319
  %40 = phi i64 [ %37, %36 ], [ %44, %.preheader ]
  %41 = icmp ugt i64 %40, 99, !dbg !1320
  br i1 %41, label %62, label %73, !dbg !1320

.preheader:                                       ; preds = %.preheader, %36
  %42 = phi i64 [ %44, %.preheader ], [ %37, %36 ]
  %43 = phi i64 [ %53, %.preheader ], [ 39, %36 ]
  %44 = udiv i64 %42, 10000, !dbg !1322
  %.neg9 = mul i64 %44, 55536
  %45 = add i64 %.neg9, %42
  %46 = trunc i64 %45 to i16, !dbg !1324
  %47 = udiv i16 %46, 100, !dbg !1324
  %48 = shl nuw nsw i16 %47, 1, !dbg !1324
  %49 = zext i16 %48 to i64, !dbg !1324
  %.neg10 = mul i16 %47, -100
  %50 = add i16 %.neg10, %46
  %51 = shl nuw nsw i16 %50, 1, !dbg !1325
  %52 = zext i16 %51 to i64, !dbg !1325
  %53 = add i64 %43, -4, !dbg !1327
  %54 = getelementptr inbounds i8, ptr @anon.81eb2ca617e7b492be846be889fa0cc1.322, i64 %49, !dbg !1329
  %55 = getelementptr inbounds i8, ptr %4, i64 %53, !dbg !1334
  %56 = load i16, ptr %54, align 1, !dbg !1339, !noalias !1310
  store i16 %56, ptr %55, align 1, !dbg !1339, !noalias !1310
  %57 = getelementptr inbounds i8, ptr @anon.81eb2ca617e7b492be846be889fa0cc1.322, i64 %52, !dbg !1346
  %58 = add nsw i64 %43, -2, !dbg !1350
  %59 = getelementptr inbounds i8, ptr %4, i64 %58, !dbg !1351
  %60 = load i16, ptr %57, align 1, !dbg !1355, !noalias !1310
  store i16 %60, ptr %59, align 1, !dbg !1355, !noalias !1310
  %61 = icmp ugt i64 %42, 99999999, !dbg !1313
  br i1 %61, label %.preheader, label %.loopexit, !dbg !1313

62:                                               ; preds = %.loopexit
  %63 = trunc i64 %40 to i16, !dbg !1359
  %64 = udiv i16 %63, 100, !dbg !1360
  %.neg = mul i16 %64, -100
  %65 = add i16 %.neg, %63
  %66 = shl nuw nsw i16 %65, 1, !dbg !1359
  %67 = zext i16 %66 to i64, !dbg !1359
  %68 = zext i16 %64 to i64, !dbg !1360
  %69 = add i64 %39, -2, !dbg !1362
  %70 = getelementptr inbounds i8, ptr @anon.81eb2ca617e7b492be846be889fa0cc1.322, i64 %67, !dbg !1363
  %71 = getelementptr inbounds i8, ptr %4, i64 %69, !dbg !1367
  %72 = load i16, ptr %70, align 1, !dbg !1371, !noalias !1310
  store i16 %72, ptr %71, align 1, !dbg !1371, !noalias !1310
  br label %73, !dbg !1375

73:                                               ; preds = %62, %.loopexit
  %74 = phi i64 [ %69, %62 ], [ %39, %.loopexit ], !dbg !1319
  %75 = phi i64 [ %68, %62 ], [ %40, %.loopexit ], !dbg !1376
  %76 = icmp ult i64 %75, 10, !dbg !1377
  br i1 %76, label %83, label %77, !dbg !1377

77:                                               ; preds = %73
  %78 = shl nuw nsw i64 %75, 1, !dbg !1378
  %79 = add i64 %74, -2, !dbg !1379
  %80 = getelementptr inbounds i8, ptr @anon.81eb2ca617e7b492be846be889fa0cc1.322, i64 %78, !dbg !1381
  %81 = getelementptr inbounds i8, ptr %4, i64 %79, !dbg !1385
  %82 = load i16, ptr %80, align 1, !dbg !1389, !noalias !1310
  store i16 %82, ptr %81, align 1, !dbg !1389, !noalias !1310
  br label %88, !dbg !1393

83:                                               ; preds = %73
  %84 = add i64 %74, -1, !dbg !1394
  %85 = trunc i64 %75 to i8, !dbg !1395
  %86 = getelementptr inbounds i8, ptr %4, i64 %84, !dbg !1396
  %87 = add nuw nsw i8 %85, 48, !dbg !1400
  store i8 %87, ptr %86, align 1, !dbg !1400, !noalias !1310
  br label %88, !dbg !1393

88:                                               ; preds = %83, %77
  %89 = phi i64 [ %84, %83 ], [ %79, %77 ], !dbg !1401
  %90 = getelementptr inbounds i8, ptr %4, i64 %89, !dbg !1402
  %91 = sub i64 39, %89, !dbg !1407
  %92 = call fastcc noundef zeroext i1 @_ZN4core3fmt9Formatter12pad_integral17hf582ed9d1a8c5990E(ptr noalias noundef nonnull align 8 dereferenceable(64) %1, i1 noundef zeroext true, ptr noalias noundef nonnull readonly align 1 @anon.81eb2ca617e7b492be846be889fa0cc1.2, i64 noundef 0, ptr noalias noundef nonnull readonly align 1 %90, i64 noundef %91), !dbg !1408, !noalias !1289
  call void @llvm.lifetime.end.p0(i64 39, ptr nonnull %4), !dbg !1410, !noalias !1310
  br label %116, !dbg !1292

93:                                               ; preds = %10
  tail call void @llvm.experimental.noalias.scope.decl(metadata !1411), !dbg !1414
  %94 = load i64, ptr %0, align 8, !dbg !1415, !alias.scope !1411, !noalias !1419, !noundef !18
  call void @llvm.lifetime.start.p0(i64 128, ptr nonnull %3), !dbg !1421, !noalias !1426
  %95 = getelementptr inbounds i8, ptr %3, i64 128, !dbg !1429
  br label %98, !dbg !1445

96:                                               ; preds = %98
  %.lcssa23 = phi i64 [ %101, %98 ], !dbg !1447
  %.lcssa22 = phi i64 [ %109, %98 ], !dbg !1448
  %97 = icmp ugt i64 %.lcssa22, 128, !dbg !1451
  br i1 %97, label %111, label %112, !dbg !1451

98:                                               ; preds = %98, %93
  %99 = phi ptr [ %95, %93 ], [ %102, %98 ], !dbg !1461
  %100 = phi i64 [ %94, %93 ], [ %103, %98 ]
  %101 = phi i64 [ 128, %93 ], [ %109, %98 ], !dbg !1447
  %102 = getelementptr inbounds i8, ptr %99, i64 -1, !dbg !1462
  %103 = lshr i64 %100, 4, !dbg !1471
  %104 = trunc i64 %100 to i8, !dbg !1473
  %105 = and i8 %104, 15, !dbg !1473
  %106 = icmp ult i8 %105, 10, !dbg !1475
  %107 = select i1 %106, i8 48, i8 55, !dbg !1475
  %108 = add nuw nsw i8 %107, %105, !dbg !1479
  store i8 %108, ptr %102, align 1, !dbg !1480, !noalias !1426
  %109 = add nsw i64 %101, -1, !dbg !1448
  %110 = icmp ult i64 %100, 16, !dbg !1484
  br i1 %110, label %96, label %98, !dbg !1486

111:                                              ; preds = %96
  tail call fastcc void @_ZN4core5slice5index24slice_end_index_len_fail17hfdbe95b016e4b961E(i64 noundef %.lcssa22, i64 noundef 128) #33, !dbg !1487
  unreachable, !dbg !1487

112:                                              ; preds = %96
  %113 = sub nuw nsw i64 129, %.lcssa23, !dbg !1488
  %114 = getelementptr inbounds i8, ptr %3, i64 %.lcssa22, !dbg !1499
  %115 = call fastcc noundef zeroext i1 @_ZN4core3fmt9Formatter12pad_integral17hf582ed9d1a8c5990E(ptr noalias noundef nonnull align 8 dereferenceable(64) %1, i1 noundef zeroext true, ptr noalias noundef nonnull readonly align 1 @anon.81eb2ca617e7b492be846be889fa0cc1.317, i64 noundef 2, ptr noalias noundef nonnull readonly align 1 %114, i64 noundef %113), !dbg !1505, !noalias !1411
  call void @llvm.lifetime.end.p0(i64 128, ptr nonnull %3), !dbg !1508, !noalias !1426
  br label %116, !dbg !1414

116:                                              ; preds = %112, %88, %32
  %117 = phi i1 [ %35, %32 ], [ %115, %112 ], [ %92, %88 ]
  ret i1 %117, !dbg !1509
}

; Function Attrs: nocallback nofree nosync nounwind speculatable willreturn memory(none)
declare i64 @llvm.ctlz.i64(i64, i1 immarg) #13

; Function Attrs: nofree nosync nounwind uwtable
define internal fastcc noundef nonnull align 8 dereferenceable(168) ptr @_ZN4core3num7flt2dec8strategy6dragon9mul_pow1017ha21a5468f4a74b5fE(ptr noalias noundef returned align 8 dereferenceable(168) %0, i64 noundef %1) unnamed_addr #26 !dbg !1510 {
  %3 = and i64 %1, 7, !dbg !1515
  %4 = icmp eq i64 %3, 0, !dbg !1515
  br i1 %4, label %5, label %8, !dbg !1515

5:                                                ; preds = %39, %2
  %6 = and i64 %1, 8, !dbg !1516
  %7 = icmp eq i64 %6, 0, !dbg !1516
  br i1 %7, label %69, label %41, !dbg !1516

8:                                                ; preds = %2
  %9 = getelementptr inbounds [10 x i32], ptr @anon.81eb2ca617e7b492be846be889fa0cc1.97, i64 0, i64 %3, !dbg !1517
  %10 = load i32, ptr %9, align 4, !dbg !1517, !noundef !18
  %11 = getelementptr inbounds { [40 x i32], i64 }, ptr %0, i64 0, i32 1, !dbg !1518
  %12 = load i64, ptr %11, align 8, !dbg !1518, !alias.scope !1524, !noundef !18
  %13 = icmp ugt i64 %12, 40, !dbg !1527
  br i1 %13, label %14, label %15, !dbg !1527

14:                                               ; preds = %8
  tail call fastcc void @_ZN4core5slice5index24slice_end_index_len_fail17hfdbe95b016e4b961E(i64 noundef %12, i64 noundef 40) #33, !dbg !1544
  unreachable, !dbg !1544

15:                                               ; preds = %8
  %16 = getelementptr inbounds i32, ptr %0, i64 %12, !dbg !1545
  %17 = icmp eq i64 %12, 0, !dbg !1561
  br i1 %17, label %39, label %18, !dbg !1572

18:                                               ; preds = %15
  %19 = zext i32 %10 to i64
  br label %23, !dbg !1572

20:                                               ; preds = %23
  %.lcssa10 = phi i64 [ %32, %23 ], !dbg !1573
  %21 = trunc i64 %.lcssa10 to i32, !dbg !1573
  %22 = icmp eq i32 %21, 0, !dbg !1579
  br i1 %22, label %39, label %34, !dbg !1579

23:                                               ; preds = %23, %18
  %24 = phi i64 [ 0, %18 ], [ %32, %23 ]
  %25 = phi ptr [ %0, %18 ], [ %26, %23 ]
  %26 = getelementptr inbounds i32, ptr %25, i64 1, !dbg !1580
  %27 = load i32, ptr %25, align 4, !dbg !1596, !alias.scope !1524, !noundef !18
  %28 = zext i32 %27 to i64, !dbg !1597
  %29 = mul nuw i64 %28, %19, !dbg !1599
  %30 = add nuw i64 %29, %24, !dbg !1606
  %31 = trunc i64 %30 to i32, !dbg !1573
  %32 = lshr i64 %30, 32, !dbg !1573
  store i32 %31, ptr %25, align 4, !dbg !1612, !alias.scope !1524
  %33 = icmp eq ptr %26, %16, !dbg !1561
  br i1 %33, label %20, label %23, !dbg !1572

34:                                               ; preds = %20
  %35 = icmp ult i64 %12, 40, !dbg !1614
  br i1 %35, label %36, label %38, !dbg !1614, !prof !481

36:                                               ; preds = %34
  store i32 %21, ptr %16, align 4, !dbg !1614, !alias.scope !1524
  %37 = add nuw nsw i64 %12, 1, !dbg !1615
  br label %39, !dbg !1616

38:                                               ; preds = %34
  tail call fastcc void @_ZN4core5slice5index24slice_end_index_len_fail17hfdbe95b016e4b961E(i64 noundef 40, i64 noundef 40) #33, !dbg !1614
  unreachable, !dbg !1614

39:                                               ; preds = %36, %20, %15
  %40 = phi i64 [ %37, %36 ], [ %12, %20 ], [ 0, %15 ], !dbg !1617
  store i64 %40, ptr %11, align 8, !dbg !1618, !alias.scope !1524
  br label %5, !dbg !1619

41:                                               ; preds = %5
  %42 = getelementptr inbounds { [40 x i32], i64 }, ptr %0, i64 0, i32 1, !dbg !1620
  %43 = load i64, ptr %42, align 8, !dbg !1620, !alias.scope !1622, !noundef !18
  %44 = icmp ugt i64 %43, 40, !dbg !1625
  br i1 %44, label %45, label %46, !dbg !1625

45:                                               ; preds = %41
  tail call fastcc void @_ZN4core5slice5index24slice_end_index_len_fail17hfdbe95b016e4b961E(i64 noundef %43, i64 noundef 40) #33, !dbg !1630
  unreachable, !dbg !1630

46:                                               ; preds = %41
  %47 = getelementptr inbounds i32, ptr %0, i64 %43, !dbg !1631
  %48 = icmp eq i64 %43, 0, !dbg !1636
  br i1 %48, label %67, label %.preheader, !dbg !1639

49:                                               ; preds = %.preheader
  %.lcssa = phi i64 [ %60, %.preheader ], !dbg !1640
  %50 = trunc i64 %.lcssa to i32, !dbg !1640
  %51 = icmp eq i32 %50, 0, !dbg !1642
  br i1 %51, label %67, label %62, !dbg !1642

.preheader:                                       ; preds = %.preheader, %46
  %52 = phi i64 [ %60, %.preheader ], [ 0, %46 ]
  %53 = phi ptr [ %54, %.preheader ], [ %0, %46 ]
  %54 = getelementptr inbounds i32, ptr %53, i64 1, !dbg !1643
  %55 = load i32, ptr %53, align 4, !dbg !1647, !alias.scope !1622, !noundef !18
  %56 = zext i32 %55 to i64, !dbg !1648
  %57 = mul nuw nsw i64 %56, 100000000, !dbg !1649
  %58 = add nuw nsw i64 %57, %52, !dbg !1651
  %59 = trunc i64 %58 to i32, !dbg !1640
  %60 = lshr i64 %58, 32, !dbg !1640
  store i32 %59, ptr %53, align 4, !dbg !1653, !alias.scope !1622
  %61 = icmp eq ptr %54, %47, !dbg !1636
  br i1 %61, label %49, label %.preheader, !dbg !1639

62:                                               ; preds = %49
  %63 = icmp ult i64 %43, 40, !dbg !1654
  br i1 %63, label %64, label %66, !dbg !1654, !prof !481

64:                                               ; preds = %62
  store i32 %50, ptr %47, align 4, !dbg !1654, !alias.scope !1622
  %65 = add nuw nsw i64 %43, 1, !dbg !1655
  br label %67, !dbg !1656

66:                                               ; preds = %62
  tail call fastcc void @_ZN4core5slice5index24slice_end_index_len_fail17hfdbe95b016e4b961E(i64 noundef 40, i64 noundef 40) #33, !dbg !1654
  unreachable, !dbg !1654

67:                                               ; preds = %64, %49, %46
  %68 = phi i64 [ %65, %64 ], [ %43, %49 ], [ 0, %46 ], !dbg !1657
  store i64 %68, ptr %42, align 8, !dbg !1658, !alias.scope !1622
  br label %69, !dbg !1659

69:                                               ; preds = %67, %5
  %70 = and i64 %1, 16, !dbg !1660
  %71 = icmp eq i64 %70, 0, !dbg !1660
  br i1 %71, label %74, label %72, !dbg !1660

72:                                               ; preds = %69
  %73 = tail call fastcc noundef align 8 dereferenceable(168) ptr @_ZN4core3num6bignum8Big32x4010mul_digits17h26c02d67354ca13eE(ptr noalias noundef nonnull align 8 dereferenceable(168) %0, ptr noalias noundef nonnull readonly align 4 @_ZN4core3num7flt2dec8strategy6dragon9POW10TO1617h63d2c5acc16b0626E, i64 noundef 2), !dbg !1661
  br label %74, !dbg !1662

74:                                               ; preds = %72, %69
  %75 = and i64 %1, 32, !dbg !1663
  %76 = icmp eq i64 %75, 0, !dbg !1663
  br i1 %76, label %79, label %77, !dbg !1663

77:                                               ; preds = %74
  %78 = tail call fastcc noundef align 8 dereferenceable(168) ptr @_ZN4core3num6bignum8Big32x4010mul_digits17h26c02d67354ca13eE(ptr noalias noundef nonnull align 8 dereferenceable(168) %0, ptr noalias noundef nonnull readonly align 4 @_ZN4core3num7flt2dec8strategy6dragon9POW10TO3217h5db851f6d9e44384E, i64 noundef 4), !dbg !1664
  br label %79, !dbg !1665

79:                                               ; preds = %77, %74
  %80 = and i64 %1, 64, !dbg !1666
  %81 = icmp eq i64 %80, 0, !dbg !1666
  br i1 %81, label %84, label %82, !dbg !1666

82:                                               ; preds = %79
  %83 = tail call fastcc noundef align 8 dereferenceable(168) ptr @_ZN4core3num6bignum8Big32x4010mul_digits17h26c02d67354ca13eE(ptr noalias noundef nonnull align 8 dereferenceable(168) %0, ptr noalias noundef nonnull readonly align 4 @_ZN4core3num7flt2dec8strategy6dragon9POW10TO6417h6dc31d966e6bc033E, i64 noundef 7), !dbg !1667
  br label %84, !dbg !1668

84:                                               ; preds = %82, %79
  %85 = and i64 %1, 128, !dbg !1669
  %86 = icmp eq i64 %85, 0, !dbg !1669
  br i1 %86, label %89, label %87, !dbg !1669

87:                                               ; preds = %84
  %88 = tail call fastcc noundef align 8 dereferenceable(168) ptr @_ZN4core3num6bignum8Big32x4010mul_digits17h26c02d67354ca13eE(ptr noalias noundef nonnull align 8 dereferenceable(168) %0, ptr noalias noundef nonnull readonly align 4 @_ZN4core3num7flt2dec8strategy6dragon10POW10TO12817ha3eb925412edb8d4E, i64 noundef 14), !dbg !1670
  br label %89, !dbg !1671

89:                                               ; preds = %87, %84
  %90 = and i64 %1, 256, !dbg !1672
  %91 = icmp eq i64 %90, 0, !dbg !1672
  br i1 %91, label %94, label %92, !dbg !1672

92:                                               ; preds = %89
  %93 = tail call fastcc noundef align 8 dereferenceable(168) ptr @_ZN4core3num6bignum8Big32x4010mul_digits17h26c02d67354ca13eE(ptr noalias noundef nonnull align 8 dereferenceable(168) %0, ptr noalias noundef nonnull readonly align 4 @_ZN4core3num7flt2dec8strategy6dragon10POW10TO25617h9162a07aef2cbe14E, i64 noundef 27), !dbg !1673
  br label %94, !dbg !1674

94:                                               ; preds = %92, %89
  ret ptr %0, !dbg !1675
}

; Function Attrs: nofree nosync nounwind memory(read, argmem: readwrite, inaccessiblemem: readwrite) uwtable
define internal fastcc noundef nonnull align 8 dereferenceable(168) ptr @_ZN4core3num6bignum8Big32x4010mul_digits17h26c02d67354ca13eE(ptr noalias noundef returned align 8 dereferenceable(168) %0, ptr noalias noundef nonnull readonly align 4 %1, i64 noundef %2) unnamed_addr #27 personality ptr @rust_eh_personality !dbg !1676 {
  %4 = alloca [40 x i32], align 4
  call void @llvm.lifetime.start.p0(i64 160, ptr nonnull %4), !dbg !1677
  call void @llvm.memset.p0.i64(ptr noundef nonnull align 4 dereferenceable(160) %4, i8 0, i64 160, i1 false), !dbg !1678
  %5 = getelementptr inbounds { [40 x i32], i64 }, ptr %0, i64 0, i32 1, !dbg !1679
  %6 = load i64, ptr %5, align 8, !dbg !1679, !noundef !18
  %7 = icmp ult i64 %6, %2, !dbg !1679
  %8 = icmp ugt i64 %6, 40, !dbg !1681
  br i1 %7, label %64, label %9, !dbg !1679

9:                                                ; preds = %3
  br i1 %8, label %10, label %11, !dbg !1695

10:                                               ; preds = %9
  tail call fastcc void @_ZN4core5slice5index24slice_end_index_len_fail17hfdbe95b016e4b961E(i64 noundef %6, i64 noundef 40) #33, !dbg !1701
  unreachable, !dbg !1701

11:                                               ; preds = %9
  tail call void @llvm.experimental.noalias.scope.decl(metadata !1702), !dbg !1705
  tail call void @llvm.experimental.noalias.scope.decl(metadata !1706), !dbg !1705
  tail call void @llvm.experimental.noalias.scope.decl(metadata !1708), !dbg !1705
  %12 = getelementptr inbounds i32, ptr %1, i64 %2, !dbg !1710
  %13 = getelementptr inbounds i32, ptr %0, i64 %6
  %14 = add nuw nsw i64 %6, 1
  br label %15

15:                                               ; preds = %42, %11
  %16 = phi i64 [ %.lcssa78, %42 ], [ 0, %11 ]
  %17 = phi ptr [ %.lcssa79, %42 ], [ %1, %11 ]
  %18 = phi i64 [ %45, %42 ], [ 0, %11 ]
  br label %19, !dbg !1728

19:                                               ; preds = %23, %15
  %20 = phi i64 [ %25, %23 ], [ %16, %15 ], !dbg !1736
  %21 = phi ptr [ %24, %23 ], [ %17, %15 ], !dbg !1736
  %22 = icmp eq ptr %21, %12, !dbg !1737
  br i1 %22, label %.loopexit, label %23, !dbg !1728

23:                                               ; preds = %19
  %24 = getelementptr inbounds i32, ptr %21, i64 1, !dbg !1742
  %25 = add i64 %20, 1, !dbg !1758
  %26 = load i32, ptr %21, align 4, !dbg !1761, !alias.scope !1706, !noalias !1762, !noundef !18
  %27 = icmp eq i32 %26, 0, !dbg !1763
  br i1 %27, label %19, label %28, !dbg !1763

28:                                               ; preds = %23
  %.lcssa79 = phi ptr [ %24, %23 ], !dbg !1742
  %.lcssa78 = phi i64 [ %25, %23 ], !dbg !1758
  %.lcssa77 = phi i32 [ %26, %23 ], !dbg !1761
  %.lcssa76 = phi i64 [ %20, %23 ], !dbg !1736
  %29 = zext i32 %.lcssa77 to i64
  br label %33, !dbg !1765

30:                                               ; preds = %49
  %.lcssa82 = phi i64 [ %60, %49 ], !dbg !1771
  %31 = trunc i64 %.lcssa82 to i32
  %32 = icmp eq i32 %31, 0, !dbg !1777
  br i1 %32, label %42, label %39, !dbg !1777

33:                                               ; preds = %49, %28
  %34 = phi i64 [ 0, %28 ], [ %60, %49 ]
  %35 = phi i64 [ 0, %28 ], [ %50, %49 ]
  %36 = phi ptr [ %0, %28 ], [ %51, %49 ]
  %37 = add nuw nsw i64 %35, %.lcssa76, !dbg !1778
  %38 = icmp ult i64 %37, 40, !dbg !1779
  br i1 %38, label %49, label %63, !dbg !1779, !prof !481

39:                                               ; preds = %30
  %40 = add i64 %.lcssa76, %6, !dbg !1780
  %41 = icmp ult i64 %40, 40, !dbg !1781
  br i1 %41, label %46, label %48, !dbg !1781, !prof !481

42:                                               ; preds = %46, %30
  %43 = phi i64 [ %14, %46 ], [ %6, %30 ], !dbg !1782
  %44 = add i64 %43, %.lcssa76, !dbg !1783
  %45 = tail call i64 @llvm.umax.i64(i64 %18, i64 %44), !dbg !1784
  br label %15, !dbg !1785

46:                                               ; preds = %39
  %47 = getelementptr inbounds [40 x i32], ptr %4, i64 0, i64 %40, !dbg !1781
  store i32 %31, ptr %47, align 4, !dbg !1781, !alias.scope !1702, !noalias !1786
  br label %42, !dbg !1787

48:                                               ; preds = %39
  %.lcssa86 = phi i64 [ %40, %39 ], !dbg !1780
  tail call fastcc void @_ZN4core5slice5index24slice_end_index_len_fail17hfdbe95b016e4b961E(i64 noundef %.lcssa86, i64 noundef 40) #33, !dbg !1781
  unreachable, !dbg !1781

49:                                               ; preds = %33
  %50 = add nuw nsw i64 %35, 1, !dbg !1788
  %51 = getelementptr inbounds i32, ptr %36, i64 1, !dbg !1789
  %52 = load i32, ptr %36, align 4, !dbg !1793, !alias.scope !1708, !noalias !1794, !noundef !18
  %53 = getelementptr inbounds [40 x i32], ptr %4, i64 0, i64 %37, !dbg !1779
  %54 = load i32, ptr %53, align 4, !dbg !1779, !alias.scope !1702, !noalias !1786, !noundef !18
  %55 = zext i32 %52 to i64, !dbg !1795
  %56 = mul nuw i64 %55, %29, !dbg !1796
  %57 = zext i32 %54 to i64, !dbg !1797
  %58 = add nuw nsw i64 %34, %57, !dbg !1796
  %59 = add nuw i64 %58, %56, !dbg !1796
  %60 = lshr i64 %59, 32, !dbg !1771
  %61 = trunc i64 %59 to i32, !dbg !1798
  store i32 %61, ptr %53, align 4, !dbg !1799, !alias.scope !1702, !noalias !1786
  %62 = icmp eq ptr %51, %13, !dbg !1801
  br i1 %62, label %30, label %33, !dbg !1765

63:                                               ; preds = %33
  %.lcssa80 = phi i64 [ %37, %33 ], !dbg !1778
  tail call fastcc void @_ZN4core5slice5index24slice_end_index_len_fail17hfdbe95b016e4b961E(i64 noundef %.lcssa80, i64 noundef 40) #33, !dbg !1779
  unreachable, !dbg !1779

64:                                               ; preds = %3
  br i1 %8, label %65, label %66, !dbg !1803

65:                                               ; preds = %64
  tail call fastcc void @_ZN4core5slice5index24slice_end_index_len_fail17hfdbe95b016e4b961E(i64 noundef %6, i64 noundef 40) #33, !dbg !1809
  unreachable, !dbg !1809

66:                                               ; preds = %64
  tail call void @llvm.experimental.noalias.scope.decl(metadata !1810), !dbg !1813
  tail call void @llvm.experimental.noalias.scope.decl(metadata !1814), !dbg !1813
  tail call void @llvm.experimental.noalias.scope.decl(metadata !1816), !dbg !1813
  %67 = getelementptr inbounds i32, ptr %0, i64 %6, !dbg !1818
  %68 = getelementptr inbounds i32, ptr %1, i64 %2
  %69 = add nuw nsw i64 %2, 1
  br label %70, !dbg !1823

70:                                               ; preds = %97, %66
  %71 = phi i64 [ %.lcssa67, %97 ], [ 0, %66 ]
  %72 = phi ptr [ %.lcssa68, %97 ], [ %0, %66 ]
  %73 = phi i64 [ %100, %97 ], [ 0, %66 ]
  br label %74, !dbg !1826

74:                                               ; preds = %78, %70
  %75 = phi i64 [ %80, %78 ], [ %71, %70 ], !dbg !1829
  %76 = phi ptr [ %79, %78 ], [ %72, %70 ], !dbg !1829
  %77 = icmp eq ptr %76, %67, !dbg !1830
  br i1 %77, label %.loopexit, label %78, !dbg !1826

78:                                               ; preds = %74
  %79 = getelementptr inbounds i32, ptr %76, i64 1, !dbg !1832
  %80 = add i64 %75, 1, !dbg !1836
  %81 = load i32, ptr %76, align 4, !dbg !1837, !alias.scope !1814, !noalias !1838, !noundef !18
  %82 = icmp eq i32 %81, 0, !dbg !1839
  br i1 %82, label %74, label %83, !dbg !1839

83:                                               ; preds = %78
  %.lcssa68 = phi ptr [ %79, %78 ], !dbg !1832
  %.lcssa67 = phi i64 [ %80, %78 ], !dbg !1836
  %.lcssa66 = phi i32 [ %81, %78 ], !dbg !1837
  %.lcssa65 = phi i64 [ %75, %78 ], !dbg !1829
  %84 = zext i32 %.lcssa66 to i64
  br label %88, !dbg !1823

85:                                               ; preds = %104
  %.lcssa70 = phi i64 [ %115, %104 ], !dbg !1840
  %86 = trunc i64 %.lcssa70 to i32
  %87 = icmp eq i32 %86, 0, !dbg !1842
  br i1 %87, label %97, label %94, !dbg !1842

88:                                               ; preds = %104, %83
  %89 = phi i64 [ 0, %83 ], [ %115, %104 ]
  %90 = phi i64 [ 0, %83 ], [ %105, %104 ]
  %91 = phi ptr [ %1, %83 ], [ %106, %104 ]
  %92 = add nuw nsw i64 %90, %.lcssa65, !dbg !1843
  %93 = icmp ult i64 %92, 40, !dbg !1844
  br i1 %93, label %104, label %118, !dbg !1844, !prof !481

94:                                               ; preds = %85
  %95 = add i64 %.lcssa65, %2, !dbg !1845
  %96 = icmp ult i64 %95, 40, !dbg !1846
  br i1 %96, label %101, label %103, !dbg !1846, !prof !481

97:                                               ; preds = %101, %85
  %98 = phi i64 [ %69, %101 ], [ %2, %85 ], !dbg !1847
  %99 = add i64 %98, %.lcssa65, !dbg !1848
  %100 = tail call i64 @llvm.umax.i64(i64 %73, i64 %99), !dbg !1849
  br label %70, !dbg !1850

101:                                              ; preds = %94
  %102 = getelementptr inbounds [40 x i32], ptr %4, i64 0, i64 %95, !dbg !1846
  store i32 %86, ptr %102, align 4, !dbg !1846, !alias.scope !1810, !noalias !1851
  br label %97, !dbg !1852

103:                                              ; preds = %94
  %.lcssa74 = phi i64 [ %95, %94 ], !dbg !1845
  tail call fastcc void @_ZN4core5slice5index24slice_end_index_len_fail17hfdbe95b016e4b961E(i64 noundef %.lcssa74, i64 noundef 40) #33, !dbg !1846
  unreachable, !dbg !1846

104:                                              ; preds = %88
  %105 = add nuw nsw i64 %90, 1, !dbg !1853
  %106 = getelementptr inbounds i32, ptr %91, i64 1, !dbg !1854
  %107 = load i32, ptr %91, align 4, !dbg !1858, !alias.scope !1816, !noalias !1859, !noundef !18
  %108 = getelementptr inbounds [40 x i32], ptr %4, i64 0, i64 %92, !dbg !1844
  %109 = load i32, ptr %108, align 4, !dbg !1844, !alias.scope !1810, !noalias !1851, !noundef !18
  %110 = zext i32 %107 to i64, !dbg !1860
  %111 = mul nuw i64 %110, %84, !dbg !1861
  %112 = zext i32 %109 to i64, !dbg !1862
  %113 = add nuw nsw i64 %89, %112, !dbg !1861
  %114 = add nuw i64 %113, %111, !dbg !1861
  %115 = lshr i64 %114, 32, !dbg !1840
  %116 = trunc i64 %114 to i32, !dbg !1863
  store i32 %116, ptr %108, align 4, !dbg !1864, !alias.scope !1810, !noalias !1851
  %117 = icmp eq ptr %106, %68, !dbg !1865
  br i1 %117, label %85, label %88, !dbg !1823

118:                                              ; preds = %88
  %.lcssa = phi i64 [ %92, %88 ], !dbg !1843
  tail call fastcc void @_ZN4core5slice5index24slice_end_index_len_fail17hfdbe95b016e4b961E(i64 noundef %.lcssa, i64 noundef 40) #33, !dbg !1844
  unreachable, !dbg !1844

.loopexit:                                        ; preds = %74, %19
  %119 = phi i64 [ %73, %74 ], [ %18, %19 ], !dbg !1694
  call void @llvm.memcpy.p0.p0.i64(ptr noundef nonnull align 8 dereferenceable(160) %0, ptr noundef nonnull align 4 dereferenceable(160) %4, i64 160, i1 false), !dbg !1867
  store i64 %119, ptr %5, align 8, !dbg !1869
  call void @llvm.lifetime.end.p0(i64 160, ptr nonnull %4), !dbg !1870
  ret ptr %0, !dbg !1871
}

; Function Attrs: nocallback nofree nosync nounwind speculatable willreturn memory(none)
declare i64 @llvm.umax.i64(i64, i64) #13

; Function Attrs: nofree nosync nounwind memory(argmem: readwrite) uwtable
define internal fastcc noundef nonnull align 8 dereferenceable(168) ptr @_ZN4core3num6bignum8Big32x408mul_pow217hb09feeffb1279cefE(ptr noalias noundef returned align 8 dereferenceable(168) %0, i64 noundef %1) unnamed_addr #22 !dbg !1872 {
  %3 = lshr i64 %1, 5, !dbg !1873
  %4 = and i64 %1, 31, !dbg !1875
  %5 = icmp ult i64 %1, 1280, !dbg !1877
  br i1 %5, label %7, label %6, !dbg !1877

6:                                                ; preds = %2
  tail call fastcc void @_ZN4core9panicking5panic17hca9af9b940213a79E(ptr noalias noundef nonnull readonly align 1 @anon.81eb2ca617e7b492be846be889fa0cc1.489, i64 noundef 29) #33, !dbg !1879
  unreachable, !dbg !1879

7:                                                ; preds = %2
  %8 = getelementptr inbounds { [40 x i32], i64 }, ptr %0, i64 0, i32 1, !dbg !1880
  %9 = load i64, ptr %8, align 8, !dbg !1880, !noundef !18
  %10 = icmp eq i64 %9, 0, !dbg !1881
  br i1 %10, label %.loopexit11, label %11, !dbg !1894

11:                                               ; preds = %7
  %12 = icmp ult i64 %9, 41, !dbg !1895
  br label %17, !dbg !1895

.loopexit11:                                      ; preds = %70, %7
  %13 = icmp ult i64 %1, 32, !dbg !1897
  br i1 %13, label %20, label %14, !dbg !1900

14:                                               ; preds = %.loopexit11
  %15 = tail call i64 @llvm.umax.i64(i64 %3, i64 1), !dbg !1900
  %16 = shl nuw nsw i64 %15, 2, !dbg !1900
  tail call void @llvm.memset.p0.i64(ptr noundef nonnull align 8 dereferenceable(1) %0, i8 0, i64 %16, i1 false), !dbg !1908
  br label %20, !dbg !1910

17:                                               ; preds = %70, %11
  %18 = phi i64 [ %19, %70 ], [ %9, %11 ]
  %19 = add i64 %18, -1, !dbg !1911
  br i1 %12, label %66, label %69, !dbg !1895, !prof !481

20:                                               ; preds = %14, %.loopexit11
  %21 = load i64, ptr %8, align 8, !dbg !1910, !noundef !18
  %22 = add i64 %21, %3, !dbg !1910
  %23 = icmp eq i64 %4, 0, !dbg !1921
  br i1 %23, label %24, label %26, !dbg !1921

24:                                               ; preds = %.loopexit, %20
  %25 = phi i64 [ %39, %.loopexit ], [ %22, %20 ], !dbg !1923
  store i64 %25, ptr %8, align 8, !dbg !1924
  ret ptr %0, !dbg !1925

26:                                               ; preds = %20
  %27 = add i64 %22, -1, !dbg !1926
  %28 = icmp ult i64 %27, 40, !dbg !1928
  br i1 %28, label %29, label %37, !dbg !1928, !prof !481

29:                                               ; preds = %26
  %30 = getelementptr inbounds [40 x i32], ptr %0, i64 0, i64 %27, !dbg !1928
  %31 = load i32, ptr %30, align 4, !dbg !1928, !noundef !18
  %32 = trunc i64 %1 to i32, !dbg !1928
  %33 = sub nsw i32 0, %32, !dbg !1928
  %34 = and i32 %33, 31, !dbg !1928
  %35 = lshr i32 %31, %34, !dbg !1928
  %36 = icmp eq i32 %35, 0, !dbg !1929
  br i1 %36, label %38, label %43, !dbg !1929

37:                                               ; preds = %26
  tail call fastcc void @_ZN4core5slice5index24slice_end_index_len_fail17hfdbe95b016e4b961E(i64 noundef %27, i64 noundef 40) #33, !dbg !1928
  unreachable, !dbg !1928

38:                                               ; preds = %45, %29
  %39 = phi i64 [ %47, %45 ], [ %22, %29 ], !dbg !1923
  %40 = add nuw nsw i64 %3, 1, !dbg !1931
  %41 = icmp ult i64 %40, %22, !dbg !1932
  %42 = and i32 %32, 31
  br i1 %41, label %.preheader, label %.loopexit, !dbg !1940

43:                                               ; preds = %29
  %44 = icmp ult i64 %22, 40, !dbg !1941
  br i1 %44, label %45, label %48, !dbg !1941, !prof !481

45:                                               ; preds = %43
  %46 = getelementptr inbounds [40 x i32], ptr %0, i64 0, i64 %22, !dbg !1941
  store i32 %35, ptr %46, align 4, !dbg !1941
  %47 = add nuw nsw i64 %22, 1, !dbg !1942
  br label %38, !dbg !1943

48:                                               ; preds = %43
  tail call fastcc void @_ZN4core5slice5index24slice_end_index_len_fail17hfdbe95b016e4b961E(i64 noundef %22, i64 noundef 40) #33, !dbg !1941
  unreachable, !dbg !1941

.loopexit:                                        ; preds = %57, %38
  %49 = getelementptr inbounds [40 x i32], ptr %0, i64 0, i64 %3, !dbg !1944
  %50 = load i32, ptr %49, align 4, !dbg !1944, !noundef !18
  %51 = shl i32 %50, %42, !dbg !1944
  store i32 %51, ptr %49, align 4, !dbg !1944
  br label %24, !dbg !1945

.preheader:                                       ; preds = %57, %38
  %52 = phi i32 [ %62, %57 ], [ %31, %38 ]
  %53 = phi i64 [ %58, %57 ], [ %22, %38 ]
  %54 = add nsw i64 %53, -2, !dbg !1946
  %55 = icmp ult i64 %54, 40, !dbg !1948
  br i1 %55, label %57, label %56, !dbg !1948, !prof !481

56:                                               ; preds = %.preheader
  tail call fastcc void @_ZN4core5slice5index24slice_end_index_len_fail17hfdbe95b016e4b961E(i64 noundef -1, i64 noundef 40) #33, !dbg !1948
  unreachable, !dbg !1948

57:                                               ; preds = %.preheader
  %58 = add nsw i64 %53, -1, !dbg !1949
  %59 = getelementptr inbounds [40 x i32], ptr %0, i64 0, i64 %58, !dbg !1952
  %60 = shl i32 %52, %42, !dbg !1953
  %61 = getelementptr inbounds [40 x i32], ptr %0, i64 0, i64 %54, !dbg !1948
  %62 = load i32, ptr %61, align 4, !dbg !1948, !noundef !18
  %63 = lshr i32 %62, %34, !dbg !1954
  %64 = or i32 %63, %60, !dbg !1955
  store i32 %64, ptr %59, align 4, !dbg !1955
  %65 = icmp ult i64 %40, %58, !dbg !1932
  br i1 %65, label %.preheader, label %.loopexit, !dbg !1940

66:                                               ; preds = %17
  %67 = add nuw nsw i64 %19, %3, !dbg !1956
  %68 = icmp ult i64 %67, 40, !dbg !1957
  br i1 %68, label %70, label %75, !dbg !1957, !prof !481

69:                                               ; preds = %17
  %.lcssa = phi i64 [ %19, %17 ], !dbg !1911
  tail call fastcc void @_ZN4core5slice5index24slice_end_index_len_fail17hfdbe95b016e4b961E(i64 noundef %.lcssa, i64 noundef 40) #33, !dbg !1895
  unreachable, !dbg !1895

70:                                               ; preds = %66
  %71 = getelementptr inbounds [40 x i32], ptr %0, i64 0, i64 %19, !dbg !1895
  %72 = load i32, ptr %71, align 4, !dbg !1895, !noundef !18
  %73 = getelementptr inbounds [40 x i32], ptr %0, i64 0, i64 %67, !dbg !1957
  store i32 %72, ptr %73, align 4, !dbg !1957
  %74 = icmp eq i64 %19, 0, !dbg !1881
  br i1 %74, label %.loopexit11, label %17, !dbg !1894

75:                                               ; preds = %66
  %.lcssa22 = phi i64 [ %67, %66 ], !dbg !1956
  tail call fastcc void @_ZN4core5slice5index24slice_end_index_len_fail17hfdbe95b016e4b961E(i64 noundef %.lcssa22, i64 noundef 40) #33, !dbg !1957
  unreachable, !dbg !1957
}

; Function Attrs: nocallback nofree nosync nounwind speculatable willreturn memory(none)
declare { i32, i1 } @llvm.uadd.with.overflow.i32(i32, i32) #13

; Function Attrs: nofree nosync nounwind memory(read, argmem: readwrite, inaccessiblemem: readwrite) uwtable
define internal fastcc void @_ZN4core3num7flt2dec8strategy5grisu16format_exact_opt14possibly_round17h9b4c5367b48ecb63E(ptr noalias nocapture noundef writeonly align 8 dereferenceable(24) %0, ptr noalias noundef nonnull align 1 %1, i64 noundef %2, i64 noundef %3, i16 noundef %4, i16 noundef %5, i64 noundef %6, i64 noundef %7, i64 noundef %8) unnamed_addr #27 personality ptr @rust_eh_personality !dbg !1958 {
  %10 = icmp ult i64 %8, %7, !dbg !1962
  br i1 %10, label %11, label %14, !dbg !1962

11:                                               ; preds = %9
  %12 = sub i64 %7, %8, !dbg !1963
  %13 = icmp ugt i64 %12, %8, !dbg !1963
  br i1 %13, label %15, label %18, !dbg !1963

14:                                               ; preds = %9
  store ptr null, ptr %0, align 8, !dbg !1964
  br label %68, !dbg !1965

15:                                               ; preds = %11
  %16 = sub i64 %7, %6, !dbg !1967
  %17 = icmp ugt i64 %16, %6, !dbg !1967
  br i1 %17, label %19, label %24, !dbg !1967

18:                                               ; preds = %11
  store ptr null, ptr %0, align 8, !dbg !1968
  br label %68, !dbg !1965

19:                                               ; preds = %15
  %20 = shl i64 %6, 1, !dbg !1969
  %21 = sub i64 %7, %20, !dbg !1970
  %22 = shl i64 %8, 1, !dbg !1971
  %23 = icmp ult i64 %21, %22, !dbg !1970
  br i1 %23, label %24, label %26, !dbg !1970

24:                                               ; preds = %19, %15
  %25 = icmp ugt i64 %6, %8, !dbg !1972
  br i1 %25, label %33, label %32, !dbg !1972

26:                                               ; preds = %19
  %27 = icmp ugt i64 %3, %2, !dbg !1973
  br i1 %27, label %28, label %29, !dbg !1973

28:                                               ; preds = %26
  tail call fastcc void @_ZN4core5slice5index24slice_end_index_len_fail17hfdbe95b016e4b961E(i64 noundef %3, i64 noundef %2) #33, !dbg !1983
  unreachable, !dbg !1983

29:                                               ; preds = %26
  store ptr %1, ptr %0, align 8, !dbg !1984
  %30 = getelementptr inbounds i8, ptr %0, i64 8, !dbg !1984
  store i64 %3, ptr %30, align 8, !dbg !1984
  %31 = getelementptr inbounds i8, ptr %0, i64 16, !dbg !1984
  store i16 %4, ptr %31, align 8, !dbg !1984
  br label %68, !dbg !1965

32:                                               ; preds = %33, %24
  store ptr null, ptr %0, align 8, !dbg !1985
  br label %68, !dbg !1986

33:                                               ; preds = %24
  %34 = sub i64 %6, %8, !dbg !1987
  %35 = sub i64 %7, %34, !dbg !1988
  %36 = icmp ugt i64 %35, %34, !dbg !1988
  br i1 %36, label %32, label %37, !dbg !1988

37:                                               ; preds = %33
  %38 = icmp ugt i64 %3, %2, !dbg !1989
  br i1 %38, label %39, label %40, !dbg !1989

39:                                               ; preds = %37
  tail call fastcc void @_ZN4core5slice5index24slice_end_index_len_fail17hfdbe95b016e4b961E(i64 noundef %3, i64 noundef %2) #33, !dbg !2000
  unreachable, !dbg !2000

40:                                               ; preds = %37
  %41 = getelementptr inbounds i8, ptr %1, i64 %3, !dbg !2001
  br label %42, !dbg !2017

42:                                               ; preds = %47, %40
  %43 = phi i64 [ %52, %47 ], [ 0, %40 ]
  %44 = phi ptr [ %48, %47 ], [ %41, %40 ]
  %45 = phi i64 [ %49, %47 ], [ %3, %40 ], !dbg !2022
  %46 = icmp eq ptr %44, %1, !dbg !2023
  br i1 %46, label %53, label %47, !dbg !2034

47:                                               ; preds = %42
  %48 = getelementptr inbounds i8, ptr %44, i64 -1, !dbg !2035
  %49 = add i64 %45, -1, !dbg !2053
  %50 = load i8, ptr %48, align 1, !dbg !2054, !alias.scope !2055, !noalias !2058, !noundef !18
  %51 = icmp eq i8 %50, 57, !dbg !2061
  %52 = add i64 %43, 1, !dbg !2054
  br i1 %51, label %42, label %55, !dbg !2054

53:                                               ; preds = %42
  %54 = icmp eq i64 %3, 0, !dbg !2066
  br i1 %54, label %69, label %63, !dbg !2066

55:                                               ; preds = %47
  %.lcssa26 = phi i64 [ %49, %47 ], !dbg !2053
  %.lcssa25 = phi i64 [ %43, %47 ]
  %.lcssa23 = phi i64 [ %45, %47 ], !dbg !2022
  %56 = icmp ult i64 %.lcssa26, %3, !dbg !2067
  tail call void @llvm.assume(i1 %56), !dbg !2069
  %57 = getelementptr inbounds [0 x i8], ptr %1, i64 0, i64 %.lcssa26, !dbg !2070
  %58 = load i8, ptr %57, align 1, !dbg !2070, !alias.scope !2055, !noundef !18
  %59 = add i8 %58, 1, !dbg !2070
  store i8 %59, ptr %57, align 1, !dbg !2070, !alias.scope !2055
  %60 = icmp ult i64 %.lcssa23, %3, !dbg !2072
  br i1 %60, label %61, label %75, !dbg !2083

61:                                               ; preds = %55
  %62 = getelementptr i8, ptr %1, i64 %.lcssa23, !dbg !2083
  tail call void @llvm.memset.p0.i64(ptr align 1 %62, i8 48, i64 %.lcssa25, i1 false), !dbg !2084, !alias.scope !2055
  br label %75, !dbg !2086

63:                                               ; preds = %53
  store i8 49, ptr %1, align 1, !dbg !2087, !alias.scope !2055
  %64 = icmp eq i64 %3, 1, !dbg !2088
  br i1 %64, label %69, label %65, !dbg !2096

65:                                               ; preds = %63
  %66 = getelementptr i8, ptr %1, i64 1, !dbg !2096
  %67 = add nsw i64 %3, -1, !dbg !2096
  tail call void @llvm.memset.p0.i64(ptr align 1 %66, i8 48, i64 %67, i1 false), !dbg !2097, !alias.scope !2055
  br label %69, !dbg !2086

68:                                               ; preds = %80, %32, %29, %18, %14
  ret void, !dbg !1986

69:                                               ; preds = %65, %63, %53
  %70 = phi i8 [ 48, %65 ], [ 48, %63 ], [ 49, %53 ]
  %71 = add i16 %4, 1, !dbg !2099
  %72 = icmp sgt i16 %71, %5, !dbg !2100
  %73 = icmp ult i64 %3, %2
  %74 = and i1 %73, %72, !dbg !2100
  br i1 %74, label %83, label %75, !dbg !2100

75:                                               ; preds = %83, %69, %61, %55
  %76 = phi i16 [ %71, %83 ], [ %71, %69 ], [ %4, %55 ], [ %4, %61 ]
  %77 = phi i64 [ %84, %83 ], [ %3, %69 ], [ %3, %55 ], [ %3, %61 ]
  %78 = icmp ugt i64 %77, %2, !dbg !2101
  br i1 %78, label %79, label %80, !dbg !2101

79:                                               ; preds = %75
  tail call fastcc void @_ZN4core5slice5index24slice_end_index_len_fail17hfdbe95b016e4b961E(i64 noundef %77, i64 noundef %2) #33, !dbg !2108
  unreachable, !dbg !2108

80:                                               ; preds = %75
  store ptr %1, ptr %0, align 8, !dbg !2109
  %81 = getelementptr inbounds i8, ptr %0, i64 8, !dbg !2109
  store i64 %77, ptr %81, align 8, !dbg !2109
  %82 = getelementptr inbounds i8, ptr %0, i64 16, !dbg !2109
  store i16 %76, ptr %82, align 8, !dbg !2109
  br label %68, !dbg !1965

83:                                               ; preds = %69
  store i8 %70, ptr %41, align 1, !dbg !2110
  %84 = add nuw nsw i64 %3, 1, !dbg !2111
  br label %75, !dbg !2112
}

; Function Attrs: nofree norecurse nosync nounwind memory(argmem: readwrite) uwtable
define internal fastcc { ptr, i64 } @_ZN4core3num7flt2dec17digits_to_dec_str17hc891497339572ed1E(ptr noalias noundef nonnull readonly align 1 %0, i64 noundef %1, i16 noundef %2, i64 noundef %3, ptr noalias noundef nonnull align 8 %4) unnamed_addr #28 !dbg !2113 {
  %6 = icmp eq i64 %1, 0, !dbg !2114
  br i1 %6, label %7, label %8, !dbg !2114

7:                                                ; preds = %5
  tail call fastcc void @_ZN4core9panicking5panic17hca9af9b940213a79E(ptr noalias noundef nonnull readonly align 1 @anon.81eb2ca617e7b492be846be889fa0cc1.91, i64 noundef 33) #33, !dbg !2115
  unreachable, !dbg !2115

8:                                                ; preds = %5
  %9 = load i8, ptr %0, align 1, !dbg !2116, !noundef !18
  %10 = icmp ugt i8 %9, 48, !dbg !2116
  br i1 %10, label %12, label %11, !dbg !2116

11:                                               ; preds = %8
  tail call fastcc void @_ZN4core9panicking5panic17hca9af9b940213a79E(ptr noalias noundef nonnull readonly align 1 @anon.81eb2ca617e7b492be846be889fa0cc1.106, i64 noundef 33) #33, !dbg !2117
  unreachable, !dbg !2117

12:                                               ; preds = %8
  %13 = icmp slt i16 %2, 1, !dbg !2118
  br i1 %13, label %19, label %14, !dbg !2118

14:                                               ; preds = %12
  %15 = zext i16 %2 to i64
  %16 = icmp ult i64 %15, %1, !dbg !2119
  %17 = getelementptr inbounds i8, ptr %4, i64 8, !dbg !2121
  %18 = getelementptr inbounds i8, ptr %4, i64 16, !dbg !2121
  store i16 2, ptr %4, align 8, !dbg !2121
  store ptr %0, ptr %17, align 8, !dbg !2121
  br i1 %16, label %38, label %33, !dbg !2119

19:                                               ; preds = %12
  %20 = sext i16 %2 to i64, !dbg !2122
  %21 = sub nsw i64 0, %20, !dbg !2123
  store i16 2, ptr %4, align 8, !dbg !2124
  %22 = getelementptr inbounds i8, ptr %4, i64 8, !dbg !2124
  store ptr @anon.81eb2ca617e7b492be846be889fa0cc1.111, ptr %22, align 8, !dbg !2124
  %23 = getelementptr inbounds i8, ptr %4, i64 16, !dbg !2124
  store i64 2, ptr %23, align 8, !dbg !2124
  %24 = getelementptr inbounds [0 x { [3 x i64] }], ptr %4, i64 0, i64 1, !dbg !2126
  store i16 0, ptr %24, align 8, !dbg !2126
  %25 = getelementptr inbounds [0 x { [3 x i64] }], ptr %4, i64 0, i64 1, i32 0, i64 1, !dbg !2126
  store i64 %21, ptr %25, align 8, !dbg !2126
  %26 = getelementptr inbounds [0 x { [3 x i64] }], ptr %4, i64 0, i64 2, !dbg !2127
  store i16 2, ptr %26, align 8, !dbg !2127
  %27 = getelementptr inbounds [0 x { [3 x i64] }], ptr %4, i64 0, i64 2, i32 0, i64 1, !dbg !2127
  store ptr %0, ptr %27, align 8, !dbg !2127
  %28 = getelementptr inbounds [0 x { [3 x i64] }], ptr %4, i64 0, i64 2, i32 0, i64 2, !dbg !2127
  store i64 %1, ptr %28, align 8, !dbg !2127
  %29 = icmp ugt i64 %3, %1, !dbg !2128
  %30 = sub i64 %3, %1
  %31 = icmp ugt i64 %30, %21
  %32 = and i1 %29, %31, !dbg !2128
  br i1 %32, label %62, label %58, !dbg !2128

33:                                               ; preds = %14
  store i64 %1, ptr %18, align 8, !dbg !2129
  %34 = sub nsw i64 %15, %1, !dbg !2130
  %35 = getelementptr inbounds [0 x { [3 x i64] }], ptr %4, i64 0, i64 1, !dbg !2131
  store i16 0, ptr %35, align 8, !dbg !2131
  %36 = getelementptr inbounds [0 x { [3 x i64] }], ptr %4, i64 0, i64 1, i32 0, i64 1, !dbg !2131
  store i64 %34, ptr %36, align 8, !dbg !2131
  %37 = icmp eq i64 %3, 0, !dbg !2132
  br i1 %37, label %58, label %48, !dbg !2132

38:                                               ; preds = %14
  store i64 %15, ptr %18, align 8, !dbg !2133
  %39 = getelementptr inbounds [0 x { [3 x i64] }], ptr %4, i64 0, i64 1, !dbg !2134
  store i16 2, ptr %39, align 8, !dbg !2134
  %40 = getelementptr inbounds [0 x { [3 x i64] }], ptr %4, i64 0, i64 1, i32 0, i64 1, !dbg !2134
  store ptr @anon.81eb2ca617e7b492be846be889fa0cc1.110, ptr %40, align 8, !dbg !2134
  %41 = getelementptr inbounds [0 x { [3 x i64] }], ptr %4, i64 0, i64 1, i32 0, i64 2, !dbg !2134
  store i64 1, ptr %41, align 8, !dbg !2134
  %42 = sub i64 %1, %15, !dbg !2135
  %43 = getelementptr inbounds i8, ptr %0, i64 %15, !dbg !2152
  %44 = getelementptr inbounds [0 x { [3 x i64] }], ptr %4, i64 0, i64 2, !dbg !2158
  store i16 2, ptr %44, align 8, !dbg !2158
  %45 = getelementptr inbounds [0 x { [3 x i64] }], ptr %4, i64 0, i64 2, i32 0, i64 1, !dbg !2158
  store ptr %43, ptr %45, align 8, !dbg !2158
  %46 = getelementptr inbounds [0 x { [3 x i64] }], ptr %4, i64 0, i64 2, i32 0, i64 2, !dbg !2158
  store i64 %42, ptr %46, align 8, !dbg !2158
  %47 = icmp ult i64 %42, %3, !dbg !2159
  br i1 %47, label %52, label %58, !dbg !2159

48:                                               ; preds = %33
  %49 = getelementptr inbounds [0 x { [3 x i64] }], ptr %4, i64 0, i64 2, !dbg !2160
  store i16 2, ptr %49, align 8, !dbg !2160
  %50 = getelementptr inbounds [0 x { [3 x i64] }], ptr %4, i64 0, i64 2, i32 0, i64 1, !dbg !2160
  store ptr @anon.81eb2ca617e7b492be846be889fa0cc1.110, ptr %50, align 8, !dbg !2160
  %51 = getelementptr inbounds [0 x { [3 x i64] }], ptr %4, i64 0, i64 2, i32 0, i64 2, !dbg !2160
  store i64 1, ptr %51, align 8, !dbg !2160
  br label %54, !dbg !2161

52:                                               ; preds = %38
  %53 = sub i64 %3, %42, !dbg !2162
  br label %54, !dbg !2163

54:                                               ; preds = %62, %52, %48
  %55 = phi i64 [ %63, %62 ], [ %53, %52 ], [ %3, %48 ]
  %56 = getelementptr inbounds [0 x { [3 x i64] }], ptr %4, i64 0, i64 3, !dbg !2164
  store i16 0, ptr %56, align 8, !dbg !2164
  %57 = getelementptr inbounds [0 x { [3 x i64] }], ptr %4, i64 0, i64 3, i32 0, i64 1, !dbg !2164
  store i64 %55, ptr %57, align 8, !dbg !2164
  br label %58, !dbg !2165

58:                                               ; preds = %54, %38, %33, %19
  %59 = phi i64 [ 2, %33 ], [ 3, %38 ], [ 3, %19 ], [ 4, %54 ]
  %60 = insertvalue { ptr, i64 } undef, ptr %4, 0, !dbg !2165
  %61 = insertvalue { ptr, i64 } %60, i64 %59, 1, !dbg !2165
  ret { ptr, i64 } %61, !dbg !2171

62:                                               ; preds = %19
  %63 = add i64 %30, %20, !dbg !2172
  br label %54, !dbg !2173
}

; Function Attrs: nocallback nofree nosync nounwind speculatable willreturn memory(none)
declare i8 @llvm.umin.i8(i8, i8) #13

; Function Attrs: nofree nosync nounwind memory(argmem: readwrite, inaccessiblemem: readwrite) uwtable
define internal fastcc void @_ZN4core3ffi5c_str4CStr6to_str17h9b0c460b7d7bc8d5E(ptr noalias nocapture noundef writeonly align 8 dereferenceable(24) %0, ptr noalias noundef nonnull readonly align 1 %1, i64 noundef %2) unnamed_addr #18 !dbg !2174 {
  %4 = add i64 %2, -1, !dbg !2179
  tail call void @llvm.experimental.noalias.scope.decl(metadata !2185), !dbg !2188
  tail call void @llvm.experimental.noalias.scope.decl(metadata !2189), !dbg !2188
  tail call void @llvm.experimental.noalias.scope.decl(metadata !2191), !dbg !2194
  %5 = tail call i64 @llvm.usub.sat.i64(i64 %4, i64 15), !dbg !2199
  %6 = ptrtoint ptr %1 to i64, !dbg !2206
  %7 = add i64 %6, 7, !dbg !2215
  %8 = and i64 %7, -8, !dbg !2215
  %9 = sub i64 %8, %6, !dbg !2219
  %10 = icmp ult i64 %9, 8, !dbg !2221
  tail call void @llvm.assume(i1 %10), !dbg !2224
  %11 = icmp eq i64 %4, 0, !dbg !2225
  br i1 %11, label %.loopexit1, label %.preheader4, !dbg !2225

.preheader4:                                      ; preds = %.loopexit, %3
  %12 = phi i64 [ %44, %.loopexit ], [ 0, %3 ]
  %13 = getelementptr inbounds [0 x i8], ptr %1, i64 0, i64 %12, !dbg !2227
  %14 = load i8, ptr %13, align 1, !dbg !2227, !alias.scope !2229, !noalias !2230, !noundef !18
  %15 = icmp slt i8 %14, 0, !dbg !2232
  br i1 %15, label %46, label %16, !dbg !2232

16:                                               ; preds = %.preheader4
  %17 = sub i64 %9, %12, !dbg !2234
  %18 = and i64 %17, 7, !dbg !2239
  %19 = icmp eq i64 %18, 0, !dbg !2239
  br i1 %19, label %20, label %22, !dbg !2239

20:                                               ; preds = %16
  %21 = icmp ult i64 %12, %5, !dbg !2240
  br i1 %21, label %.preheader2, label %.loopexit3, !dbg !2240

22:                                               ; preds = %16
  %23 = add nuw i64 %12, 1, !dbg !2242
  br label %.loopexit, !dbg !2243

.preheader2:                                      ; preds = %34, %20
  %24 = phi i64 [ %35, %34 ], [ %12, %20 ]
  %25 = getelementptr inbounds i8, ptr %1, i64 %24, !dbg !2244
  %26 = load i64, ptr %25, align 8, !dbg !2250, !alias.scope !2229, !noalias !2230, !noundef !18
  %27 = getelementptr inbounds i64, ptr %25, i64 1, !dbg !2252
  %28 = load i64, ptr %27, align 8, !dbg !2258, !alias.scope !2229, !noalias !2230, !noundef !18
  %29 = or i64 %28, %26, !dbg !2259
  %30 = and i64 %29, -9187201950435737472, !dbg !2259
  %31 = icmp eq i64 %30, 0, !dbg !2259
  br i1 %31, label %34, label %.loopexit3, !dbg !2259

.loopexit3:                                       ; preds = %34, %.preheader2, %20
  %32 = phi i64 [ %12, %20 ], [ %35, %34 ], [ %24, %.preheader2 ], !dbg !2261
  %33 = icmp ult i64 %32, %4, !dbg !2262
  br i1 %33, label %.preheader, label %.loopexit, !dbg !2262

34:                                               ; preds = %.preheader2
  %35 = add nuw i64 %24, 16, !dbg !2263
  %36 = icmp ult i64 %35, %5, !dbg !2240
  br i1 %36, label %.preheader2, label %.loopexit3, !dbg !2240

.preheader:                                       ; preds = %41, %.loopexit3
  %37 = phi i64 [ %42, %41 ], [ %32, %.loopexit3 ]
  %38 = getelementptr inbounds [0 x i8], ptr %1, i64 0, i64 %37, !dbg !2264
  %39 = load i8, ptr %38, align 1, !dbg !2264, !alias.scope !2229, !noalias !2230, !noundef !18
  %40 = icmp sgt i8 %39, -1, !dbg !2264
  br i1 %40, label %41, label %.loopexit, !dbg !2264

41:                                               ; preds = %.preheader
  %42 = add i64 %37, 1, !dbg !2265
  %43 = icmp eq i64 %42, %4, !dbg !2262
  br i1 %43, label %.loopexit1, label %.preheader, !dbg !2262

.loopexit:                                        ; preds = %63, %.preheader, %.loopexit3, %22
  %44 = phi i64 [ %65, %63 ], [ %23, %22 ], [ %32, %.loopexit3 ], [ %37, %.preheader ], !dbg !2261
  %45 = icmp ult i64 %44, %4, !dbg !2225
  br i1 %45, label %.preheader4, label %.loopexit1, !dbg !2225

46:                                               ; preds = %.preheader4
  %47 = zext i8 %14 to i64, !dbg !2266
  %48 = getelementptr inbounds [256 x i8], ptr @anon.81eb2ca617e7b492be846be889fa0cc1.392, i64 0, i64 %47, !dbg !2270
  %49 = load i8, ptr %48, align 1, !dbg !2270, !noalias !2271, !noundef !18
  switch i8 %49, label %120 [
    i8 2, label %50
    i8 3, label %53
    i8 4, label %56
  ], !dbg !2272

50:                                               ; preds = %46
  %51 = add nuw i64 %12, 1, !dbg !2274
  %52 = icmp ult i64 %51, %4, !dbg !2274
  br i1 %52, label %59, label %120, !dbg !2274

53:                                               ; preds = %46
  %54 = add nuw i64 %12, 1, !dbg !2275
  %55 = icmp ult i64 %54, %4, !dbg !2275
  br i1 %55, label %66, label %120, !dbg !2275

56:                                               ; preds = %46
  %57 = add nuw i64 %12, 1, !dbg !2276
  %58 = icmp ult i64 %57, %4, !dbg !2276
  br i1 %58, label %91, label %120, !dbg !2276

59:                                               ; preds = %50
  %60 = getelementptr inbounds [0 x i8], ptr %1, i64 0, i64 %51, !dbg !2274
  %61 = load i8, ptr %60, align 1, !dbg !2274, !alias.scope !2229, !noalias !2230, !noundef !18
  %62 = icmp sgt i8 %61, -65, !dbg !2274
  br i1 %62, label %120, label %63, !dbg !2274

63:                                               ; preds = %114, %87, %59
  %64 = phi i64 [ %112, %114 ], [ %78, %87 ], [ %51, %59 ], !dbg !2277
  %65 = add nuw i64 %64, 1, !dbg !2278
  br label %.loopexit, !dbg !2279

66:                                               ; preds = %53
  %67 = getelementptr inbounds [0 x i8], ptr %1, i64 0, i64 %54, !dbg !2275
  %68 = load i8, ptr %67, align 1, !dbg !2275, !alias.scope !2229, !noalias !2230, !noundef !18
  switch i8 %14, label %69 [
    i8 -32, label %72
    i8 -19, label %75
  ], !dbg !2280

69:                                               ; preds = %66
  %70 = add nsw i8 %14, 31, !dbg !2281
  %71 = icmp ult i8 %70, 12, !dbg !2281
  br i1 %71, label %85, label %80, !dbg !2281

72:                                               ; preds = %66
  %73 = and i8 %68, -32, !dbg !2282
  %74 = icmp eq i8 %73, -96, !dbg !2282
  br i1 %74, label %77, label %120, !dbg !2282

75:                                               ; preds = %66
  %76 = icmp slt i8 %68, -96, !dbg !2283
  br i1 %76, label %77, label %120, !dbg !2283

77:                                               ; preds = %85, %80, %75, %72
  %78 = add nuw i64 %12, 2, !dbg !2284
  %79 = icmp ult i64 %78, %4, !dbg !2284
  br i1 %79, label %87, label %120, !dbg !2284

80:                                               ; preds = %69
  %81 = and i8 %14, -2, !dbg !2285
  %82 = icmp eq i8 %81, -18, !dbg !2285
  %83 = icmp slt i8 %68, -64, !dbg !2285
  %84 = and i1 %82, %83, !dbg !2285
  br i1 %84, label %77, label %120, !dbg !2285

85:                                               ; preds = %69
  %86 = icmp slt i8 %68, -64, !dbg !2286
  br i1 %86, label %77, label %120, !dbg !2286

87:                                               ; preds = %77
  %88 = getelementptr inbounds [0 x i8], ptr %1, i64 0, i64 %78, !dbg !2284
  %89 = load i8, ptr %88, align 1, !dbg !2284, !alias.scope !2229, !noalias !2230, !noundef !18
  %90 = icmp sgt i8 %89, -65, !dbg !2284
  br i1 %90, label %120, label %63, !dbg !2284

91:                                               ; preds = %56
  %92 = getelementptr inbounds [0 x i8], ptr %1, i64 0, i64 %57, !dbg !2276
  %93 = load i8, ptr %92, align 1, !dbg !2276, !alias.scope !2229, !noalias !2230, !noundef !18
  switch i8 %14, label %94 [
    i8 -16, label %99
    i8 -12, label %102
  ], !dbg !2287

94:                                               ; preds = %91
  %95 = add nsw i8 %14, 15, !dbg !2288
  %96 = icmp ult i8 %95, 3, !dbg !2288
  %97 = icmp slt i8 %93, -64, !dbg !2288
  %98 = and i1 %96, %97, !dbg !2288
  br i1 %98, label %104, label %120, !dbg !2288

99:                                               ; preds = %91
  %100 = add i8 %93, 112, !dbg !2289
  %101 = icmp ult i8 %100, 48, !dbg !2289
  br i1 %101, label %104, label %120, !dbg !2289

102:                                              ; preds = %91
  %103 = icmp slt i8 %93, -112, !dbg !2290
  br i1 %103, label %104, label %120, !dbg !2290

104:                                              ; preds = %102, %99, %94
  %105 = add nuw i64 %12, 2, !dbg !2291
  %106 = icmp ult i64 %105, %4, !dbg !2291
  br i1 %106, label %107, label %120, !dbg !2291

107:                                              ; preds = %104
  %108 = getelementptr inbounds [0 x i8], ptr %1, i64 0, i64 %105, !dbg !2291
  %109 = load i8, ptr %108, align 1, !dbg !2291, !alias.scope !2229, !noalias !2230, !noundef !18
  %110 = icmp sgt i8 %109, -65, !dbg !2291
  br i1 %110, label %120, label %111, !dbg !2291

111:                                              ; preds = %107
  %112 = add nuw i64 %12, 3, !dbg !2292
  %113 = icmp ult i64 %112, %4, !dbg !2292
  br i1 %113, label %114, label %120, !dbg !2292

114:                                              ; preds = %111
  %115 = getelementptr inbounds [0 x i8], ptr %1, i64 0, i64 %112, !dbg !2292
  %116 = load i8, ptr %115, align 1, !dbg !2292, !alias.scope !2229, !noalias !2230, !noundef !18
  %117 = icmp sgt i8 %116, -65, !dbg !2292
  br i1 %117, label %120, label %63, !dbg !2292

.loopexit1:                                       ; preds = %.loopexit, %41, %3
  %118 = getelementptr inbounds { [1 x i64], { ptr, i64 } }, ptr %0, i64 0, i32 1, !dbg !2293
  store ptr %1, ptr %118, align 8, !dbg !2293, !alias.scope !2185, !noalias !2189
  %119 = getelementptr inbounds { [1 x i64], { ptr, i64 } }, ptr %0, i64 0, i32 1, i32 1, !dbg !2293
  store i64 %4, ptr %119, align 8, !dbg !2293, !alias.scope !2185, !noalias !2189
  br label %_ZN4core3str8converts9from_utf817hb78c2f0fffca55d0E.exit, !dbg !2294

120:                                              ; preds = %114, %111, %107, %104, %102, %99, %94, %87, %85, %80, %77, %75, %72, %59, %56, %53, %50, %46
  %.lcssa17 = phi i64 [ %12, %114 ], [ %12, %111 ], [ %12, %107 ], [ %12, %104 ], [ %12, %102 ], [ %12, %99 ], [ %12, %94 ], [ %12, %87 ], [ %12, %85 ], [ %12, %80 ], [ %12, %77 ], [ %12, %75 ], [ %12, %72 ], [ %12, %59 ], [ %12, %56 ], [ %12, %53 ], [ %12, %50 ], [ %12, %46 ]
  %121 = phi i8 [ 3, %114 ], [ undef, %111 ], [ 2, %107 ], [ undef, %104 ], [ 1, %94 ], [ 1, %99 ], [ 1, %102 ], [ undef, %56 ], [ 2, %87 ], [ undef, %77 ], [ 1, %72 ], [ 1, %75 ], [ 1, %80 ], [ 1, %85 ], [ undef, %53 ], [ 1, %59 ], [ undef, %50 ], [ 1, %46 ]
  %122 = phi i8 [ 1, %114 ], [ 0, %111 ], [ 1, %107 ], [ 0, %104 ], [ 1, %94 ], [ 1, %99 ], [ 1, %102 ], [ 0, %56 ], [ 1, %87 ], [ 0, %77 ], [ 1, %72 ], [ 1, %75 ], [ 1, %80 ], [ 1, %85 ], [ 0, %53 ], [ 1, %59 ], [ 0, %50 ], [ 1, %46 ]
  %123 = getelementptr inbounds { [1 x i64], { i64, { i8, i8 }, [6 x i8] } }, ptr %0, i64 0, i32 1, !dbg !2295
  store i64 %.lcssa17, ptr %123, align 8, !dbg !2295, !alias.scope !2185, !noalias !2189
  %124 = getelementptr inbounds { [1 x i64], { i64, { i8, i8 }, [6 x i8] } }, ptr %0, i64 0, i32 1, i32 1, !dbg !2295
  store i8 %122, ptr %124, align 8, !dbg !2295, !alias.scope !2185, !noalias !2189
  %125 = getelementptr inbounds { [1 x i64], { i64, { i8, i8 }, [6 x i8] } }, ptr %0, i64 0, i32 1, i32 1, i32 1, !dbg !2295
  store i8 %121, ptr %125, align 1, !dbg !2295, !alias.scope !2185, !noalias !2189
  br label %_ZN4core3str8converts9from_utf817hb78c2f0fffca55d0E.exit, !dbg !2297

_ZN4core3str8converts9from_utf817hb78c2f0fffca55d0E.exit: ; preds = %120, %.loopexit1
  %126 = phi i64 [ 1, %120 ], [ 0, %.loopexit1 ], !dbg !2298
  store i64 %126, ptr %0, align 8, !dbg !2298, !alias.scope !2185, !noalias !2189
  ret void, !dbg !2299
}

; Function Attrs: cold nofree noinline norecurse noreturn nosync nounwind memory(none) uwtable
define internal fastcc void @_ZN4core6result13unwrap_failed17h16d42dbc22454d03E(ptr nocapture noundef nonnull align 1 %0, ptr noalias nocapture noundef readonly align 8 dereferenceable(24) %1) unnamed_addr #16 !dbg !2300 {
  tail call fastcc void @_ZN4core9panicking9panic_fmt17h10bd3bfe5bb30d67E() #33, !dbg !2303
  unreachable, !dbg !2303
}

; Function Attrs: uwtable
define internal noundef zeroext i1 @"_ZN68_$LT$core..fmt..builders..PadAdapter$u20$as$u20$core..fmt..Write$GT$9write_str17h52fa64b82bb09df0E"(ptr noalias nocapture noundef readonly align 8 dereferenceable(24) %0, ptr noalias noundef nonnull readonly align 1 %1, i64 noundef %2) unnamed_addr #19 personality ptr @rust_eh_personality !dbg !2304 {
  %4 = getelementptr inbounds { { ptr, ptr }, ptr }, ptr %0, i64 0, i32 1
  %5 = load ptr, ptr %4, align 8, !nonnull !18, !align !32
  %6 = load ptr, ptr %0, align 8, !nonnull !18, !align !32
  %7 = getelementptr inbounds { ptr, ptr }, ptr %0, i64 0, i32 1
  %8 = load ptr, ptr %7, align 8, !nonnull !18, !align !893
  %9 = getelementptr inbounds ptr, ptr %8, i64 3
  br label %10, !dbg !2308

10:                                               ; preds = %113, %3
  %11 = phi i64 [ %96, %113 ], [ 0, %3 ]
  %12 = phi i64 [ %97, %113 ], [ 0, %3 ]
  %13 = phi i8 [ %98, %113 ], [ 0, %3 ]
  %14 = icmp eq i8 %13, 0, !dbg !2308
  br i1 %14, label %15, label %104, !dbg !2308

15:                                               ; preds = %10
  %16 = icmp ugt i64 %11, %2, !dbg !2317
  br i1 %16, label %.loopexit15, label %.preheader21, !dbg !2329

.preheader21:                                     ; preds = %88, %15
  %17 = phi i64 [ %85, %88 ], [ %11, %15 ]
  %18 = sub nuw i64 %2, %17, !dbg !2317
  %19 = getelementptr inbounds i8, ptr %1, i64 %17, !dbg !2317
  %20 = icmp ult i64 %18, 16, !dbg !2330
  br i1 %20, label %74, label %21, !dbg !2330

21:                                               ; preds = %.preheader21
  %22 = ptrtoint ptr %19 to i64, !dbg !2339
  %23 = add i64 %22, 7, !dbg !2346
  %24 = and i64 %23, -8, !dbg !2346
  %25 = sub i64 %24, %22, !dbg !2347
  %26 = icmp ult i64 %25, 8, !dbg !2348
  tail call void @llvm.assume(i1 %26), !dbg !2349
  %27 = icmp eq i64 %24, %22, !dbg !2350
  %28 = icmp eq i64 %25, 0
  %29 = or i1 %27, %28, !dbg !2350
  br i1 %29, label %37, label %.preheader19, !dbg !2350

.preheader19:                                     ; preds = %34, %21
  %30 = phi i64 [ %35, %34 ], [ 0, %21 ]
  %31 = getelementptr inbounds [0 x i8], ptr %19, i64 0, i64 %30, !dbg !2352
  %32 = load i8, ptr %31, align 1, !dbg !2352, !alias.scope !2358, !noalias !2363, !noundef !18
  %33 = icmp eq i8 %32, 10, !dbg !2352
  br i1 %33, label %.loopexit, label %34, !dbg !2352

34:                                               ; preds = %.preheader19
  %35 = add nuw i64 %30, 1, !dbg !2369
  %36 = icmp eq i64 %35, %25, !dbg !2370
  br i1 %36, label %39, label %.preheader19, !dbg !2370

37:                                               ; preds = %21
  %38 = add i64 %18, -16
  br label %42, !dbg !2371

39:                                               ; preds = %34
  %40 = add i64 %18, -16
  %41 = icmp ugt i64 %25, %40, !dbg !2371
  br i1 %41, label %.loopexit18, label %42, !dbg !2371

42:                                               ; preds = %39, %37
  %43 = phi i64 [ %38, %37 ], [ %40, %39 ]
  %44 = phi i64 [ 0, %37 ], [ %25, %39 ]
  br label %45, !dbg !2373

45:                                               ; preds = %71, %42
  %46 = phi i64 [ %72, %71 ], [ %44, %42 ]
  %47 = getelementptr inbounds i8, ptr %19, i64 %46, !dbg !2379
  %48 = load <2 x i64>, ptr %47, align 8, !dbg !2384, !alias.scope !2385, !noalias !2363
  %49 = xor <2 x i64> %48, <i64 723401728380766730, i64 723401728380766730>, !dbg !2386
  %50 = add <2 x i64> %49, <i64 -72340172838076673, i64 -72340172838076673>, !dbg !2387
  %51 = xor <2 x i64> %48, <i64 -1, i64 -1>, !dbg !2395
  %52 = and <2 x i64> %50, %51, !dbg !2396
  %53 = shufflevector <2 x i64> %52, <2 x i64> poison, <2 x i32> <i32 1, i32 poison>, !dbg !2373
  %54 = or <2 x i64> %53, %52, !dbg !2373
  %55 = extractelement <2 x i64> %54, i64 0, !dbg !2373
  %56 = and i64 %55, -9187201950435737472, !dbg !2373
  %57 = icmp eq i64 %56, 0, !dbg !2373
  br i1 %57, label %71, label %.loopexit18, !dbg !2373

.loopexit18:                                      ; preds = %71, %45, %39
  %58 = phi i64 [ %25, %39 ], [ %72, %71 ], [ %46, %45 ], !dbg !2397
  %59 = getelementptr inbounds i8, ptr %19, i64 %58, !dbg !2398
  %60 = sub i64 %18, %58, !dbg !2403
  %61 = icmp eq i64 %58, %18, !dbg !2404
  br i1 %61, label %.loopexit15, label %.preheader16, !dbg !2404

.preheader16:                                     ; preds = %66, %.loopexit18
  %62 = phi i64 [ %67, %66 ], [ 0, %.loopexit18 ]
  %63 = getelementptr inbounds [0 x i8], ptr %59, i64 0, i64 %62, !dbg !2408
  %64 = load i8, ptr %63, align 1, !dbg !2408, !alias.scope !2409, !noalias !2363, !noundef !18
  %65 = icmp eq i8 %64, 10, !dbg !2408
  br i1 %65, label %69, label %66, !dbg !2408

66:                                               ; preds = %.preheader16
  %67 = add nuw i64 %62, 1, !dbg !2412
  %68 = icmp eq i64 %67, %60, !dbg !2404
  br i1 %68, label %.loopexit15, label %.preheader16, !dbg !2404

69:                                               ; preds = %.preheader16
  %.lcssa42 = phi i64 [ %62, %.preheader16 ]
  %70 = add i64 %.lcssa42, %58, !dbg !2413
  br label %.loopexit, !dbg !2413

71:                                               ; preds = %45
  %72 = add i64 %46, 16, !dbg !2414
  %73 = icmp ugt i64 %72, %43, !dbg !2371
  br i1 %73, label %.loopexit18, label %45, !dbg !2371

74:                                               ; preds = %.preheader21
  %75 = icmp eq i64 %17, %2, !dbg !2415
  br i1 %75, label %.loopexit15, label %.preheader, !dbg !2415

.preheader:                                       ; preds = %80, %74
  %76 = phi i64 [ %81, %80 ], [ 0, %74 ]
  %77 = getelementptr inbounds [0 x i8], ptr %19, i64 0, i64 %76, !dbg !2417
  %78 = load i8, ptr %77, align 1, !dbg !2417, !alias.scope !2418, !noalias !2363, !noundef !18
  %79 = icmp eq i8 %78, 10, !dbg !2417
  br i1 %79, label %.loopexit, label %80, !dbg !2417

80:                                               ; preds = %.preheader
  %81 = add nuw i64 %76, 1, !dbg !2421
  %82 = icmp eq i64 %81, %18, !dbg !2415
  br i1 %82, label %.loopexit15, label %.preheader, !dbg !2415

.loopexit:                                        ; preds = %.preheader, %69, %.preheader19
  %83 = phi i64 [ %70, %69 ], [ %76, %.preheader ], [ %30, %.preheader19 ]
  %84 = add i64 %17, 1, !dbg !2422
  %85 = add i64 %84, %83, !dbg !2423
  %86 = add i64 %17, %83, !dbg !2424
  %87 = icmp ult i64 %86, %2, !dbg !2424
  br i1 %87, label %90, label %88, !dbg !2424

88:                                               ; preds = %90, %.loopexit
  %89 = icmp ugt i64 %85, %2, !dbg !2317
  br i1 %89, label %.loopexit15, label %.preheader21, !dbg !2329

90:                                               ; preds = %.loopexit
  %91 = getelementptr inbounds i8, ptr %1, i64 %86, !dbg !2425
  %92 = load i8, ptr %91, align 1, !dbg !2431
  %93 = icmp eq i8 %92, 10, !dbg !2431
  br i1 %93, label %.loopexit24, label %88, !dbg !2447

.loopexit15:                                      ; preds = %88, %80, %74, %66, %.loopexit18, %15
  %94 = phi i64 [ %11, %15 ], [ %2, %80 ], [ %2, %66 ], [ %2, %74 ], [ %2, %.loopexit18 ], [ %85, %88 ]
  %95 = icmp eq i64 %12, %2
  br i1 %95, label %104, label %.loopexit24, !dbg !2448

.loopexit24:                                      ; preds = %.loopexit15, %90
  %96 = phi i64 [ %94, %.loopexit15 ], [ %85, %90 ]
  %97 = phi i64 [ %12, %.loopexit15 ], [ %85, %90 ]
  %98 = phi i8 [ 1, %.loopexit15 ], [ 0, %90 ]
  %99 = phi i64 [ %2, %.loopexit15 ], [ %85, %90 ]
  %100 = sub i64 %99, %12, !dbg !2449
  %101 = getelementptr inbounds i8, ptr %1, i64 %12, !dbg !2449
  %102 = load i8, ptr %5, align 1, !dbg !2450, !range !345, !noundef !18
  %103 = icmp eq i8 %102, 0, !dbg !2450
  br i1 %103, label %106, label %118, !dbg !2450

104:                                              ; preds = %118, %113, %.loopexit15, %10
  %105 = phi i1 [ false, %10 ], [ false, %.loopexit15 ], [ true, %113 ], [ true, %118 ]
  ret i1 %105, !dbg !2452

106:                                              ; preds = %118, %.loopexit24
  %107 = icmp eq i64 %99, %12, !dbg !2453
  br i1 %107, label %113, label %108, !dbg !2453

108:                                              ; preds = %106
  %109 = add i64 %100, -1, !dbg !2470
  %110 = getelementptr inbounds i8, ptr %101, i64 %109, !dbg !2471
  %111 = load i8, ptr %110, align 1, !dbg !2493
  %112 = icmp eq i8 %111, 10, !dbg !2493
  br label %113, !dbg !2453

113:                                              ; preds = %108, %106
  %114 = phi i1 [ %112, %108 ], [ false, %106 ]
  %115 = zext i1 %114 to i8, !dbg !2501
  store i8 %115, ptr %5, align 1, !dbg !2501
  %116 = load ptr, ptr %9, align 8, !dbg !2502, !invariant.load !18, !nonnull !18
  %117 = tail call noundef zeroext i1 %116(ptr noundef nonnull align 1 %6, ptr noalias noundef nonnull readonly align 1 %101, i64 noundef %100), !dbg !2502
  br i1 %117, label %104, label %10, !dbg !2502

118:                                              ; preds = %.loopexit24
  %119 = load ptr, ptr %9, align 8, !dbg !2503, !invariant.load !18, !nonnull !18
  %120 = tail call noundef zeroext i1 %119(ptr noundef nonnull align 1 %6, ptr noalias noundef nonnull readonly align 1 @anon.81eb2ca617e7b492be846be889fa0cc1.287, i64 noundef 4), !dbg !2503
  br i1 %120, label %104, label %106, !dbg !2503
}

; Function Attrs: uwtable
define internal noundef zeroext i1 @"_ZN68_$LT$core..fmt..builders..PadAdapter$u20$as$u20$core..fmt..Write$GT$10write_char17h78e34fc9129e99e4E"(ptr noalias nocapture noundef readonly align 8 dereferenceable(24) %0, i32 noundef %1) unnamed_addr #19 !dbg !2504 {
  %3 = getelementptr inbounds { { ptr, ptr }, ptr }, ptr %0, i64 0, i32 1, !dbg !2505
  %4 = load ptr, ptr %3, align 8, !dbg !2505, !nonnull !18, !align !32, !noundef !18
  %5 = load i8, ptr %4, align 1, !dbg !2505, !range !345, !noundef !18
  %6 = icmp eq i8 %5, 0, !dbg !2505
  %7 = load ptr, ptr %0, align 8, !dbg !2506
  %8 = getelementptr inbounds { ptr, ptr }, ptr %0, i64 0, i32 1
  %9 = load ptr, ptr %8, align 8, !dbg !2507
  br i1 %6, label %10, label %16, !dbg !2505

10:                                               ; preds = %16, %2
  %11 = icmp eq i32 %1, 10, !dbg !2508
  %12 = zext i1 %11 to i8, !dbg !2508
  store i8 %12, ptr %4, align 1, !dbg !2508
  %13 = getelementptr inbounds ptr, ptr %9, i64 4, !dbg !2506
  %14 = load ptr, ptr %13, align 8, !dbg !2506, !invariant.load !18, !nonnull !18
  %15 = tail call noundef zeroext i1 %14(ptr noundef nonnull align 1 %7, i32 noundef %1), !dbg !2506
  br label %20, !dbg !2506

16:                                               ; preds = %2
  %17 = getelementptr inbounds ptr, ptr %9, i64 3, !dbg !2509
  %18 = load ptr, ptr %17, align 8, !dbg !2509, !invariant.load !18, !nonnull !18
  %19 = tail call noundef zeroext i1 %18(ptr noundef nonnull align 1 %7, ptr noalias noundef nonnull readonly align 1 @anon.81eb2ca617e7b492be846be889fa0cc1.287, i64 noundef 4), !dbg !2509
  br i1 %19, label %20, label %10, !dbg !2509

20:                                               ; preds = %16, %10
  %21 = phi i1 [ %15, %10 ], [ true, %16 ]
  ret i1 %21, !dbg !2510
}

; Function Attrs: uwtable
define internal fastcc noundef align 8 dereferenceable(16) ptr @_ZN4core3fmt8builders11DebugStruct5field17h6b5f9234a477aec0E(ptr noalias noundef returned align 8 dereferenceable(16) %0, ptr noalias noundef nonnull readonly align 1 %1, i64 noundef %2, ptr noundef nonnull align 1 %3, ptr nocapture readonly %.24.val) unnamed_addr #19 !dbg !2511 {
  %5 = alloca { { i64, i64 }, { i64, i64 }, { ptr, ptr }, i32, i32, i8, [7 x i8] }, align 16
  %6 = alloca i8, align 1
  %7 = alloca { ptr, [2 x i64] }, align 16
  %8 = getelementptr inbounds { ptr, i8, i8, [6 x i8] }, ptr %0, i64 0, i32 1, !dbg !2513
  %9 = load i8, ptr %8, align 8, !dbg !2513, !range !345, !noundef !18
  %10 = icmp eq i8 %9, 0, !dbg !2514
  br i1 %10, label %11, label %85, !dbg !2514

11:                                               ; preds = %4
  %12 = load ptr, ptr %0, align 8, !dbg !2519, !noalias !2525, !nonnull !18, !align !893, !noundef !18
  %13 = getelementptr inbounds { { i64, i64 }, { i64, i64 }, { ptr, ptr }, i32, i32, i8, [7 x i8] }, ptr %12, i64 0, i32 4, !dbg !2528
  %14 = load i32, ptr %13, align 4, !dbg !2528, !noalias !2525, !noundef !18
  %15 = and i32 %14, 4, !dbg !2528
  %16 = icmp eq i32 %15, 0, !dbg !2528
  %17 = getelementptr inbounds { ptr, i8, i8, [6 x i8] }, ptr %0, i64 0, i32 2, !dbg !2532
  %18 = load i8, ptr %17, align 1, !dbg !2532, !range !345, !noalias !2525, !noundef !18
  %19 = icmp eq i8 %18, 0, !dbg !2532
  br i1 %16, label %20, label %30, !dbg !2519

20:                                               ; preds = %11
  %21 = select i1 %19, ptr @anon.81eb2ca617e7b492be846be889fa0cc1.288, ptr @anon.81eb2ca617e7b492be846be889fa0cc1.289, !dbg !2533
  %22 = select i1 %19, i64 3, i64 2, !dbg !2533
  tail call void @llvm.experimental.noalias.scope.decl(metadata !2534), !dbg !2537
  %23 = getelementptr inbounds { { i64, i64 }, { i64, i64 }, { ptr, ptr }, i32, i32, i8, [7 x i8] }, ptr %12, i64 0, i32 2, !dbg !2539
  %24 = load ptr, ptr %23, align 8, !dbg !2539, !alias.scope !2534, !noalias !2542, !nonnull !18, !align !32, !noundef !18
  %25 = getelementptr inbounds { { i64, i64 }, { i64, i64 }, { ptr, ptr }, i32, i32, i8, [7 x i8] }, ptr %12, i64 0, i32 2, i32 1, !dbg !2539
  %26 = load ptr, ptr %25, align 8, !dbg !2539, !alias.scope !2534, !noalias !2542, !nonnull !18, !align !893, !noundef !18
  %27 = getelementptr inbounds ptr, ptr %26, i64 3, !dbg !2539
  %28 = load ptr, ptr %27, align 8, !dbg !2539, !invariant.load !18, !noalias !2544, !nonnull !18
  %29 = tail call noundef zeroext i1 %28(ptr noundef nonnull align 1 %24, ptr noalias noundef nonnull readonly align 1 %21, i64 noundef %22), !dbg !2539, !noalias !2545
  br i1 %29, label %85, label %31, !dbg !2546

30:                                               ; preds = %11
  br i1 %19, label %45, label %55, !dbg !2551

31:                                               ; preds = %20
  tail call void @llvm.experimental.noalias.scope.decl(metadata !2552), !dbg !2555
  %32 = load ptr, ptr %23, align 8, !dbg !2556, !alias.scope !2552, !noalias !2558, !nonnull !18, !align !32, !noundef !18
  %33 = load ptr, ptr %25, align 8, !dbg !2556, !alias.scope !2552, !noalias !2558, !nonnull !18, !align !893, !noundef !18
  %34 = getelementptr inbounds ptr, ptr %33, i64 3, !dbg !2556
  %35 = load ptr, ptr %34, align 8, !dbg !2556, !invariant.load !18, !noalias !2560, !nonnull !18
  %36 = tail call noundef zeroext i1 %35(ptr noundef nonnull align 1 %32, ptr noalias noundef nonnull readonly align 1 %1, i64 noundef %2), !dbg !2556, !noalias !2561
  br i1 %36, label %85, label %37, !dbg !2555

37:                                               ; preds = %31
  tail call void @llvm.experimental.noalias.scope.decl(metadata !2562), !dbg !2565
  %38 = load ptr, ptr %23, align 8, !dbg !2566, !alias.scope !2562, !noalias !2568, !nonnull !18, !align !32, !noundef !18
  %39 = load ptr, ptr %25, align 8, !dbg !2566, !alias.scope !2562, !noalias !2568, !nonnull !18, !align !893, !noundef !18
  %40 = getelementptr inbounds ptr, ptr %39, i64 3, !dbg !2566
  %41 = load ptr, ptr %40, align 8, !dbg !2566, !invariant.load !18, !noalias !2570, !nonnull !18
  %42 = tail call noundef zeroext i1 %41(ptr noundef nonnull align 1 %38, ptr noalias noundef nonnull readonly align 1 @anon.81eb2ca617e7b492be846be889fa0cc1.284, i64 noundef 2), !dbg !2566, !noalias !2571
  br i1 %42, label %85, label %43, !dbg !2565

43:                                               ; preds = %37
  %44 = tail call noundef zeroext i1 %.24.val(ptr noundef nonnull align 1 %3, ptr noalias noundef nonnull align 8 dereferenceable(64) %12), !dbg !2572, !noalias !2525
  br label %85, !dbg !2573

45:                                               ; preds = %30
  tail call void @llvm.experimental.noalias.scope.decl(metadata !2574), !dbg !2577
  %46 = getelementptr inbounds { { i64, i64 }, { i64, i64 }, { ptr, ptr }, i32, i32, i8, [7 x i8] }, ptr %12, i64 0, i32 2, !dbg !2578
  %47 = load ptr, ptr %46, align 8, !dbg !2578, !alias.scope !2574, !noalias !2580, !nonnull !18, !align !32, !noundef !18
  %48 = getelementptr inbounds { { i64, i64 }, { i64, i64 }, { ptr, ptr }, i32, i32, i8, [7 x i8] }, ptr %12, i64 0, i32 2, i32 1, !dbg !2578
  %49 = load ptr, ptr %48, align 8, !dbg !2578, !alias.scope !2574, !noalias !2580, !nonnull !18, !align !893, !noundef !18
  %50 = getelementptr inbounds ptr, ptr %49, i64 3, !dbg !2578
  %51 = load ptr, ptr %50, align 8, !dbg !2578, !invariant.load !18, !noalias !2582, !nonnull !18
  %52 = tail call noundef zeroext i1 %51(ptr noundef nonnull align 1 %47, ptr noalias noundef nonnull readonly align 1 @anon.81eb2ca617e7b492be846be889fa0cc1.290, i64 noundef 3), !dbg !2578, !noalias !2583
  br i1 %52, label %85, label %53, !dbg !2577

53:                                               ; preds = %45
  %54 = load i32, ptr %13, align 4, !dbg !2584, !alias.scope !2592, !noalias !2597
  br label %55, !dbg !2577

55:                                               ; preds = %53, %30
  %56 = phi i32 [ %54, %53 ], [ %14, %30 ], !dbg !2584
  call void @llvm.lifetime.start.p0(i64 24, ptr nonnull %7), !dbg !2604, !noalias !2525
  call void @llvm.lifetime.start.p0(i64 1, ptr nonnull %6), !dbg !2605, !noalias !2525
  store i8 1, ptr %6, align 1, !dbg !2606, !noalias !2525
  call void @llvm.lifetime.start.p0(i64 64, ptr nonnull %5), !dbg !2607, !noalias !2525
  tail call void @llvm.experimental.noalias.scope.decl(metadata !2608), !dbg !2609
  tail call void @llvm.experimental.noalias.scope.decl(metadata !2610), !dbg !2609
  tail call void @llvm.experimental.noalias.scope.decl(metadata !2611), !dbg !2609
  tail call void @llvm.experimental.noalias.scope.decl(metadata !2612), !dbg !2613
  tail call void @llvm.experimental.noalias.scope.decl(metadata !2614), !dbg !2613
  tail call void @llvm.experimental.noalias.scope.decl(metadata !2615), !dbg !2613
  %57 = getelementptr inbounds { { i64, i64 }, { i64, i64 }, { ptr, ptr }, i32, i32, i8, [7 x i8] }, ptr %12, i64 0, i32 2, !dbg !2616
  %58 = load <2 x ptr>, ptr %57, align 8, !dbg !2616, !alias.scope !2592, !noalias !2597
  store <2 x ptr> %58, ptr %7, align 16, !dbg !2617, !alias.scope !2628, !noalias !2631
  %59 = getelementptr inbounds i8, ptr %7, i64 16, !dbg !2617
  store ptr %6, ptr %59, align 16, !dbg !2617, !alias.scope !2628, !noalias !2631
  %60 = getelementptr inbounds { { i64, i64 }, { i64, i64 }, { ptr, ptr }, i32, i32, i8, [7 x i8] }, ptr %12, i64 0, i32 3, !dbg !2634
  %61 = load i32, ptr %60, align 8, !dbg !2634, !range !671, !alias.scope !2592, !noalias !2597, !noundef !18
  %62 = getelementptr inbounds { { i64, i64 }, { i64, i64 }, { ptr, ptr }, i32, i32, i8, [7 x i8] }, ptr %12, i64 0, i32 5, !dbg !2635
  %63 = load i8, ptr %62, align 8, !dbg !2635, !range !663, !alias.scope !2592, !noalias !2597, !noundef !18
  %64 = getelementptr inbounds { { i64, i64 }, { i64, i64 }, { ptr, ptr }, i32, i32, i8, [7 x i8] }, ptr %12, i64 0, i32 1, !dbg !2636
  %65 = getelementptr inbounds { { i64, i64 }, { i64, i64 }, { ptr, ptr }, i32, i32, i8, [7 x i8] }, ptr %5, i64 0, i32 4, !dbg !2637
  store i32 %56, ptr %65, align 4, !dbg !2637, !alias.scope !2638, !noalias !2639
  %66 = getelementptr inbounds { { i64, i64 }, { i64, i64 }, { ptr, ptr }, i32, i32, i8, [7 x i8] }, ptr %5, i64 0, i32 3, !dbg !2637
  store i32 %61, ptr %66, align 16, !dbg !2637, !alias.scope !2638, !noalias !2639
  %67 = getelementptr inbounds { { i64, i64 }, { i64, i64 }, { ptr, ptr }, i32, i32, i8, [7 x i8] }, ptr %5, i64 0, i32 5, !dbg !2637
  store i8 %63, ptr %67, align 8, !dbg !2637, !alias.scope !2638, !noalias !2639
  %68 = load <2 x i64>, ptr %12, align 8, !dbg !2640, !alias.scope !2592, !noalias !2597
  store <2 x i64> %68, ptr %5, align 16, !dbg !2637, !alias.scope !2638, !noalias !2639
  %69 = getelementptr inbounds { { i64, i64 }, { i64, i64 }, { ptr, ptr }, i32, i32, i8, [7 x i8] }, ptr %5, i64 0, i32 1, !dbg !2637
  %70 = load <2 x i64>, ptr %64, align 8, !dbg !2636, !alias.scope !2592, !noalias !2597
  store <2 x i64> %70, ptr %69, align 16, !dbg !2637, !alias.scope !2638, !noalias !2639
  %71 = getelementptr inbounds { { i64, i64 }, { i64, i64 }, { ptr, ptr }, i32, i32, i8, [7 x i8] }, ptr %5, i64 0, i32 2, !dbg !2637
  store ptr %7, ptr %71, align 16, !dbg !2637, !alias.scope !2638, !noalias !2639
  %72 = getelementptr inbounds { { i64, i64 }, { i64, i64 }, { ptr, ptr }, i32, i32, i8, [7 x i8] }, ptr %5, i64 0, i32 2, i32 1, !dbg !2637
  store ptr @anon.81eb2ca617e7b492be846be889fa0cc1.286, ptr %72, align 8, !dbg !2637, !alias.scope !2638, !noalias !2639
  %73 = call noundef zeroext i1 @"_ZN68_$LT$core..fmt..builders..PadAdapter$u20$as$u20$core..fmt..Write$GT$9write_str17h52fa64b82bb09df0E"(ptr noundef nonnull align 1 %7, ptr noalias noundef nonnull readonly align 1 %1, i64 noundef %2), !dbg !2641, !noalias !2644
  br i1 %73, label %84, label %74, !dbg !2647

74:                                               ; preds = %55
  %75 = call noundef zeroext i1 @"_ZN68_$LT$core..fmt..builders..PadAdapter$u20$as$u20$core..fmt..Write$GT$9write_str17h52fa64b82bb09df0E"(ptr noundef nonnull align 1 %7, ptr noalias noundef nonnull readonly align 1 @anon.81eb2ca617e7b492be846be889fa0cc1.284, i64 noundef 2), !dbg !2648, !noalias !2650
  br i1 %75, label %84, label %76, !dbg !2653

76:                                               ; preds = %74
  %77 = call noundef zeroext i1 %.24.val(ptr noundef nonnull align 1 %3, ptr noalias noundef nonnull align 8 dereferenceable(64) %5), !dbg !2654, !noalias !2525
  br i1 %77, label %84, label %78, !dbg !2654

78:                                               ; preds = %76
  call void @llvm.experimental.noalias.scope.decl(metadata !2655), !dbg !2658
  %79 = load ptr, ptr %71, align 16, !dbg !2659, !alias.scope !2655, !noalias !2661, !nonnull !18, !align !32, !noundef !18
  %80 = load ptr, ptr %72, align 8, !dbg !2659, !alias.scope !2655, !noalias !2661, !nonnull !18, !align !893, !noundef !18
  %81 = getelementptr inbounds ptr, ptr %80, i64 3, !dbg !2659
  %82 = load ptr, ptr %81, align 8, !dbg !2659, !invariant.load !18, !noalias !2663, !nonnull !18
  %83 = call noundef zeroext i1 %82(ptr noundef nonnull align 1 %79, ptr noalias noundef nonnull readonly align 1 @anon.81eb2ca617e7b492be846be889fa0cc1.291, i64 noundef 2), !dbg !2659, !noalias !2664
  call void @llvm.lifetime.end.p0(i64 64, ptr nonnull %5), !dbg !2665, !noalias !2525
  call void @llvm.lifetime.end.p0(i64 1, ptr nonnull %6), !dbg !2666, !noalias !2525
  call void @llvm.lifetime.end.p0(i64 24, ptr nonnull %7), !dbg !2667, !noalias !2525
  br label %85, !dbg !2573

84:                                               ; preds = %76, %74, %55
  call void @llvm.lifetime.end.p0(i64 64, ptr nonnull %5), !dbg !2665, !noalias !2525
  call void @llvm.lifetime.end.p0(i64 1, ptr nonnull %6), !dbg !2666, !noalias !2525
  call void @llvm.lifetime.end.p0(i64 24, ptr nonnull %7), !dbg !2667, !noalias !2525
  br label %85, !dbg !2668

85:                                               ; preds = %84, %78, %45, %43, %37, %31, %20, %4
  %86 = phi i1 [ true, %4 ], [ true, %84 ], [ %83, %78 ], [ %44, %43 ], [ true, %37 ], [ true, %31 ], [ true, %20 ], [ true, %45 ]
  %87 = zext i1 %86 to i8, !dbg !2670
  store i8 %87, ptr %8, align 8, !dbg !2670
  %88 = getelementptr inbounds { ptr, i8, i8, [6 x i8] }, ptr %0, i64 0, i32 2, !dbg !2671
  store i8 1, ptr %88, align 1, !dbg !2671
  ret ptr %0, !dbg !2672
}

; Function Attrs: uwtable
define internal noundef zeroext i1 @_ZN4core3fmt5Write9write_fmt17h010f271c82c531e2E(ptr noalias noundef align 8 dereferenceable(24) %0, ptr noalias nocapture noundef readonly align 8 dereferenceable(48) %1) unnamed_addr #19 !dbg !2673 {
  %3 = tail call fastcc noundef zeroext i1 @_ZN4core3fmt5write17he9fa43146d420946E(ptr noundef nonnull align 1 %0, ptr noalias noundef nonnull readonly align 8 dereferenceable(24) @anon.81eb2ca617e7b492be846be889fa0cc1.286, ptr noalias nocapture noundef nonnull readonly align 8 dereferenceable(48) %1), !dbg !2675
  ret i1 %3, !dbg !2680
}

; Function Attrs: nocallback nofree nosync nounwind speculatable willreturn memory(none)
declare { i64, i1 } @llvm.umul.with.overflow.i64(i64, i64) #13

; Function Attrs: nocallback nofree nosync nounwind speculatable willreturn memory(none)
declare i64 @llvm.abs.i64(i64, i1 immarg) #13

; Function Attrs: nocallback nofree nosync nounwind speculatable willreturn memory(none)
declare i32 @llvm.umin.i32(i32, i32) #13

; Function Attrs: nofree noinline nosync nounwind memory(read, argmem: readwrite, inaccessiblemem: readwrite) uwtable
define internal fastcc void @"_ZN4core3num7dec2flt60_$LT$impl$u20$core..str..traits..FromStr$u20$for$u20$f64$GT$8from_str17h6e816cefcb5fb04dE"(ptr noalias nocapture noundef writeonly align 8 dereferenceable(16) %0, ptr noalias noundef nonnull readonly align 1 %1, i64 noundef %2) unnamed_addr #29 personality ptr @rust_eh_personality !dbg !2681 {
  %4 = alloca { i64, [768 x i8], i32, i8, [3 x i8] }, align 8
  %5 = alloca { i64, [768 x i8], i32, i8, [3 x i8] }, align 8
  tail call void @llvm.experimental.noalias.scope.decl(metadata !2684), !dbg !2687
  tail call void @llvm.experimental.noalias.scope.decl(metadata !2688), !dbg !2687
  %6 = icmp eq i64 %2, 0, !dbg !2690
  br i1 %6, label %10, label %7, !dbg !2699

7:                                                ; preds = %3
  %8 = load i8, ptr %1, align 1, !dbg !2700, !alias.scope !2688, !noalias !2684, !noundef !18
  %9 = icmp eq i8 %8, 45, !dbg !2701
  switch i8 %8, label %18 [
    i8 45, label %12
    i8 43, label %12
  ], !dbg !2703

10:                                               ; preds = %3
  %11 = getelementptr inbounds { [1 x i8], i8 }, ptr %0, i64 0, i32 1, !dbg !2705
  store i8 0, ptr %11, align 1, !dbg !2705, !alias.scope !2684, !noalias !2688
  br label %758, !dbg !2706

12:                                               ; preds = %7, %7
  %13 = add i64 %2, -1, !dbg !2708
  %14 = getelementptr inbounds i8, ptr %1, i64 1, !dbg !2725
  %15 = icmp eq i64 %13, 0, !dbg !2731
  br i1 %15, label %16, label %18, !dbg !2731

16:                                               ; preds = %12
  %17 = getelementptr inbounds { [1 x i8], i8 }, ptr %0, i64 0, i32 1, !dbg !2732
  store i8 1, ptr %17, align 1, !dbg !2732, !alias.scope !2684, !noalias !2688
  br label %758, !dbg !2733

18:                                               ; preds = %12, %7
  %19 = phi ptr [ %14, %12 ], [ %1, %7 ]
  %20 = phi i64 [ %13, %12 ], [ %2, %7 ]
  %21 = icmp ugt i64 %20, 7, !dbg !2735
  br i1 %21, label %.preheader69, label %.thread, !dbg !2735

.preheader69:                                     ; preds = %51, %18
  %22 = phi ptr [ %65, %51 ], [ %19, %18 ]
  %23 = phi i64 [ %64, %51 ], [ %20, %18 ]
  %24 = phi i64 [ %63, %51 ], [ 0, %18 ]
  %25 = load i64, ptr %22, align 1, !dbg !2747, !alias.scope !2762, !noalias !2772
  %26 = add i64 %25, 5063812098665367110, !dbg !2777
  %27 = add i64 %25, -3472328296227680304, !dbg !2785
  %28 = or i64 %26, %27, !dbg !2791
  %29 = and i64 %28, -9187201950435737472, !dbg !2791
  %30 = icmp eq i64 %29, 0, !dbg !2791
  br i1 %30, label %51, label %.thread, !dbg !2793

31:                                               ; preds = %51
  %.lcssa306 = phi i64 [ %63, %51 ], !dbg !2794
  %.lcssa305 = phi i64 [ %64, %51 ], !dbg !2799
  %.lcssa304 = phi ptr [ %65, %51 ], !dbg !2816
  %32 = icmp eq i64 %.lcssa305, 0, !dbg !2822
  br i1 %32, label %81, label %.thread, !dbg !2822

.thread:                                          ; preds = %31, %.preheader69, %18
  %33 = phi i64 [ %.lcssa306, %31 ], [ 0, %18 ], [ %24, %.preheader69 ]
  %34 = phi i64 [ %.lcssa305, %31 ], [ %20, %18 ], [ %23, %.preheader69 ]
  %35 = phi ptr [ %.lcssa304, %31 ], [ %19, %18 ], [ %22, %.preheader69 ]
  %36 = getelementptr i8, ptr %35, i64 %34, !dbg !2827
  br label %37, !dbg !2827

37:                                               ; preds = %44, %.thread
  %38 = phi i64 [ %33, %.thread ], [ %49, %44 ]
  %39 = phi ptr [ %35, %.thread ], [ %46, %44 ]
  %40 = phi i64 [ %34, %.thread ], [ %45, %44 ]
  %41 = load i8, ptr %39, align 1, !dbg !2829, !alias.scope !2830, !noalias !2831, !noundef !18
  %42 = add i8 %41, -48, !dbg !2832
  %43 = icmp ult i8 %42, 10, !dbg !2827
  br i1 %43, label %44, label %67, !dbg !2827

44:                                               ; preds = %37
  %45 = add i64 %40, -1, !dbg !2838
  %46 = getelementptr inbounds [0 x i8], ptr %39, i64 0, i64 1, !dbg !2838
  %47 = mul i64 %38, 10, !dbg !2839
  %48 = zext i8 %42 to i64, !dbg !2847
  %49 = add i64 %47, %48, !dbg !2848
  %50 = icmp eq i64 %45, 0, !dbg !2822
  br i1 %50, label %79, label %37, !dbg !2822

51:                                               ; preds = %.preheader69
  %52 = mul i64 %24, 100000000, !dbg !2853
  %53 = mul i64 %27, 10, !dbg !2858
  %54 = lshr i64 %27, 8, !dbg !2861
  %55 = add i64 %53, %54, !dbg !2862
  %56 = and i64 %55, 1095216660735, !dbg !2863
  %57 = mul i64 %56, 4294967296000100, !dbg !2864
  %58 = lshr i64 %55, 16, !dbg !2869
  %59 = and i64 %58, 1095216660735, !dbg !2871
  %60 = mul i64 %59, 42949672960001, !dbg !2872
  %61 = add i64 %60, %57, !dbg !2876
  %62 = lshr i64 %61, 32, !dbg !2882
  %63 = add i64 %62, %52, !dbg !2794
  %64 = add i64 %23, -8, !dbg !2799
  %65 = getelementptr inbounds i8, ptr %22, i64 8, !dbg !2816
  %66 = icmp ugt i64 %64, 7, !dbg !2735
  br i1 %66, label %.preheader69, label %31, !dbg !2735

67:                                               ; preds = %37
  %.lcssa295 = phi i64 [ %38, %37 ]
  %.lcssa293 = phi ptr [ %39, %37 ]
  %.lcssa291 = phi i64 [ %40, %37 ]
  %.lcssa289 = phi i8 [ %41, %37 ], !dbg !2829
  %68 = sub i64 %20, %.lcssa291, !dbg !2883
  %69 = add i64 %.lcssa291, -1, !dbg !2888
  %70 = icmp eq i8 %.lcssa289, 46, !dbg !2898
  br i1 %70, label %84, label %71, !dbg !2898

71:                                               ; preds = %.loopexit62, %67
  %72 = phi i64 [ %134, %.loopexit62 ], [ %.lcssa295, %67 ], !dbg !2899
  %73 = phi i64 [ %135, %.loopexit62 ], [ %.lcssa291, %67 ], !dbg !2899
  %74 = phi ptr [ %136, %.loopexit62 ], [ %.lcssa293, %67 ], !dbg !2899
  %75 = phi i64 [ %139, %.loopexit62 ], [ 0, %67 ], !dbg !2900
  %76 = phi i64 [ %138, %.loopexit62 ], [ 0, %67 ], !dbg !2901
  %77 = add i64 %76, %68, !dbg !2902
  %78 = icmp eq i64 %77, 0, !dbg !2903
  br i1 %78, label %275, label %140, !dbg !2903

79:                                               ; preds = %44
  %.lcssa297 = phi i64 [ %49, %44 ], !dbg !2848
  %80 = icmp ne ptr %36, null
  br label %81

81:                                               ; preds = %79, %31
  %82 = phi i64 [ %.lcssa306, %31 ], [ %.lcssa297, %79 ]
  %83 = phi i1 [ true, %31 ], [ %80, %79 ]
  tail call void @llvm.assume(i1 %83), !noalias !2684
  br label %146

84:                                               ; preds = %67
  %85 = getelementptr inbounds [0 x i8], ptr %.lcssa293, i64 0, i64 1, !dbg !2888
  %86 = icmp ugt i64 %69, 7, !dbg !2904
  br i1 %86, label %.preheader66, label %.loopexit68, !dbg !2904

.preheader66:                                     ; preds = %118, %84
  %87 = phi ptr [ %132, %118 ], [ %85, %84 ]
  %88 = phi i64 [ %131, %118 ], [ %69, %84 ]
  %89 = phi i64 [ %130, %118 ], [ %.lcssa295, %84 ]
  %90 = load i64, ptr %87, align 1, !dbg !2907, !alias.scope !2911, !noalias !2917
  %91 = add i64 %90, 5063812098665367110, !dbg !2920
  %92 = add i64 %90, -3472328296227680304, !dbg !2923
  %93 = or i64 %91, %92, !dbg !2925
  %94 = and i64 %93, -9187201950435737472, !dbg !2925
  %95 = icmp eq i64 %94, 0, !dbg !2925
  br i1 %95, label %118, label %.loopexit67, !dbg !2926

.loopexit68:                                      ; preds = %118, %84
  %96 = phi i64 [ %.lcssa295, %84 ], [ %130, %118 ]
  %97 = phi i64 [ %69, %84 ], [ %131, %118 ]
  %98 = phi ptr [ %85, %84 ], [ %132, %118 ]
  %99 = icmp eq i64 %97, 0, !dbg !2927
  br i1 %99, label %.loopexit62, label %.loopexit67, !dbg !2927

.loopexit67:                                      ; preds = %.loopexit68, %.preheader66
  %100 = phi i64 [ %96, %.loopexit68 ], [ %89, %.preheader66 ]
  %101 = phi i64 [ %97, %.loopexit68 ], [ %88, %.preheader66 ]
  %102 = phi ptr [ %98, %.loopexit68 ], [ %87, %.preheader66 ]
  %103 = getelementptr i8, ptr %102, i64 %101, !dbg !2929
  br label %104, !dbg !2929

104:                                              ; preds = %111, %.loopexit67
  %105 = phi i64 [ %100, %.loopexit67 ], [ %116, %111 ]
  %106 = phi ptr [ %102, %.loopexit67 ], [ %113, %111 ]
  %107 = phi i64 [ %101, %.loopexit67 ], [ %112, %111 ]
  %108 = load i8, ptr %106, align 1, !dbg !2930, !alias.scope !2931, !noalias !2934, !noundef !18
  %109 = add i8 %108, -48, !dbg !2936
  %110 = icmp ult i8 %109, 10, !dbg !2929
  br i1 %110, label %111, label %.loopexit62, !dbg !2929

111:                                              ; preds = %104
  %112 = add i64 %107, -1, !dbg !2938
  %113 = getelementptr inbounds [0 x i8], ptr %106, i64 0, i64 1, !dbg !2938
  %114 = mul i64 %105, 10, !dbg !2939
  %115 = zext i8 %109 to i64, !dbg !2942
  %116 = add i64 %114, %115, !dbg !2943
  %117 = icmp eq i64 %112, 0, !dbg !2927
  br i1 %117, label %.loopexit62, label %104, !dbg !2927

118:                                              ; preds = %.preheader66
  %119 = mul i64 %89, 100000000, !dbg !2945
  %120 = mul i64 %92, 10, !dbg !2947
  %121 = lshr i64 %92, 8, !dbg !2949
  %122 = add i64 %120, %121, !dbg !2950
  %123 = and i64 %122, 1095216660735, !dbg !2951
  %124 = mul i64 %123, 4294967296000100, !dbg !2952
  %125 = lshr i64 %122, 16, !dbg !2954
  %126 = and i64 %125, 1095216660735, !dbg !2955
  %127 = mul i64 %126, 42949672960001, !dbg !2956
  %128 = add i64 %127, %124, !dbg !2958
  %129 = lshr i64 %128, 32, !dbg !2960
  %130 = add i64 %129, %119, !dbg !2961
  %131 = add i64 %88, -8, !dbg !2963
  %132 = getelementptr inbounds i8, ptr %87, i64 8, !dbg !2968
  %133 = icmp ugt i64 %131, 7, !dbg !2904
  br i1 %133, label %.preheader66, label %.loopexit68, !dbg !2904

.loopexit62:                                      ; preds = %111, %104, %.loopexit68
  %134 = phi i64 [ %96, %.loopexit68 ], [ %105, %104 ], [ %116, %111 ]
  %135 = phi i64 [ 0, %.loopexit68 ], [ %107, %104 ], [ 0, %111 ], !dbg !2970
  %136 = phi ptr [ %98, %.loopexit68 ], [ %106, %104 ], [ %103, %111 ], !dbg !2970
  %137 = icmp ne ptr %136, null
  tail call void @llvm.assume(i1 %137), !noalias !2684
  %138 = sub i64 %69, %135, !dbg !2971
  %139 = sub i64 0, %138, !dbg !2975
  br label %71, !dbg !2976

140:                                              ; preds = %71
  %141 = icmp eq i64 %73, 0, !dbg !2977
  %142 = getelementptr inbounds [0 x i8], ptr %74, i64 0, i64 1, !dbg !2977
  %143 = add i64 %73, -1, !dbg !2977
  br i1 %141, label %146, label %144, !dbg !2983

144:                                              ; preds = %140
  %145 = load i8, ptr %74, align 1, !dbg !2984, !alias.scope !2830, !noalias !2831, !noundef !18
  switch i8 %145, label %146 [
    i8 101, label %154
    i8 69, label %154
  ], !dbg !2985

146:                                              ; preds = %188, %144, %140, %81
  %147 = phi i64 [ %.lcssa291, %140 ], [ %.lcssa291, %144 ], [ %.lcssa291, %188 ], [ 0, %81 ]
  %148 = phi i64 [ %72, %140 ], [ %72, %144 ], [ %72, %188 ], [ %82, %81 ]
  %149 = phi i64 [ %77, %140 ], [ %77, %144 ], [ %77, %188 ], [ %20, %81 ]
  %150 = phi i64 [ 0, %140 ], [ 1, %144 ], [ %190, %188 ], [ 0, %81 ], !dbg !2899
  %151 = phi i64 [ 0, %140 ], [ 0, %144 ], [ %192, %188 ], [ 0, %81 ], !dbg !2986
  %152 = phi i64 [ %75, %140 ], [ %75, %144 ], [ %193, %188 ], [ 0, %81 ], !dbg !2986
  %153 = icmp slt i64 %149, 20, !dbg !2987
  br i1 %153, label %270, label %194, !dbg !2987

154:                                              ; preds = %144, %144
  %155 = icmp eq i64 %143, 0, !dbg !2989
  %156 = getelementptr inbounds [0 x i8], ptr %74, i64 0, i64 2, !dbg !2989
  %157 = add i64 %73, -2, !dbg !2989
  br i1 %155, label %275, label %158, !dbg !3000

158:                                              ; preds = %154
  %159 = load i8, ptr %142, align 1, !dbg !3001, !alias.scope !2830, !noalias !3002, !noundef !18
  %160 = icmp eq i8 %159, 45, !dbg !3005
  switch i8 %159, label %165 [
    i8 45, label %161
    i8 43, label %161
  ], !dbg !3006

161:                                              ; preds = %158, %158
  %162 = icmp eq i64 %157, 0, !dbg !3007
  br i1 %162, label %275, label %163, !dbg !3012

163:                                              ; preds = %161
  %164 = load i8, ptr %156, align 1, !dbg !3013, !alias.scope !2830, !noalias !3002
  br label %165, !dbg !3012

165:                                              ; preds = %163, %158
  %166 = phi i8 [ %164, %163 ], [ %159, %158 ], !dbg !3013
  %167 = phi ptr [ %156, %163 ], [ %142, %158 ]
  %168 = phi i64 [ %157, %163 ], [ %143, %158 ]
  %169 = add i8 %166, -48, !dbg !3013
  %170 = icmp ult i8 %169, 10, !dbg !3013
  br i1 %170, label %.preheader61, label %275, !dbg !3017

.preheader61:                                     ; preds = %178, %165
  %171 = phi i64 [ %185, %178 ], [ 0, %165 ], !dbg !3018
  %172 = phi ptr [ %180, %178 ], [ %167, %165 ]
  %173 = phi i64 [ %179, %178 ], [ %168, %165 ]
  %174 = phi i64 [ %186, %178 ], [ 0, %165 ]
  %175 = load i8, ptr %172, align 1, !dbg !3019, !alias.scope !3024, !noalias !3027, !noundef !18
  %176 = add i8 %175, -48, !dbg !3029
  %177 = icmp ult i8 %176, 10, !dbg !3034
  br i1 %177, label %178, label %188, !dbg !3034

178:                                              ; preds = %.preheader61
  %179 = add i64 %173, -1, !dbg !3036
  %180 = getelementptr inbounds [0 x i8], ptr %172, i64 0, i64 1, !dbg !3036
  %181 = icmp slt i64 %174, 65536, !dbg !3037
  %182 = mul i64 %174, 10, !dbg !3037
  %183 = zext i8 %176 to i64, !dbg !3037
  %184 = add i64 %182, %183, !dbg !3037
  %185 = select i1 %181, i64 %184, i64 %171, !dbg !3037
  %186 = select i1 %181, i64 %184, i64 %174, !dbg !3037
  %187 = icmp eq i64 %179, 0, !dbg !3041
  br i1 %187, label %188, label %.preheader61, !dbg !3041

188:                                              ; preds = %178, %.preheader61
  %189 = phi i64 [ %185, %178 ], [ %171, %.preheader61 ], !dbg !3018
  %190 = phi i64 [ 0, %178 ], [ %173, %.preheader61 ], !dbg !3042
  %191 = sub i64 0, %189
  %192 = select i1 %160, i64 %191, i64 %189, !dbg !3043
  %193 = add i64 %192, %75, !dbg !3044
  br label %146, !dbg !3045

194:                                              ; preds = %146
  %195 = add nsw i64 %149, -19, !dbg !3046
  %196 = getelementptr inbounds [0 x i8], ptr %19, i64 0, i64 1, !dbg !3047
  br label %197, !dbg !3054

197:                                              ; preds = %206, %194
  %198 = phi i64 [ %207, %206 ], [ %20, %194 ]
  %199 = phi ptr [ %213, %206 ], [ %196, %194 ]
  %200 = phi i64 [ %210, %206 ], [ %195, %194 ]
  %201 = phi ptr [ %199, %206 ], [ %19, %194 ]
  %202 = load i8, ptr %201, align 1, !dbg !3055, !alias.scope !2830, !noalias !2831, !noundef !18
  switch i8 %202, label %203 [
    i8 46, label %206
    i8 48, label %206
  ], !dbg !3054

203:                                              ; preds = %206, %197
  %204 = phi i64 [ %210, %206 ], [ %200, %197 ], !dbg !3056
  %205 = icmp sgt i64 %204, 0, !dbg !3057
  br i1 %205, label %.preheader59, label %232, !dbg !3057

206:                                              ; preds = %197, %197
  %207 = add i64 %198, -1, !dbg !3047
  %208 = tail call i8 @llvm.usub.sat.i8(i8 %202, i8 47), !dbg !3058
  %209 = zext i8 %208 to i64, !dbg !3063
  %210 = sub i64 %200, %209, !dbg !3064
  %211 = icmp eq i64 %207, 0, !dbg !3047
  %212 = getelementptr inbounds [0 x i8], ptr %199, i64 0, i64 1, !dbg !3047
  %213 = select i1 %211, ptr %199, ptr %212, !dbg !3047
  %214 = icmp eq ptr %199, null, !dbg !3065
  %215 = select i1 %211, i1 true, i1 %214, !dbg !3065
  br i1 %215, label %203, label %197, !dbg !3065

.preheader59:                                     ; preds = %222, %203
  %216 = phi i64 [ %227, %222 ], [ 0, %203 ], !dbg !3066
  %217 = phi ptr [ %224, %222 ], [ %19, %203 ]
  %218 = phi i64 [ %223, %222 ], [ %20, %203 ]
  %219 = load i8, ptr %217, align 1, !dbg !3067, !alias.scope !2830, !noalias !3073, !noundef !18
  %220 = add i8 %219, -48, !dbg !3077
  %221 = icmp ult i8 %220, 10, !dbg !3082
  br i1 %221, label %222, label %.loopexit60, !dbg !3082

222:                                              ; preds = %.preheader59
  %223 = add i64 %218, -1, !dbg !3084
  %224 = getelementptr inbounds [0 x i8], ptr %217, i64 0, i64 1, !dbg !3084
  %225 = mul nuw i64 %216, 10, !dbg !3085
  %226 = zext i8 %220 to i64, !dbg !3086
  %227 = add nuw i64 %225, %226, !dbg !3087
  %228 = icmp ugt i64 %227, 999999999999999999, !dbg !3088
  %229 = icmp eq i64 %223, 0
  %230 = select i1 %228, i1 true, i1 %229, !dbg !3088
  br i1 %230, label %231, label %.preheader59, !dbg !3088

231:                                              ; preds = %222
  br i1 %228, label %237, label %236, !dbg !3089

232:                                              ; preds = %266, %203
  %233 = phi i64 [ %267, %266 ], [ %148, %203 ], !dbg !2899
  %234 = phi i64 [ %269, %266 ], [ %152, %203 ], !dbg !2986
  %235 = zext i1 %205 to i8, !dbg !3090
  br label %270, !dbg !3091

236:                                              ; preds = %231
  br i1 %229, label %265, label %.loopexit60, !dbg !3092

237:                                              ; preds = %231
  %238 = sub i64 %223, %147, !dbg !3099
  br label %266, !dbg !3102

.loopexit60:                                      ; preds = %236, %.preheader59
  %239 = phi i64 [ %227, %236 ], [ %216, %.preheader59 ]
  %240 = phi i64 [ %223, %236 ], [ %218, %.preheader59 ]
  %241 = phi ptr [ %224, %236 ], [ %217, %.preheader59 ]
  %242 = add i64 %240, -1, !dbg !3103
  %243 = icmp eq i64 %242, 0
  br i1 %243, label %.loopexit56, label %244, !dbg !3114

244:                                              ; preds = %.loopexit60
  %245 = getelementptr inbounds i8, ptr %241, i64 1, !dbg !3117
  br label %246, !dbg !3123

246:                                              ; preds = %253, %244
  %247 = phi i64 [ %258, %253 ], [ %239, %244 ], !dbg !3066
  %248 = phi ptr [ %255, %253 ], [ %245, %244 ]
  %249 = phi i64 [ %254, %253 ], [ %242, %244 ]
  %250 = load i8, ptr %248, align 1, !dbg !3124, !alias.scope !2830, !noalias !3125, !noundef !18
  %251 = add i8 %250, -48, !dbg !3129
  %252 = icmp ult i8 %251, 10, !dbg !3123
  br i1 %252, label %253, label %.loopexit56, !dbg !3123

253:                                              ; preds = %246
  %254 = add i64 %249, -1, !dbg !3131
  %255 = getelementptr inbounds [0 x i8], ptr %248, i64 0, i64 1, !dbg !3131
  %256 = mul nuw i64 %247, 10, !dbg !3132
  %257 = zext i8 %251 to i64, !dbg !3133
  %258 = add nuw i64 %256, %257, !dbg !3134
  %259 = icmp ugt i64 %258, 999999999999999999, !dbg !3114
  %260 = icmp eq i64 %254, 0
  %261 = select i1 %259, i1 true, i1 %260, !dbg !3114
  br i1 %261, label %.loopexit56, label %246, !dbg !3114

.loopexit56:                                      ; preds = %253, %246, %.loopexit60
  %262 = phi i64 [ %239, %.loopexit60 ], [ %258, %253 ], [ %247, %246 ], !dbg !3066
  %263 = phi i64 [ 0, %.loopexit60 ], [ %254, %253 ], [ %249, %246 ], !dbg !3135
  %264 = sub i64 %263, %242, !dbg !3136
  br label %266, !dbg !3102

265:                                              ; preds = %236
  tail call fastcc void @_ZN4core5slice5index24slice_end_index_len_fail17hfdbe95b016e4b961E(i64 noundef 1, i64 noundef 0) #33, !dbg !3139
  unreachable, !dbg !3139

266:                                              ; preds = %.loopexit56, %237
  %267 = phi i64 [ %227, %237 ], [ %262, %.loopexit56 ], !dbg !3140
  %268 = phi i64 [ %238, %237 ], [ %264, %.loopexit56 ], !dbg !3141
  %269 = add i64 %268, %151, !dbg !3142
  br label %232, !dbg !3143

270:                                              ; preds = %232, %146
  %271 = phi i8 [ %235, %232 ], [ 0, %146 ], !dbg !2986
  %272 = phi i64 [ %233, %232 ], [ %148, %146 ]
  %273 = phi i64 [ %234, %232 ], [ %152, %146 ]
  %274 = icmp eq i64 %150, 0, !dbg !3144
  br i1 %274, label %_ZN4core3num7dec2flt5parse12parse_number17h1b9b0326bc1edc5eE.exit, label %275, !dbg !3144

275:                                              ; preds = %270, %165, %161, %154, %71
  switch i64 %20, label %337 [
    i64 8, label %276
    i64 3, label %281
  ], !dbg !3145

276:                                              ; preds = %275
  %277 = load i64, ptr %19, align 1, !dbg !3150, !alias.scope !3157, !noalias !3163
  br label %278, !dbg !3165

278:                                              ; preds = %281, %276
  %279 = phi i64 [ %293, %281 ], [ %277, %276 ], !dbg !3166
  %280 = and i64 %279, -2314885530818453537, !dbg !3167
  switch i64 %280, label %337 [
    i64 4607561, label %294
    i64 6436850368004902473, label %296
    i64 5128526, label %298
  ], !dbg !3168

281:                                              ; preds = %275
  %282 = load i8, ptr %19, align 1, !dbg !3169, !alias.scope !3170, !noalias !2684, !noundef !18
  %283 = zext i8 %282 to i64, !dbg !3169
  %284 = getelementptr inbounds [0 x i8], ptr %19, i64 0, i64 1, !dbg !3171
  %285 = load i8, ptr %284, align 1, !dbg !3171, !alias.scope !3170, !noalias !2684, !noundef !18
  %286 = zext i8 %285 to i64, !dbg !3171
  %287 = getelementptr inbounds [0 x i8], ptr %19, i64 0, i64 2, !dbg !3173
  %288 = load i8, ptr %287, align 1, !dbg !3173, !alias.scope !3170, !noalias !2684, !noundef !18
  %289 = zext i8 %288 to i64, !dbg !3173
  %290 = shl nuw nsw i64 %289, 16, !dbg !3175
  %291 = shl nuw nsw i64 %286, 8, !dbg !3177
  %292 = or i64 %291, %283, !dbg !3175
  %293 = or i64 %292, %290, !dbg !3178
  br label %278, !dbg !3165

294:                                              ; preds = %278
  %295 = icmp eq i64 %20, 3, !dbg !3168
  br i1 %295, label %332, label %337, !dbg !3168

296:                                              ; preds = %278
  %297 = icmp eq i64 %20, 8, !dbg !3168
  br i1 %297, label %332, label %337, !dbg !3168

298:                                              ; preds = %278
  %299 = icmp eq i64 %20, 3, !dbg !3168
  br i1 %299, label %332, label %337, !dbg !3168

_ZN4core3num7dec2flt5parse12parse_number17h1b9b0326bc1edc5eE.exit: ; preds = %270
  %300 = add i64 %273, 22, !dbg !3179
  %301 = icmp ult i64 %300, 60, !dbg !3179
  %302 = icmp ult i64 %272, 9007199254740993
  %303 = select i1 %301, i1 %302, i1 false, !dbg !3179
  %304 = icmp eq i8 %271, 0
  %305 = and i1 %304, %303, !dbg !3179
  br i1 %305, label %306, label %344, !dbg !3179

306:                                              ; preds = %_ZN4core3num7dec2flt5parse12parse_number17h1b9b0326bc1edc5eE.exit
  %307 = icmp slt i64 %273, 23, !dbg !3191
  br i1 %307, label %308, label %311, !dbg !3191

308:                                              ; preds = %306
  %309 = uitofp i64 %272 to double, !dbg !3192
  %310 = icmp slt i64 %273, 0, !dbg !3198
  br i1 %310, label %327, label %323, !dbg !3198

311:                                              ; preds = %306
  %312 = add nsw i64 %273, -22, !dbg !3200
  %313 = getelementptr inbounds [16 x i64], ptr @anon.81eb2ca617e7b492be846be889fa0cc1.43, i64 0, i64 %312, !dbg !3201
  %314 = load i64, ptr %313, align 8, !dbg !3201, !noalias !3203, !noundef !18
  %315 = tail call { i64, i1 } @llvm.umul.with.overflow.i64(i64 %272, i64 %314), !dbg !3206
  %316 = extractvalue { i64, i1 } %315, 0, !dbg !3206
  %317 = extractvalue { i64, i1 } %315, 1, !dbg !3206
  %318 = icmp ugt i64 %316, 9007199254740992
  %319 = or i1 %317, %318, !dbg !3214
